 handmade

 Timestamp is 58c91231 (Wed Mar 15 03:06:41 2017)

 Preferred load address is 0000000180000000

 Start         Length     Name                   Class
 0001:00000000 00061996H .text$mn                CODE
 0001:000619a0 00000d18H .text$x                 CODE
 0002:00000000 000002b8H .idata$5                DATA
 0002:000002b8 00000008H .CRT$XCA                DATA
 0002:000002c0 00000008H .CRT$XCZ                DATA
 0002:000002c8 00000008H .CRT$XIA                DATA
 0002:000002d0 00000028H .CRT$XIC                DATA
 0002:000002f8 00000008H .CRT$XIZ                DATA
 0002:00000300 00000008H .CRT$XPA                DATA
 0002:00000308 00000010H .CRT$XPX                DATA
 0002:00000318 00000008H .CRT$XPXA               DATA
 0002:00000320 00000008H .CRT$XPZ                DATA
 0002:00000328 00000008H .CRT$XTA                DATA
 0002:00000330 00000008H .CRT$XTZ                DATA
 0002:00000340 00010350H .rdata                  DATA
 0002:00010690 0000006cH .rdata$debug            DATA
 0002:00010700 000005ecH .rdata$r                DATA
 0002:00010cf0 00000008H .rtc$IAA                DATA
 0002:00010cf8 00000008H .rtc$IZZ                DATA
 0002:00010d00 00000008H .rtc$TAA                DATA
 0002:00010d08 00000008H .rtc$TZZ                DATA
 0002:00010d10 00003204H .xdata                  DATA
 0002:00013f18 00000084H .xdata$x                DATA
 0002:00013fa0 00000071H .edata                  DATA
 0002:00014014 00000014H .idata$2                DATA
 0002:00014028 00000014H .idata$3                DATA
 0002:00014040 000002b8H .idata$4                DATA
 0002:000142f8 00000656H .idata$6                DATA
 0003:00000000 00001848H .data                   DATA
 0003:00001848 000001bfH .data$r                 DATA
 0003:00001a20 00002578H .bss                    DATA
 0004:00000000 00003804H .pdata                  DATA

  Address         Publics by Value              Rva+Base               Lib:Object

 0000:00000000       __guard_fids_count         0000000000000000     <absolute>
 0000:00000000       __guard_fids_table         0000000000000000     <absolute>
 0000:00000000       __guard_flags              0000000000000000     <absolute>
 0000:00000000       ___safe_se_handler_count   0000000000000000     <absolute>
 0000:00000000       ___safe_se_handler_table   0000000000000000     <absolute>
 0000:00000000       __ImageBase                0000000180000000     <linker-defined>
 0001:00000040       ?PushSize_@@YAPEAXPEAUmemory_arena@@_K@Z 0000000180001040 f   handmade.obj
 0001:00002440       GameUpdateAndRender        0000000180003440 f   handmade.obj
 0001:00003ff0       GameGetSoundSamples        0000000180004ff0 f   handmade.obj
 0001:00004030       ??D@YA?ATv2@@MT0@@Z        0000000180005030 f i handmade.obj
 0001:00004090       ??D@YA?ATv2@@T0@M@Z        0000000180005090 f i handmade.obj
 0001:000040f0       ??G@YA?ATv2@@T0@0@Z        00000001800050f0 f i handmade.obj
 0001:00004150       ??G@YA?ATv2@@T0@@Z         0000000180005150 f i handmade.obj
 0001:000041b0       ??H@YA?ATv2@@T0@0@Z        00000001800051b0 f i handmade.obj
 0001:00004210       ??X@YAAEATv2@@AEAT0@M@Z    0000000180005210 f i handmade.obj
 0001:00004270       ??Y@YAAEATv2@@AEAT0@T0@@Z  0000000180005270 f i handmade.obj
 0001:000042d0       ?AbsoluteValue@@YAMM@Z     00000001800052d0 f i handmade.obj
 0001:00004300       ?AreInSameChunk@@YAHPEAUworld@@PEAUworld_position@@1@Z 0000000180005300 f i handmade.obj
 0001:000043b0       ?ChangeEntityLocation@@YAXPEAUmemory_arena@@PEAUworld@@IPEAUworld_position@@2@Z 00000001800053b0 f i handmade.obj
 0001:000046e0       ?ChunkPositionFromTilePosition@@YA?AUworld_position@@PEAUworld@@HHH@Z 00000001800056e0 f i handmade.obj
 0001:00004820       ?EntityFromHighIndex@@YA?AUentity@@PEAUgame_state@@I@Z 0000000180005820 f i handmade.obj
 0001:000048c0       ?FindLeastSignificantSetBit@@YA?AUbit_scan_result@@I@Z 00000001800058c0 f i handmade.obj
 0001:00004900       ?ForceEntityIntoHigh@@YA?AUentity@@PEAUgame_state@@I@Z 0000000180005900 f i handmade.obj
 0001:00004990       ?GetCameraSpaceP@@YA?ATv2@@PEAUgame_state@@PEAUlow_entity@@@Z 0000000180005990 f i handmade.obj
 0001:00004a30       ?GetMaxCorner@@YA?ATv2@@Urectangle2@@@Z 0000000180005a30 f i handmade.obj
 0001:00004a70       ?GetMinCorner@@YA?ATv2@@Urectangle2@@@Z 0000000180005a70 f i handmade.obj
 0001:00004ab0       ?GetWorldChunk@@YAPEAUworld_chunk@@PEAUworld@@HHHPEAUmemory_arena@@@Z 0000000180005ab0 f i handmade.obj
 0001:00004c90       ?Inner@@YAMTv2@@0@Z        0000000180005c90 f i handmade.obj
 0001:00004cd0       ?IsCanonical@@YAHPEAUworld@@M@Z 0000000180005cd0 f i handmade.obj
 0001:00004d40       ?IsCanonical@@YAHPEAUworld@@Tv2@@@Z 0000000180005d40 f i handmade.obj
 0001:00004da0       ?IsInRectangle@@YAHUrectangle2@@Tv2@@@Z 0000000180005da0 f i handmade.obj
 0001:00004e20       ?LengthSq@@YAMTv2@@@Z      0000000180005e20 f i handmade.obj
 0001:00004e50       ?MakeEntityHighFrequency@@YAPEAUhigh_entity@@PEAUgame_state@@I@Z 0000000180005e50 f i handmade.obj
 0001:00004f10       ?MakeEntityHighFrequency@@YAPEAUhigh_entity@@PEAUgame_state@@PEAUlow_entity@@ITv2@@@Z 0000000180005f10 f i handmade.obj
 0001:00005050       ?MakeEntityLowFrequency@@YAXPEAUgame_state@@I@Z 0000000180006050 f i handmade.obj
 0001:00005130       ?MapIntoChunkSpace@@YA?AUworld_position@@PEAUworld@@U1@Tv2@@@Z 0000000180006130 f i handmade.obj
 0001:000051e0       ?OffsetAndCheckFrequencyByArea@@YAXPEAUgame_state@@Tv2@@Urectangle2@@@Z 00000001800061e0 f i handmade.obj
 0001:000052c0       ?RecanonicalizeCoord@@YAXPEAUworld@@PEAHPEAM@Z 00000001800062c0 f i handmade.obj
 0001:00005360       ?RectCenterDim@@YA?AUrectangle2@@Tv2@@0@Z 0000000180006360 f i handmade.obj
 0001:00005420       ?RectCenterHalfDim@@YA?AUrectangle2@@Tv2@@0@Z 0000000180006420 f i handmade.obj
 0001:000054c0       ?RotateLeft@@YAIIH@Z       00000001800064c0 f i handmade.obj
 0001:000054f0       ?RoundReal32ToInt32@@YAIM@Z 00000001800064f0 f i handmade.obj
 0001:00005520       ?RoundReal32ToUInt32@@YAIM@Z 0000000180006520 f i handmade.obj
 0001:00005550       ?Sin@@YAMM@Z               0000000180006550 f i handmade.obj
 0001:00005580       ?Square@@YAMM@Z            0000000180006580 f i handmade.obj
 0001:000055b0       ?SquareRoot@@YAMM@Z        00000001800065b0 f i handmade.obj
 0001:000055e0       ?Subtract@@YA?AUworld_difference@@PEAUworld@@PEAUworld_position@@1@Z 00000001800065e0 f i handmade.obj
 0001:00005720       ?UpdateFamiliar@@YAXPEAUgame_state@@Uentity@@M@Z 0000000180006720 f i handmade.obj
 0001:00005970       ?UpdateMonstar@@YAXPEAUgame_state@@Uentity@@M@Z 0000000180006970 f i handmade.obj
 0001:00005990       ?V2@@YA?ATv2@@MM@Z         0000000180006990 f i handmade.obj
 0001:000059e0       ?ValidateEntityPairs@@YAHPEAUgame_state@@@Z 00000001800069e0 f i handmade.obj
 0001:00005a80       ?fabs@@YAMM@Z              0000000180006a80 f i handmade.obj
 0001:00005aa0       GetController              0000000180006aa0 f i handmade.obj
 0001:00005af0       fabsf                      0000000180006af0 f i handmade.obj
 0001:00005b10       roundf                     0000000180006b10 f   LIBCMTD:roundf.obj
 0001:00005ba0       rand                       0000000180006ba0 f   LIBCMTD:rand.obj
 0001:00005be0       srand                      0000000180006be0 f   LIBCMTD:rand.obj
 0001:00005c00       __GSHandlerCheck           0000000180006c00 f   LIBCMTD:gshandler.obj
 0001:00005c40       __GSHandlerCheckCommon     0000000180006c40 f   LIBCMTD:gshandler.obj
 0001:00005d50       __security_check_cookie    0000000180006d50 f   LIBCMTD:amdsecgs.obj
 0001:00005d70       sinf                       0000000180006d70 f   LIBCMTD:sinf.obj
 0001:00006440       sqrtf                      0000000180007440 f   LIBCMTD:sqrtf.obj
 0001:000065c0       _fpmath                    00000001800075c0 f   LIBCMTD:fpinit.obj
 0001:000065e0       __setfflag                 00000001800075e0 f   LIBCMTD:fpinit.obj
 0001:00006610       _cfltcvt_init              0000000180007610 f   LIBCMTD:fpinit.obj
 0001:00006720       _CRT_INIT                  0000000180007720 f   LIBCMTD:dllcrt0.obj
 0001:00006940       _DllMainCRTStartup         0000000180007940 f   LIBCMTD:dllcrt0.obj
 0001:00006ae0       __DllXcptFilter            0000000180007ae0 f   LIBCMTD:dllcrt0.obj
 0001:00006b30       _d_int                     0000000180007b30 f   LIBCMTD:_test.obj
 0001:00006e60       _dtest                     0000000180007e60 f   LIBCMTD:_test.obj
 0001:00006fb0       _fd_int                    0000000180007fb0 f   LIBCMTD:_test.obj
 0001:000071e0       _fdtest                    00000001800081e0 f   LIBCMTD:_test.obj
 0001:000072d0       _fperrraise                00000001800082d0 f   LIBCMTD:_test.obj
 0001:000073d0       _ld_int                    00000001800083d0 f   LIBCMTD:_test.obj
 0001:00007400       _ldtest                    0000000180008400 f   LIBCMTD:_test.obj
 0001:00007420       __get_flsindex             0000000180008420 f   LIBCMTD:tidtable.obj
 0001:00007430       __threadhandle             0000000180008430 f   LIBCMTD:tidtable.obj
 0001:00007440       __threadid                 0000000180008440 f   LIBCMTD:tidtable.obj
 0001:00007450       _freefls                   0000000180008450 f   LIBCMTD:tidtable.obj
 0001:00007660       _freeptd                   0000000180008660 f   LIBCMTD:tidtable.obj
 0001:000076b0       _getptd                    00000001800086b0 f   LIBCMTD:tidtable.obj
 0001:000076e0       _getptd_noexit             00000001800086e0 f   LIBCMTD:tidtable.obj
 0001:000077b0       _initptd                   00000001800087b0 f   LIBCMTD:tidtable.obj
 0001:000078e0       _mtinit                    00000001800088e0 f   LIBCMTD:tidtable.obj
 0001:000079a0       _mtterm                    00000001800089a0 f   LIBCMTD:tidtable.obj
 0001:000079d0       __raise_securityfailure    00000001800089d0 f   LIBCMTD:gs_report.obj
 0001:00007a20       __report_gsfailure         0000000180008a20 f   LIBCMTD:gs_report.obj
 0001:00007b00       __report_rangecheckfailure 0000000180008b00 f   LIBCMTD:gs_report.obj
 0001:00007b20       __report_securityfailure   0000000180008b20 f   LIBCMTD:gs_report.obj
 0001:00007bc0       __report_securityfailureEx 0000000180008bc0 f   LIBCMTD:gs_report.obj
 0001:00007cd0       __fma3_lib_init            0000000180008cd0 f   LIBCMTD:fma3_available.obj
 0001:00007d50       _set_FMA3_enable           0000000180008d50 f   LIBCMTD:fma3_available.obj
 0001:00007d70       __remainder_piby2d2f_forC  0000000180008d70 f   LIBCMTD:remainder_piby2f_forC.obj
 0001:00007f00       _cos_special               0000000180008f00 f   LIBCMTD:sincos_special.obj
 0001:00007f30       _cosf_special              0000000180008f30 f   LIBCMTD:sincos_special.obj
 0001:00007f60       _sin_special               0000000180008f60 f   LIBCMTD:sincos_special.obj
 0001:00007f90       _sincos_special            0000000180008f90 f   LIBCMTD:sincos_special.obj
 0001:00008130       _sincosf_special           0000000180009130 f   LIBCMTD:sincos_special.obj
 0001:00008330       _sinf_special              0000000180009330 f   LIBCMTD:sincos_special.obj
 0001:00008360       _tan_special               0000000180009360 f   LIBCMTD:sincos_special.obj
 0001:00008390       _tanf_special              0000000180009390 f   LIBCMTD:sincos_special.obj
 0001:00008590       _handle_error              0000000180009590 f   LIBCMTD:libm_error.obj
 0001:00008710       _handle_errorf             0000000180009710 f   LIBCMTD:libm_error.obj
 0001:00008890       ??0_LocaleUpdate@@QEAA@PEAUlocaleinfo_struct@@@Z 0000000180009890 f i LIBCMTD:cvt.obj
 0001:000089d0       ??1_LocaleUpdate@@QEAA@XZ  00000001800099d0 f i LIBCMTD:cvt.obj
 0001:00008a10       ?GetLocaleT@_LocaleUpdate@@QEAAPEAUlocaleinfo_struct@@XZ 0000000180009a10 f i LIBCMTD:cvt.obj
 0001:00008a20       ?strrchr@@YAPEADPEADH@Z    0000000180009a20 f i LIBCMTD:cvt.obj
 0001:00008a40       _cfltcvt                   0000000180009a40 f   LIBCMTD:cvt.obj
 0001:00008a90       _cfltcvt_l                 0000000180009a90 f   LIBCMTD:cvt.obj
 0001:00008bb0       _cftoa                     0000000180009bb0 f   LIBCMTD:cvt.obj
 0001:00008c00       _cftoa_l                   0000000180009c00 f   LIBCMTD:cvt.obj
 0001:00009700       _cftoe                     000000018000a700 f   LIBCMTD:cvt.obj
 0001:00009d20       _cftoe_l                   000000018000ad20 f   LIBCMTD:cvt.obj
 0001:0000a060       _cftof                     000000018000b060 f   LIBCMTD:cvt.obj
 0001:0000a460       _cftof_l                   000000018000b460 f   LIBCMTD:cvt.obj
 0001:0000a740       _cftog                     000000018000b740 f   LIBCMTD:cvt.obj
 0001:0000a790       _cftog_l                   000000018000b790 f   LIBCMTD:cvt.obj
 0001:0000ab50       _cropzeros                 000000018000bb50 f   LIBCMTD:cvt.obj
 0001:0000ab70       _cropzeros_l               000000018000bb70 f   LIBCMTD:cvt.obj
 0001:0000acf0       _fassign                   000000018000bcf0 f   LIBCMTD:cvt.obj
 0001:0000ad20       _fassign_l                 000000018000bd20 f   LIBCMTD:cvt.obj
 0001:0000ad90       _forcdecpt                 000000018000bd90 f   LIBCMTD:cvt.obj
 0001:0000adb0       _forcdecpt_l               000000018000bdb0 f   LIBCMTD:cvt.obj
 0001:0000aeb0       _invoke_watson_if_error    000000018000beb0 f i LIBCMTD:cvt.obj
 0001:0000af00       _positive                  000000018000bf00 f   LIBCMTD:cvt.obj
 0001:0000af90       _initp_misc_cfltcvt_tab    000000018000bf90 f   LIBCMTD:cmiscdat.obj
 0001:0000afe0       _XcptFilter                000000018000bfe0 f   LIBCMTD:winxfltr.obj
 0001:0000b280       __CppXcptFilter            000000018000c280 f   LIBCMTD:winxfltr.obj
 0001:0000b340       __copy_path_to_wide_string 000000018000c340 f   LIBCMTD:crt0dat.obj
 0001:0000b5c0       __copy_to_char             000000018000c5c0 f   LIBCMTD:crt0dat.obj
 0001:0000b860       __crtCorExitProcess        000000018000c860 f   LIBCMTD:crt0dat.obj
 0001:0000b8b0       __crtExitProcess           000000018000c8b0 f   LIBCMTD:crt0dat.obj
 0001:0000b8d0       __freeCrtMemory            000000018000c8d0 f   LIBCMTD:crt0dat.obj
 0001:0000bb00       _amsg_exit                 000000018000cb00 f   LIBCMTD:crt0dat.obj
 0001:0000bb30       _c_exit                    000000018000cb30 f   LIBCMTD:crt0dat.obj
 0001:0000bb50       _cexit                     000000018000cb50 f   LIBCMTD:crt0dat.obj
 0001:0000bb70       _cinit                     000000018000cb70 f   LIBCMTD:crt0dat.obj
 0001:0000bc20       _exit                      000000018000cc20 f   LIBCMTD:crt0dat.obj
 0001:0000bc40       _exit_app                  000000018000cc40 f   LIBCMTD:crt0dat.obj
 0001:0000bc60       _get_pgmptr                000000018000cc60 f   LIBCMTD:crt0dat.obj
 0001:0000bdd0       _get_wpgmptr               000000018000cdd0 f   LIBCMTD:crt0dat.obj
 0001:0000bf40       _init_pointers             000000018000cf40 f   LIBCMTD:crt0dat.obj
 0001:0000bff0       _initterm_e                000000018000cff0 f   LIBCMTD:crt0dat.obj
 0001:0000c050       _lockexit                  000000018000d050 f   LIBCMTD:crt0dat.obj
 0001:0000c070       _unlockexit                000000018000d070 f   LIBCMTD:crt0dat.obj
 0001:0000c2a0       exit                       000000018000d2a0 f   LIBCMTD:crt0dat.obj
 0001:0000c2c0       _get_heap_handle           000000018000d2c0 f   LIBCMTD:heapinit.obj
 0001:0000c320       _heap_init                 000000018000d320 f   LIBCMTD:heapinit.obj
 0001:0000c350       _heap_term                 000000018000d350 f   LIBCMTD:heapinit.obj
 0001:0000c360       _ioinit                    000000018000d360 f   LIBCMTD:ioinit.obj
 0001:0000c940       _ioterm                    000000018000d940 f   LIBCMTD:ioinit.obj
 0001:0000ca20       _set_pgmptr                000000018000da20 f i LIBCMTD:stdargv.obj
 0001:0000ca40       _setargv                   000000018000da40 f   LIBCMTD:stdargv.obj
 0001:0000d0a0       _setenvp                   000000018000e0a0 f   LIBCMTD:stdenvp.obj
 0001:0000d7e0       _CrtCheckMemory            000000018000e7e0 f   LIBCMTD:dbgheap.obj
 0001:0000dd80       _CrtDoForAllClientObjects  000000018000ed80 f   LIBCMTD:dbgheap.obj
 0001:0000deb0       _CrtDumpMemoryLeaks        000000018000eeb0 f   LIBCMTD:dbgheap.obj
 0001:0000df70       _CrtGetAllocHook           000000018000ef70 f   LIBCMTD:dbgheap.obj
 0001:0000df80       _CrtGetCheckCount          000000018000ef80 f   LIBCMTD:dbgheap.obj
 0001:0000df90       _CrtGetDumpClient          000000018000ef90 f   LIBCMTD:dbgheap.obj
 0001:0000dfa0       _CrtIsMemoryBlock          000000018000efa0 f   LIBCMTD:dbgheap.obj
 0001:0000e120       _CrtIsValidHeapPointer     000000018000f120 f   LIBCMTD:dbgheap.obj
 0001:0000e180       _CrtIsValidPointer         000000018000f180 f   LIBCMTD:dbgheap.obj
 0001:0000e1c0       _CrtMemCheckpoint          000000018000f1c0 f   LIBCMTD:dbgheap.obj
 0001:0000e450       _CrtMemDifference          000000018000f450 f   LIBCMTD:dbgheap.obj
 0001:0000e780       _CrtMemDumpAllObjectsSince 000000018000f780 f   LIBCMTD:dbgheap.obj
 0001:0000e7d0       _CrtMemDumpStatistics      000000018000f7d0 f   LIBCMTD:dbgheap.obj
 0001:0000e960       _CrtReportBlockType        000000018000f960 f   LIBCMTD:dbgheap.obj
 0001:0000e9a0       _CrtSetAllocHook           000000018000f9a0 f   LIBCMTD:dbgheap.obj
 0001:0000e9d0       _CrtSetBreakAlloc          000000018000f9d0 f   LIBCMTD:dbgheap.obj
 0001:0000ea00       _CrtSetCheckCount          000000018000fa00 f   LIBCMTD:dbgheap.obj
 0001:0000ea20       _CrtSetDbgBlockType        000000018000fa20 f   LIBCMTD:dbgheap.obj
 0001:0000eaf0       _CrtSetDbgFlag             000000018000faf0 f   LIBCMTD:dbgheap.obj
 0001:0000ec30       _CrtSetDebugFillThreshold  000000018000fc30 f   LIBCMTD:dbgheap.obj
 0001:0000ec60       _CrtSetDumpClient          000000018000fc60 f   LIBCMTD:dbgheap.obj
 0001:0000ec90       _aligned_free              000000018000fc90 f   LIBCMTD:dbgheap.obj
 0001:0000ecb0       _aligned_free_dbg          000000018000fcb0 f   LIBCMTD:dbgheap.obj
 0001:0000eda0       _aligned_malloc            000000018000fda0 f   LIBCMTD:dbgheap.obj
 0001:0000edd0       _aligned_malloc_dbg        000000018000fdd0 f   LIBCMTD:dbgheap.obj
 0001:0000ee10       _aligned_msize             000000018000fe10 f   LIBCMTD:dbgheap.obj
 0001:0000ee40       _aligned_msize_dbg         000000018000fe40 f   LIBCMTD:dbgheap.obj
 0001:0000f000       _aligned_offset_malloc     0000000180010000 f   LIBCMTD:dbgheap.obj
 0001:0000f040       _aligned_offset_malloc_dbg 0000000180010040 f   LIBCMTD:dbgheap.obj
 0001:0000f320       _aligned_offset_realloc    0000000180010320 f   LIBCMTD:dbgheap.obj
 0001:0000f370       _aligned_offset_realloc_dbg 0000000180010370 f   LIBCMTD:dbgheap.obj
 0001:0000f810       _aligned_offset_recalloc   0000000180010810 f   LIBCMTD:dbgheap.obj
 0001:0000f870       _aligned_offset_recalloc_dbg 0000000180010870 f   LIBCMTD:dbgheap.obj
 0001:0000f990       _aligned_realloc           0000000180010990 f   LIBCMTD:dbgheap.obj
 0001:0000f9d0       _aligned_realloc_dbg       00000001800109d0 f   LIBCMTD:dbgheap.obj
 0001:0000fa20       _aligned_recalloc          0000000180010a20 f   LIBCMTD:dbgheap.obj
 0001:0000fa70       _aligned_recalloc_dbg      0000000180010a70 f   LIBCMTD:dbgheap.obj
 0001:0000fad0       _calloc_dbg                0000000180010ad0 f   LIBCMTD:dbgheap.obj
 0001:0000fb50       _calloc_dbg_impl           0000000180010b50 f   LIBCMTD:dbgheap.obj
 0001:0000fc00       _expand                    0000000180010c00 f   LIBCMTD:dbgheap.obj
 0001:0000fc40       _expand_dbg                0000000180010c40 f   LIBCMTD:dbgheap.obj
 0001:0000fd70       _free_dbg                  0000000180010d70 f   LIBCMTD:dbgheap.obj
 0001:0000fdb0       _free_dbg_nolock           0000000180010db0 f   LIBCMTD:dbgheap.obj
 0001:000104a0       _free_nolock               00000001800114a0 f   LIBCMTD:dbgheap.obj
 0001:000104c0       _heap_alloc                00000001800114c0 f   LIBCMTD:dbgheap.obj
 0001:000104f0       _heap_alloc_dbg            00000001800114f0 f   LIBCMTD:dbgheap.obj
 0001:00010a10       _invoke_watson_if_oneof    0000000180011a10 f i LIBCMTD:dbgheap.obj
 0001:00010a80       _malloc_dbg                0000000180011a80 f   LIBCMTD:dbgheap.obj
 0001:00010ad0       _msize                     0000000180011ad0 f   LIBCMTD:dbgheap.obj
 0001:00010af0       _msize_dbg                 0000000180011af0 f   LIBCMTD:dbgheap.obj
 0001:00010d40       _nh_malloc                 0000000180011d40 f   LIBCMTD:dbgheap.obj
 0001:00010d80       _nh_malloc_dbg             0000000180011d80 f   LIBCMTD:dbgheap.obj
 0001:00011110       _realloc_dbg               0000000180012110 f   LIBCMTD:dbgheap.obj
 0001:00011180       _recalloc                  0000000180012180 f   LIBCMTD:dbgheap.obj
 0001:000111d0       _recalloc_dbg              00000001800121d0 f   LIBCMTD:dbgheap.obj
 0001:00011bd0       __security_init_cookie     0000000180012bd0 f   LIBCMTD:gs_support.obj
 0001:00011cf0       DllMain                    0000000180012cf0 f   LIBCMTD:dllmain.obj
 0001:00011d10       __crtGetEnvironmentStringsA 0000000180012d10 f   LIBCMTD:a_env.obj
 0001:00011ef0       __crtCaptureCurrentContext 0000000180012ef0 f   LIBCMTD:winapisupp.obj
 0001:00011f90       __crtCapturePreviousContext 0000000180012f90 f   LIBCMTD:winapisupp.obj
 0001:00012050       __crtCloseThreadpoolTimer  0000000180013050 f   LIBCMTD:winapisupp.obj
 0001:000120a0       __crtCloseThreadpoolWait   00000001800130a0 f   LIBCMTD:winapisupp.obj
 0001:000120f0       __crtCreateEventExW        00000001800130f0 f   LIBCMTD:winapisupp.obj
 0001:00012180       __crtCreateSemaphoreExW    0000000180013180 f   LIBCMTD:winapisupp.obj
 0001:00012210       __crtCreateSymbolicLinkW   0000000180013210 f   LIBCMTD:winapisupp.obj
 0001:00012280       __crtCreateThreadpoolTimer 0000000180013280 f   LIBCMTD:winapisupp.obj
 0001:000122e0       __crtCreateThreadpoolWait  00000001800132e0 f   LIBCMTD:winapisupp.obj
 0001:00012340       __crtFlsAlloc              0000000180013340 f   LIBCMTD:winapisupp.obj
 0001:00012390       __crtFlsFree               0000000180013390 f   LIBCMTD:winapisupp.obj
 0001:000123e0       __crtFlsGetValue           00000001800133e0 f   LIBCMTD:winapisupp.obj
 0001:00012430       __crtFlsSetValue           0000000180013430 f   LIBCMTD:winapisupp.obj
 0001:00012490       __crtFlushProcessWriteBuffers 0000000180013490 f   LIBCMTD:winapisupp.obj
 0001:000124d0       __crtFreeLibraryWhenCallbackReturns 00000001800134d0 f   LIBCMTD:winapisupp.obj
 0001:00012520       __crtGetCurrentProcessorNumber 0000000180013520 f   LIBCMTD:winapisupp.obj
 0001:00012560       __crtGetFileInformationByHandleEx 0000000180013560 f   LIBCMTD:winapisupp.obj
 0001:000125d0       __crtGetLogicalProcessorInformation 00000001800135d0 f   LIBCMTD:winapisupp.obj
 0001:00012630       __crtGetShowWindowMode     0000000180013630 f   LIBCMTD:winapisupp.obj
 0001:00012670       __crtGetTickCount64        0000000180013670 f   LIBCMTD:winapisupp.obj
 0001:000126c0       __crtInitializeCriticalSectionEx 00000001800136c0 f   LIBCMTD:winapisupp.obj
 0001:00012730       __crtIsPackagedApp         0000000180013730 f   LIBCMTD:winapisupp.obj
 0001:00012770       __crtLoadWinApiPointers    0000000180013770 f   LIBCMTD:winapisupp.obj
 0001:00012d60       __crtSetFileInformationByHandle 0000000180013d60 f   LIBCMTD:winapisupp.obj
 0001:00012dd0       __crtSetThreadStackGuarantee 0000000180013dd0 f   LIBCMTD:winapisupp.obj
 0001:00012e20       __crtSetThreadpoolTimer    0000000180013e20 f   LIBCMTD:winapisupp.obj
 0001:00012e80       __crtSetThreadpoolWait     0000000180013e80 f   LIBCMTD:winapisupp.obj
 0001:00012ee0       __crtSetUnhandledExceptionFilter 0000000180013ee0 f   LIBCMTD:winapisupp.obj
 0001:00012f00       __crtSleep                 0000000180013f00 f   LIBCMTD:winapisupp.obj
 0001:00012f20       __crtTerminateProcess      0000000180013f20 f   LIBCMTD:winapisupp.obj
 0001:00012f40       __crtUnhandledException    0000000180013f40 f   LIBCMTD:winapisupp.obj
 0001:00012f70       __crtWaitForThreadpoolTimerCallbacks 0000000180013f70 f   LIBCMTD:winapisupp.obj
 0001:00012fc0       _RTC_Initialize            0000000180013fc0 f   LIBCMTD:initsect.obj
 0001:00013000       _RTC_Terminate             0000000180014000 f   LIBCMTD:initsect.obj
 0001:00013040       __C_specific_handler       0000000180014040 f   LIBCMTD:chandler.obj
 0001:00013460       __doserrno                 0000000180014460 f   LIBCMTD:dosmap.obj
 0001:00013490       _dosmaperr                 0000000180014490 f   LIBCMTD:dosmap.obj
 0001:000134c0       _errno                     00000001800144c0 f   LIBCMTD:dosmap.obj
 0001:000134f0       _get_doserrno              00000001800144f0 f   LIBCMTD:dosmap.obj
 0001:000135b0       _get_errno                 00000001800145b0 f   LIBCMTD:dosmap.obj
 0001:00013670       _get_errno_from_oserr      0000000180014670 f   LIBCMTD:dosmap.obj
 0001:00013700       _set_doserrno              0000000180014700 f   LIBCMTD:dosmap.obj
 0001:00013740       _set_errno                 0000000180014740 f   LIBCMTD:dosmap.obj
 0001:00013780       fesetexceptflag            0000000180014780 f   LIBCMTD:fesetexceptflag.obj
 0001:00013800       _lock                      0000000180014800 f   LIBCMTD:mlock.obj
 0001:00013860       _lockerr_exit              0000000180014860 f   LIBCMTD:mlock.obj
 0001:00013890       _mtdeletelocks             0000000180014890 f   LIBCMTD:mlock.obj
 0001:000139b0       _mtinitlocknum             00000001800149b0 f   LIBCMTD:mlock.obj
 0001:00013ab0       _mtinitlocks               0000000180014ab0 f   LIBCMTD:mlock.obj
 0001:00013b50       _unlock                    0000000180014b50 f   LIBCMTD:mlock.obj
 0001:00013b80       __addlocaleref             0000000180014b80 f   LIBCMTD:localref.obj
 0001:00013cd0       __freetlocinfo             0000000180014cd0 f   LIBCMTD:localref.obj
 0001:00014080       __removelocaleref          0000000180015080 f   LIBCMTD:localref.obj
 0001:000141e0       __updatetlocinfo           00000001800151e0 f   LIBCMTD:localref.obj
 0001:00014280       _updatetlocinfoEx_nolock   0000000180015280 f   LIBCMTD:localref.obj
 0001:00014320       __initmbctable             0000000180015320 f   LIBCMTD:mbctype.obj
 0001:000149b0       __updatetmbcinfo           00000001800159b0 f   LIBCMTD:mbctype.obj
 0001:00014ac0       _getmbcp                   0000000180015ac0 f   LIBCMTD:mbctype.obj
 0001:00014b40       _setmbcp                   0000000180015b40 f   LIBCMTD:mbctype.obj
 0001:00014e30       _setmbcp_nolock            0000000180015e30 f   LIBCMTD:mbctype.obj
 0001:00015280       _CrtDefaultAllocHook       0000000180016280 f   LIBCMTD:dbghook.obj
 0001:000152a0       __crt_debugger_hook        00000001800162a0 f   LIBCMTD:dbghook.obj
 0001:000152b0       _errcode                   00000001800162b0 f   LIBCMTD:fpexcept.obj
 0001:00015330       _except1                   0000000180016330 f   LIBCMTD:fpexcept.obj
 0001:00015470       _except2                   0000000180016470 f   LIBCMTD:fpexcept.obj
 0001:00015630       _handle_exc                0000000180016630 f   LIBCMTD:fpexcept.obj
 0001:00015a90       _handle_qnan1              0000000180016a90 f   LIBCMTD:fpexcept.obj
 0001:00015b10       _handle_qnan2              0000000180016b10 f   LIBCMTD:fpexcept.obj
 0001:00015ba0       _raise_exc                 0000000180016ba0 f   LIBCMTD:fpexcept.obj
 0001:00015c00       _raise_exc_ex              0000000180016c00 f   LIBCMTD:fpexcept.obj
 0001:00016280       _raise_excf                0000000180017280 f   LIBCMTD:fpexcept.obj
 0001:000162e0       _set_errno_from_matherr    00000001800172e0 f   LIBCMTD:fpexcept.obj
 0001:00016330       _umatherr                  0000000180017330 f   LIBCMTD:fpexcept.obj
 0001:00016400       _clrfp                     0000000180017400 f   LIBCMTD:fpctrl.obj
 0001:00016430       _ctrlfp                    0000000180017430 f   LIBCMTD:fpctrl.obj
 0001:000164e0       _set_statfp                00000001800174e0 f   LIBCMTD:fpctrl.obj
 0001:00016520       _statfp                    0000000180017520 f   LIBCMTD:fpctrl.obj
 0001:00016550       _matherr                   0000000180017550 f   LIBCMTD:matherr.obj
 0001:00016560       ?_invalid_parameter@@YAXPEBG00I_K@Z 0000000180017560 f   LIBCMTD:invarg.obj
 0001:000165a0       ?_invoke_watson@@YAXPEBG00I_K@Z 00000001800175a0 f   LIBCMTD:invarg.obj
 0001:000165e0       _call_reportfault          00000001800175e0 f   LIBCMTD:invarg.obj
 0001:00016710       _get_invalid_parameter_handler 0000000180017710 f   LIBCMTD:invarg.obj
 0001:00016750       _initp_misc_invarg         0000000180017750 f   LIBCMTD:invarg.obj
 0001:00016770       _invalid_parameter         0000000180017770 f   LIBCMTD:invarg.obj
 0001:00016800       _invoke_watson             0000000180017800 f   LIBCMTD:invarg.obj
 0001:00016860       _set_invalid_parameter_handler 0000000180017860 f   LIBCMTD:invarg.obj
 0001:000168c0       __isascii                  00000001800178c0 f i LIBCMTD:_ctype.obj
 0001:000168f0       __iscsym                   00000001800178f0 f i LIBCMTD:_ctype.obj
 0001:00016930       __iscsymf                  0000000180017930 f i LIBCMTD:_ctype.obj
 0001:00016970       __toascii                  0000000180017970 f i LIBCMTD:_ctype.obj
 0001:00016980       _isalnum_l                 0000000180017980 f i LIBCMTD:_ctype.obj
 0001:00016a20       _isalpha_l                 0000000180017a20 f i LIBCMTD:_ctype.obj
 0001:00016ac0       _isblank_l                 0000000180017ac0 f i LIBCMTD:_ctype.obj
 0001:00016b80       _iscntrl_l                 0000000180017b80 f i LIBCMTD:_ctype.obj
 0001:00016c20       _iscsym_l                  0000000180017c20 f i LIBCMTD:_ctype.obj
 0001:00016c70       _iscsymf_l                 0000000180017c70 f i LIBCMTD:_ctype.obj
 0001:00016cc0       _isdigit_l                 0000000180017cc0 f i LIBCMTD:_ctype.obj
 0001:00016d60       _isgraph_l                 0000000180017d60 f i LIBCMTD:_ctype.obj
 0001:00016e00       _islower_l                 0000000180017e00 f i LIBCMTD:_ctype.obj
 0001:00016ea0       _isprint_l                 0000000180017ea0 f i LIBCMTD:_ctype.obj
 0001:00016f40       _ispunct_l                 0000000180017f40 f i LIBCMTD:_ctype.obj
 0001:00016fe0       _isspace_l                 0000000180017fe0 f i LIBCMTD:_ctype.obj
 0001:00017080       _isupper_l                 0000000180018080 f i LIBCMTD:_ctype.obj
 0001:00017120       _isxdigit_l                0000000180018120 f i LIBCMTD:_ctype.obj
 0001:000171c0       isalnum                    00000001800181c0 f i LIBCMTD:_ctype.obj
 0001:00017200       isalpha                    0000000180018200 f i LIBCMTD:_ctype.obj
 0001:00017240       isblank                    0000000180018240 f i LIBCMTD:_ctype.obj
 0001:00017290       iscntrl                    0000000180018290 f i LIBCMTD:_ctype.obj
 0001:000172d0       isdigit                    00000001800182d0 f i LIBCMTD:_ctype.obj
 0001:00017310       isgraph                    0000000180018310 f i LIBCMTD:_ctype.obj
 0001:00017350       islower                    0000000180018350 f i LIBCMTD:_ctype.obj
 0001:00017390       isprint                    0000000180018390 f i LIBCMTD:_ctype.obj
 0001:000173d0       ispunct                    00000001800183d0 f i LIBCMTD:_ctype.obj
 0001:00017410       isspace                    0000000180018410 f i LIBCMTD:_ctype.obj
 0001:00017450       isupper                    0000000180018450 f i LIBCMTD:_ctype.obj
 0001:00017490       isxdigit                   0000000180018490 f i LIBCMTD:_ctype.obj
 0001:000174d0       _tolower                   00000001800184d0 f   LIBCMTD:tolower.obj
 0001:000174e0       _tolower_l                 00000001800184e0 f   LIBCMTD:tolower.obj
 0001:00017840       tolower                    0000000180018840 f   LIBCMTD:tolower.obj
 0001:000178a0       memset                     00000001800188a0 f   LIBCMTD:memset.obj
 0001:00017ad0       strcpy_s                   0000000180018ad0 f   LIBCMTD:strcpy_s.obj
 0001:00017f80       strlen                     0000000180018f80 f   LIBCMTD:strlen.obj
 0001:00018040       memmove                    0000000180019040 f   LIBCMTD:memcpy.obj
 0001:00018040       memcpy                     0000000180019040 f   LIBCMTD:memcpy.obj
 0001:000185b0       strrchr                    00000001800195b0 f   LIBCMTD:strrchr.obj
 0001:000189d0       _fptostr                   00000001800199d0 f   LIBCMTD:_fptostr.obj
 0001:00018e30       __crt_atoflt_l             0000000180019e30 f   LIBCMTD:atodbl.obj
 0001:00018fd0       _atodbl                    0000000180019fd0 f   LIBCMTD:atodbl.obj
 0001:00019000       _atodbl_l                  000000018001a000 f   LIBCMTD:atodbl.obj
 0001:00019180       _atoflt                    000000018001a180 f   LIBCMTD:atodbl.obj
 0001:000191b0       _atoflt_l                  000000018001a1b0 f   LIBCMTD:atodbl.obj
 0001:000191e0       _atoldbl                   000000018001a1e0 f   LIBCMTD:atodbl.obj
 0001:00019210       _atoldbl_l                 000000018001a210 f   LIBCMTD:atodbl.obj
 0001:00019390       __dtold                    000000018001a390 f   LIBCMTD:cfout.obj
 0001:00019540       _fltout2                   000000018001a540 f   LIBCMTD:cfout.obj
 0001:00019650       ?_CrtDbgReportW@@YAHHPEBGH00ZZ 000000018001a650 f   LIBCMTD:dbgrptw.obj
 0001:000196d0       _CrtDbgReportW             000000018001a6d0 f   LIBCMTD:dbgrptw.obj
 0001:00019750       _CrtDbgReportWV            000000018001a750 f i LIBCMTD:dbgrptw.obj
 0001:000197b0       _CrtSetReportHookW2        000000018001a7b0 f   LIBCMTD:dbgrptw.obj
 0001:00019bc0       __crtMessageWindowW        000000018001abc0 f   LIBCMTD:dbgrptw.obj
 0001:0001a240       _get_output_format         000000018001b240 f   LIBCMTD:outputformat.obj
 0001:0001a250       _set_output_format         000000018001b250 f   LIBCMTD:outputformat.obj
 0001:0001a320       _fptrap                    000000018001b320 f   LIBCMTD:crt0fp.obj
 0001:0001a340       _FF_MSGBANNER              000000018001b340 f   LIBCMTD:crt0msg.obj
 0001:0001a390       _GET_RTERRMSG              000000018001b390 f   LIBCMTD:crt0msg.obj
 0001:0001a3f0       _NMSG_WRITE                000000018001b3f0 f   LIBCMTD:crt0msg.obj
 0001:0001a820       _FindPESection             000000018001b820 f   LIBCMTD:pesect.obj
 0001:0001a8d0       _IsNonwritableInCurrentImage 000000018001b8d0 f   LIBCMTD:pesect.obj
 0001:0001a960       _ValidateImageBase         000000018001b960 f   LIBCMTD:pesect.obj
 0001:0001a9e0       __onexitinit               000000018001b9e0 f   LIBCMTD:onexit.obj
 0001:0001aa50       _onexit                    000000018001ba50 f   LIBCMTD:onexit.obj
 0001:0001ac60       atexit                     000000018001bc60 f   LIBCMTD:onexit.obj
 0001:0001aca0       ?_inconsistency@@YAXXZ     000000018001bca0 f   LIBCMTD:hooks.obj
 0001:0001acd0       ?terminate@@YAXXZ          000000018001bcd0 f   LIBCMTD:hooks.obj
 0001:0001ad00       ?unexpected@@YAXXZ         000000018001bd00 f   LIBCMTD:hooks.obj
 0001:0001ad30       _initp_eh_hooks            000000018001bd30 f   LIBCMTD:hooks.obj
 0001:0001ad60       ?_query_new_handler@@YAP6AH_K@ZXZ 000000018001bd60 f   LIBCMTD:handler.obj
 0001:0001ad80       ?_set_new_handler@@YAP6AH_K@ZH@Z 000000018001bd80 f   LIBCMTD:handler.obj
 0001:0001ade0       ?_set_new_handler@@YAP6AH_K@ZP6AH0@Z@Z 000000018001bde0 f   LIBCMTD:handler.obj
 0001:0001ae30       _callnewh                  000000018001be30 f   LIBCMTD:handler.obj
 0001:0001ae70       _initp_heap_handler        000000018001be70 f   LIBCMTD:handler.obj
 0001:0001ae90       __getlocaleinfo            000000018001be90 f   LIBCMTD:inithelp.obj
 0001:0001b210       _initp_misc_purevirt       000000018001c210 f   LIBCMTD:inithelp.obj
 0001:0001b230       __fpecode                  000000018001c230 f   LIBCMTD:winsig.obj
 0001:0001b250       __get_sigabrt              000000018001c250 f   LIBCMTD:winsig.obj
 0001:0001b270       __pxcptinfoptrs            000000018001c270 f   LIBCMTD:winsig.obj
 0001:0001b290       _initp_misc_winsig         000000018001c290 f   LIBCMTD:winsig.obj
 0001:0001b3a0       raise                      000000018001c3a0 f   LIBCMTD:winsig.obj
 0001:0001b810       signal                     000000018001c810 f   LIBCMTD:winsig.obj
 0001:0001bc50       _initp_misc_rand_s         000000018001cc50 f   LIBCMTD:rand_s.obj
 0001:0001bc70       rand_s                     000000018001cc70 f   LIBCMTD:rand_s.obj
 0001:0001bfa0       _ftbuf                     000000018001cfa0 f   LIBCMTD:_sftbuf.obj
 0001:0001c060       _stbuf                     000000018001d060 f   LIBCMTD:_sftbuf.obj
 0001:0001c250       _local_unwind              000000018001d250 f   LIBCMTD:jmpuwind.obj
 0001:0001c280       _NLG_Notify                000000018001d280 f   LIBCMTD:jmpuwind.obj
 0001:0001c2a0       __NLG_Dispatch2            000000018001d2a0 f   LIBCMTD:jmpuwind.obj
 0001:0001c2b0       __NLG_Return2              000000018001d2b0 f   LIBCMTD:jmpuwind.obj
 0001:0001c2c0       __initstdio                000000018001d2c0 f   LIBCMTD:_file.obj
 0001:0001c3c0       __endstdio                 000000018001d3c0 f   LIBCMTD:_file.obj
 0001:0001c400       __iob_func                 000000018001d400 f   LIBCMTD:_file.obj
 0001:0001c410       _lock_file                 000000018001d410 f   LIBCMTD:_file.obj
 0001:0001c4a0       _lock_file2                000000018001d4a0 f   LIBCMTD:_file.obj
 0001:0001c4f0       _unlock_file               000000018001d4f0 f   LIBCMTD:_file.obj
 0001:0001c580       _unlock_file2              000000018001d580 f   LIBCMTD:_file.obj
 0001:0001c6a0       _ismbbalnum                000000018001d6a0 f   LIBCMTD:ismbbyte.obj
 0001:0001c6d0       _ismbbalnum_l              000000018001d6d0 f   LIBCMTD:ismbbyte.obj
 0001:0001c700       _ismbbalpha                000000018001d700 f   LIBCMTD:ismbbyte.obj
 0001:0001c730       _ismbbalpha_l              000000018001d730 f   LIBCMTD:ismbbyte.obj
 0001:0001c760       _ismbbblank                000000018001d760 f   LIBCMTD:ismbbyte.obj
 0001:0001c7a0       _ismbbblank_l              000000018001d7a0 f   LIBCMTD:ismbbyte.obj
 0001:0001c7f0       _ismbbgraph                000000018001d7f0 f   LIBCMTD:ismbbyte.obj
 0001:0001c820       _ismbbgraph_l              000000018001d820 f   LIBCMTD:ismbbyte.obj
 0001:0001c850       _ismbbkalnum               000000018001d850 f   LIBCMTD:ismbbyte.obj
 0001:0001c880       _ismbbkalnum_l             000000018001d880 f   LIBCMTD:ismbbyte.obj
 0001:0001c8b0       _ismbbkana                 000000018001d8b0 f   LIBCMTD:ismbbyte.obj
 0001:0001c8d0       _ismbbkana_l               000000018001d8d0 f   LIBCMTD:ismbbyte.obj
 0001:0001c960       _ismbbkprint               000000018001d960 f   LIBCMTD:ismbbyte.obj
 0001:0001c990       _ismbbkprint_l             000000018001d990 f   LIBCMTD:ismbbyte.obj
 0001:0001c9c0       _ismbbkpunct               000000018001d9c0 f   LIBCMTD:ismbbyte.obj
 0001:0001c9f0       _ismbbkpunct_l             000000018001d9f0 f   LIBCMTD:ismbbyte.obj
 0001:0001ca20       _ismbblead                 000000018001da20 f   LIBCMTD:ismbbyte.obj
 0001:0001ca50       _ismbblead_l               000000018001da50 f   LIBCMTD:ismbbyte.obj
 0001:0001ca80       _ismbbprint                000000018001da80 f   LIBCMTD:ismbbyte.obj
 0001:0001cab0       _ismbbprint_l              000000018001dab0 f   LIBCMTD:ismbbyte.obj
 0001:0001cae0       _ismbbpunct                000000018001dae0 f   LIBCMTD:ismbbyte.obj
 0001:0001cb10       _ismbbpunct_l              000000018001db10 f   LIBCMTD:ismbbyte.obj
 0001:0001cb40       _ismbbtrail                000000018001db40 f   LIBCMTD:ismbbyte.obj
 0001:0001cb70       _ismbbtrail_l              000000018001db70 f   LIBCMTD:ismbbyte.obj
 0001:0001cba0       _chvalidator               000000018001dba0 f   LIBCMTD:isctype.obj
 0001:0001cc10       _chvalidator_l             000000018001dc10 f   LIBCMTD:isctype.obj
 0001:0001cd20       _isctype                   000000018001dd20 f   LIBCMTD:isctype.obj
 0001:0001cd70       _isctype_l                 000000018001dd70 f   LIBCMTD:isctype.obj
 0001:0001cf50       _free_base                 000000018001df50 f   LIBCMTD:free.obj
 0001:0001cfb0       _realloc_base              000000018001dfb0 f   LIBCMTD:realloc.obj
 0001:0001d0d0       _expand_base               000000018001e0d0 f   LIBCMTD:expand.obj
 0001:0001d2b0       _CrtDbgReport              000000018001e2b0 f   LIBCMTD:dbgrpt.obj
 0001:0001d330       _CrtDbgReportV             000000018001e330 f i LIBCMTD:dbgrpt.obj
 0001:0001d390       _CrtSetReportHook2         000000018001e390 f   LIBCMTD:dbgrpt.obj
 0001:0001d7a0       __crtMessageWindowA        000000018001e7a0 f   LIBCMTD:dbgrpt.obj
 0001:0001de20       _heapchk                   000000018001ee20 f   LIBCMTD:heapchk.obj
 0001:0001de60       _heapset                   000000018001ee60 f   LIBCMTD:heapchk.obj
 0001:0001de80       _scprintf                  000000018001ee80 f   LIBCMTD:sprintf.obj
 0001:0001dec0       _scprintf_l                000000018001eec0 f   LIBCMTD:sprintf.obj
 0001:0001df00       _scprintf_p                000000018001ef00 f   LIBCMTD:sprintf.obj
 0001:0001df40       _scprintf_p_l              000000018001ef40 f   LIBCMTD:sprintf.obj
 0001:0001df80       _snprintf_s                000000018001ef80 f   LIBCMTD:sprintf.obj
 0001:0001dfe0       _snprintf_s_l              000000018001efe0 f   LIBCMTD:sprintf.obj
 0001:0001e040       _sprintf_l                 000000018001f040 f   LIBCMTD:sprintf.obj
 0001:0001e080       _sprintf_p                 000000018001f080 f   LIBCMTD:sprintf.obj
 0001:0001e0d0       _sprintf_p_l               000000018001f0d0 f   LIBCMTD:sprintf.obj
 0001:0001e120       _sprintf_s_l               000000018001f120 f   LIBCMTD:sprintf.obj
 0001:0001e170       sprintf                    000000018001f170 f   LIBCMTD:sprintf.obj
 0001:0001e3f0       sprintf_s                  000000018001f3f0 f   LIBCMTD:sprintf.obj
 0001:0001e440       _heap_alloc_base           000000018001f440 f i LIBCMTD:malloc.obj
 0001:0001e4b0       _malloc_base               000000018001f4b0 f   LIBCMTD:malloc.obj
 0001:0001e550       fetestexcept               000000018001f550 f   LIBCMTD:fetestexcept.obj
 0001:0001e580       __get_abstract_control     000000018001f580 f   LIBCMTD:_fenvutils.obj
 0001:0001e670       __get_abstract_status      000000018001f670 f   LIBCMTD:_fenvutils.obj
 0001:0001e700       __get_machine_control      000000018001f700 f   LIBCMTD:_fenvutils.obj
 0001:0001e7e0       __get_machine_status       000000018001f7e0 f   LIBCMTD:_fenvutils.obj
 0001:0001e870       _getfpcontrolword          000000018001f870 f   LIBCMTD:_fenvutils.obj
 0001:0001e890       _getfpstatusword           000000018001f890 f   LIBCMTD:_fenvutils.obj
 0001:0001e8b0       _setfpcontrolword          000000018001f8b0 f   LIBCMTD:_fenvutils.obj
 0001:0001e8d0       _setfpstatusword           000000018001f8d0 f   LIBCMTD:_fenvutils.obj
 0001:0001e930       __free_lconv_mon           000000018001f930 f   LIBCMTD:initmon.obj
 0001:0001eb40       __init_monetary            000000018001fb40 f   LIBCMTD:initmon.obj
 0001:0001f410       __free_lconv_num           0000000180020410 f   LIBCMTD:initnum.obj
 0001:0001f4f0       __init_numeric             00000001800204f0 f   LIBCMTD:initnum.obj
 0001:0001fa60       __free_lc_time             0000000180020a60 f   LIBCMTD:inittime.obj
 0001:000204c0       __init_time                00000001800214c0 f   LIBCMTD:inittime.obj
 0001:00021c30       localeconv                 0000000180022c30 f   LIBCMTD:lconv.obj
 0001:00021c90       __pctype_func              0000000180022c90 f   LIBCMTD:ctype.obj
 0001:00021cf0       __pwctype_func             0000000180022cf0 f   LIBCMTD:ctype.obj
 0001:000221e0       _MallocaIsSizeInRange      00000001800231e0 f i LIBCMTD:a_map.obj
 0001:00022220       _MarkAllocaS               0000000180023220 f i LIBCMTD:a_map.obj
 0001:00022250       __crtLCMapStringA          0000000180023250 f   LIBCMTD:a_map.obj
 0001:00022300       _freea                     0000000180023300 f i LIBCMTD:a_map.obj
 0001:00022550       __crtGetStringTypeA        0000000180023550 f   LIBCMTD:a_str.obj
 0001:00022670       ?_ExecutionInCatch@@YAHPEAU_xDISPATCHER_CONTEXT@@PEBU_s_FuncInfo@@@Z 0000000180023670 f   LIBCMTD:trnsctrl.obj
 0001:000226c0       ?_GetEstablisherFrame@@YAPEA_KPEA_KPEAU_xDISPATCHER_CONTEXT@@PEBU_s_FuncInfo@@0@Z 00000001800236c0 f   LIBCMTD:trnsctrl.obj
 0001:00022830       ?_GetRangeOfTrysToCheck@@YAPEBU_s_TryBlockMapEntry@@PEA_KPEBU_s_FuncInfo@@HHPEAI2PEAU_xDISPATCHER_CONTEXT@@@Z 0000000180023830 f   LIBCMTD:trnsctrl.obj
 0001:00022a50       ?__FrameUnwindToEmptyState@@YAXPEA_KPEAU_xDISPATCHER_CONTEXT@@PEBU_s_FuncInfo@@@Z 0000000180023a50 f   LIBCMTD:trnsctrl.obj
 0001:00022af0       ?__SehTransFilter@@YAHPEAU_EXCEPTION_POINTERS@@PEAUEHExceptionRecord@@PEA_KPEAU_CONTEXT@@PEAU_xDISPATCHER_CONTEXT@@PEBU_s_FuncInfo@@PEAH@Z 0000000180023af0 f   LIBCMTD:trnsctrl.obj
 0001:00022bb0       _CallSETranslator          0000000180023bb0 f   LIBCMTD:trnsctrl.obj
 0001:00022c30       _CreateFrameInfo           0000000180023c30 f   LIBCMTD:trnsctrl.obj
 0001:00022cb0       _FindAndUnlinkFrame        0000000180023cb0 f   LIBCMTD:trnsctrl.obj
 0001:00022d40       _GetImageBase              0000000180023d40 f   LIBCMTD:trnsctrl.obj
 0001:00022d60       _GetThrowImageBase         0000000180023d60 f   LIBCMTD:trnsctrl.obj
 0001:00022d80       _IsExceptionObjectToBeDestroyed 0000000180023d80 f   LIBCMTD:trnsctrl.obj
 0001:00022de0       _MoveContext               0000000180023de0 f   LIBCMTD:trnsctrl.obj
 0001:00022e10       _SetImageBase              0000000180023e10 f   LIBCMTD:trnsctrl.obj
 0001:00022e30       _SetThrowImageBase         0000000180023e30 f   LIBCMTD:trnsctrl.obj
 0001:00022e50       _UnwindNestedFrames        0000000180023e50 f   LIBCMTD:trnsctrl.obj
 0001:00022fc0       __CxxFrameHandler          0000000180023fc0 f   LIBCMTD:trnsctrl.obj
 0001:00023080       __CxxFrameHandler2         0000000180024080 f   LIBCMTD:trnsctrl.obj
 0001:000230c0       __CxxFrameHandler3         00000001800240c0 f   LIBCMTD:trnsctrl.obj
 0001:00023180       _add_exp                   0000000180024180 f   LIBCMTD:util.obj
 0001:000231c0       _decomp                    00000001800241c0 f   LIBCMTD:util.obj
 0001:00023310       _get_exp                   0000000180024310 f   LIBCMTD:util.obj
 0001:00023350       _set_bexp                  0000000180024350 f   LIBCMTD:util.obj
 0001:00023390       _set_exp                   0000000180024390 f   LIBCMTD:util.obj
 0001:000233e0       _sptype                    00000001800243e0 f   LIBCMTD:util.obj
 0001:00023470       _get_fpsr                  0000000180024470 f   LIBCMTD:fpsr.obj
 0001:00023480       _set_fpsr                  0000000180024480 f   LIBCMTD:fpsr.obj
 0001:0002348a       _fclrf                     000000018002448a f   LIBCMTD:fpsr.obj
 0001:0002349e       _frnd                      000000018002449e f   LIBCMTD:fpsr.obj
 0001:000234c0       __init_dummy               00000001800244c0 f   LIBCMTD:wsetloca.obj
 0001:000234d0       _locterm                   00000001800244d0 f   LIBCMTD:wsetloca.obj
 0001:00023520       ___setlc_active_func       0000000180024520 f   LIBCMTD:wsetloca.obj
 0001:00023530       ___unguarded_readlc_active_add_func 0000000180024530 f   LIBCMTD:wsetloca.obj
 0001:00023540       __copy_locale_name         0000000180024540 f   LIBCMTD:wsetloca.obj
 0001:00023610       __create_locale            0000000180024610 f   LIBCMTD:wsetloca.obj
 0001:00023630       __free_locale              0000000180024630 f   LIBCMTD:wsetloca.obj
 0001:00023650       __get_current_locale       0000000180024650 f   LIBCMTD:wsetloca.obj
 0001:00023660       __lc_lctowcs               0000000180024660 f   LIBCMTD:wsetloca.obj
 0001:00023750       __lc_wcstolc               0000000180024750 f   LIBCMTD:wsetloca.obj
 0001:00023a10       _configthreadlocale        0000000180024a10 f   LIBCMTD:wsetloca.obj
 0001:00023bd0       _create_locale             0000000180024bd0 f   LIBCMTD:wsetloca.obj
 0001:00023c70       _expandlocale              0000000180024c70 f   LIBCMTD:wsetloca.obj
 0001:00024250       _free_locale               0000000180025250 f   LIBCMTD:wsetloca.obj
 0001:00024340       _get_current_locale        0000000180025340 f   LIBCMTD:wsetloca.obj
 0001:00024420       _wcreate_locale            0000000180025420 f   LIBCMTD:wsetloca.obj
 0001:00024660       _wcscats                   0000000180025660 f   LIBCMTD:wsetloca.obj
 0001:00024710       _wsetlocale                0000000180025710 f   LIBCMTD:wsetloca.obj
 0001:00025a20       __iswcsym                  0000000180026a20 f i LIBCMTD:_wctype.obj
 0001:00025a60       __iswcsymf                 0000000180026a60 f i LIBCMTD:_wctype.obj
 0001:00025aa0       _isleadbyte_l              0000000180026aa0 f i LIBCMTD:_wctype.obj
 0001:00025b00       _iswalnum_l                0000000180026b00 f i LIBCMTD:_wctype.obj
 0001:00025b30       _iswalpha_l                0000000180026b30 f i LIBCMTD:_wctype.obj
 0001:00025b60       _iswblank_l                0000000180026b60 f i LIBCMTD:_wctype.obj
 0001:00025ba0       _iswcntrl_l                0000000180026ba0 f i LIBCMTD:_wctype.obj
 0001:00025bd0       _iswcsym_l                 0000000180026bd0 f i LIBCMTD:_wctype.obj
 0001:00025c20       _iswcsymf_l                0000000180026c20 f i LIBCMTD:_wctype.obj
 0001:00025c70       _iswdigit_l                0000000180026c70 f i LIBCMTD:_wctype.obj
 0001:00025ca0       _iswgraph_l                0000000180026ca0 f i LIBCMTD:_wctype.obj
 0001:00025cd0       _iswlower_l                0000000180026cd0 f i LIBCMTD:_wctype.obj
 0001:00025d00       _iswprint_l                0000000180026d00 f i LIBCMTD:_wctype.obj
 0001:00025d30       _iswpunct_l                0000000180026d30 f i LIBCMTD:_wctype.obj
 0001:00025d60       _iswspace_l                0000000180026d60 f i LIBCMTD:_wctype.obj
 0001:00025d90       _iswupper_l                0000000180026d90 f i LIBCMTD:_wctype.obj
 0001:00025dc0       _iswxdigit_l               0000000180026dc0 f i LIBCMTD:_wctype.obj
 0001:00025df0       isleadbyte                 0000000180026df0 f i LIBCMTD:_wctype.obj
 0001:00025e10       iswalnum                   0000000180026e10 f i LIBCMTD:_wctype.obj
 0001:00025e30       iswalpha                   0000000180026e30 f i LIBCMTD:_wctype.obj
 0001:00025e50       iswascii                   0000000180026e50 f i LIBCMTD:_wctype.obj
 0001:00025e80       iswblank                   0000000180026e80 f i LIBCMTD:_wctype.obj
 0001:00025ec0       iswcntrl                   0000000180026ec0 f i LIBCMTD:_wctype.obj
 0001:00025ee0       iswdigit                   0000000180026ee0 f i LIBCMTD:_wctype.obj
 0001:00025f00       iswgraph                   0000000180026f00 f i LIBCMTD:_wctype.obj
 0001:00025f20       iswlower                   0000000180026f20 f i LIBCMTD:_wctype.obj
 0001:00025f40       iswprint                   0000000180026f40 f i LIBCMTD:_wctype.obj
 0001:00025f60       iswpunct                   0000000180026f60 f i LIBCMTD:_wctype.obj
 0001:00025f80       iswspace                   0000000180026f80 f i LIBCMTD:_wctype.obj
 0001:00025fa0       iswupper                   0000000180026fa0 f i LIBCMTD:_wctype.obj
 0001:00025fc0       iswxdigit                  0000000180026fc0 f i LIBCMTD:_wctype.obj
 0001:00025fe0       __isa_available_init       0000000180026fe0 f   LIBCMTD:cpu_disp.obj
 0001:00026320       _CopyMan                   0000000180027320 f i LIBCMTD:intrncvt.obj
 0001:00026390       _FillZeroMan               0000000180027390 f i LIBCMTD:intrncvt.obj
 0001:000263d0       _IncMan                    00000001800273d0 f i LIBCMTD:intrncvt.obj
 0001:000264b0       _IsZeroMan                 00000001800274b0 f i LIBCMTD:intrncvt.obj
 0001:000264f0       _RoundMan                  00000001800274f0 f i LIBCMTD:intrncvt.obj
 0001:00026600       _ShrMan                    0000000180027600 f i LIBCMTD:intrncvt.obj
 0001:00026740       _ZeroTail                  0000000180027740 f i LIBCMTD:intrncvt.obj
 0001:000267f0       __addl                     00000001800277f0 f i LIBCMTD:intrncvt.obj
 0001:00026850       _ld12cvt                   0000000180027850 f i LIBCMTD:intrncvt.obj
 0001:00026bc0       _ld12tod                   0000000180027bc0 f   LIBCMTD:intrncvt.obj
 0001:00026bf0       _ld12tof                   0000000180027bf0 f   LIBCMTD:intrncvt.obj
 0001:00026c20       _ld12told                  0000000180027c20 f   LIBCMTD:intrncvt.obj
 0001:00026d50       __STRINGTOLD_L             0000000180027d50 f   LIBCMTD:strgtold.obj
 0001:00026e00       __ld12mul                  0000000180027e00 f i LIBCMTD:strgtold.obj
 0001:00027370       __multtenpow12             0000000180028370 f i LIBCMTD:strgtold.obj
 0001:000274a0       __shl_12                   00000001800284a0 f i LIBCMTD:strgtold.obj
 0001:00027540       __shr_12                   0000000180028540 f i LIBCMTD:strgtold.obj
 0001:000275e0       __strgtold12_l             00000001800285e0 f   LIBCMTD:strgtold.obj
 0001:000283c0       $I10_OUTPUT                00000001800293c0 f   LIBCMTD:x10fout.obj
 0001:00028c80       __add_12                   0000000180029c80 f i LIBCMTD:x10fout.obj
 0001:00028d60       memcpy_s                   0000000180029d60 f   LIBCMTD:memcpy_s.obj
 0001:00028fd0       wcscpy_s                   0000000180029fd0 f   LIBCMTD:wcscpy_s.obj
 0001:00029480       wcslen                     000000018002a480 f   LIBCMTD:wcslen.obj
 0001:000294d0       __swprintf_l               000000018002a4d0 f   LIBCMTD:swprintf.obj
 0001:00029510       _scwprintf                 000000018002a510 f   LIBCMTD:swprintf.obj
 0001:00029550       _scwprintf_l               000000018002a550 f   LIBCMTD:swprintf.obj
 0001:00029590       _scwprintf_p               000000018002a590 f   LIBCMTD:swprintf.obj
 0001:000295d0       _scwprintf_p_l             000000018002a5d0 f   LIBCMTD:swprintf.obj
 0001:00029610       _snwprintf_s               000000018002a610 f   LIBCMTD:swprintf.obj
 0001:00029670       _snwprintf_s_l             000000018002a670 f   LIBCMTD:swprintf.obj
 0001:000296d0       _swprintf                  000000018002a6d0 f   LIBCMTD:swprintf.obj
 0001:000299b0       _swprintf_p                000000018002a9b0 f   LIBCMTD:swprintf.obj
 0001:00029a00       _swprintf_p_l              000000018002aa00 f   LIBCMTD:swprintf.obj
 0001:00029a50       _swprintf_s_l              000000018002aa50 f   LIBCMTD:swprintf.obj
 0001:00029aa0       swprintf_s                 000000018002aaa0 f   LIBCMTD:swprintf.obj
 0001:00029af0       __crtMessageBoxW           000000018002aaf0 f   LIBCMTD:crtmboxw.obj
 0001:00029f60       __crtMessageBoxWaitThreadW 000000018002af60 f   LIBCMTD:crtmboxw.obj
 0001:00029fb0       _CrtDbgBreak               000000018002afb0 f   LIBCMTD:dbgrptt.obj
 0001:00029fc0       _CrtGetReportHook          000000018002afc0 f   LIBCMTD:dbgrptt.obj
 0001:00029fd0       _CrtSetReportFile          000000018002afd0 f   LIBCMTD:dbgrptt.obj
 0001:0002a130       _CrtSetReportHook          000000018002b130 f   LIBCMTD:dbgrptt.obj
 0001:0002a160       _CrtSetReportMode          000000018002b160 f   LIBCMTD:dbgrptt.obj
 0001:0002a320       _VCrtDbgReportA            000000018002b320 f   LIBCMTD:dbgrptt.obj
 0001:0002acf0       _VCrtDbgReportW            000000018002bcf0 f   LIBCMTD:dbgrptt.obj
 0001:0002b840       __chkstk                   000000018002c840 f   LIBCMTD:chkstk.obj
 0001:0002b840       _alloca_probe              000000018002c840 f   LIBCMTD:chkstk.obj
 0001:0002b890       wcscat_s                   000000018002c890 f   LIBCMTD:wcscat_s.obj
 0001:0002bec0       wcsncpy_s                  000000018002cec0 f   LIBCMTD:wcsncpy_s.obj
 0001:0002c560       __set_app_type             000000018002d560 f   LIBCMTD:errmode.obj
 0001:0002c570       _set_error_mode            000000018002d570 f   LIBCMTD:errmode.obj
 0001:0002c680       _set_abort_behavior        000000018002d680 f   LIBCMTD:abort.obj
 0001:0002c6c0       abort                      000000018002d6c0 f   LIBCMTD:abort.obj
 0001:0002c750       strncpy_s                  000000018002d750 f   LIBCMTD:strncpy_s.obj
 0001:0002cfa0       __crtGetLocaleInfoA        000000018002dfa0 f   LIBCMTD:a_loc.obj
 0001:0002d010       GetTableIndexFromLcid      000000018002e010 f   LIBCMTD:winapinls.obj
 0001:0002d0a0       GetTableIndexFromLocaleName 000000018002e0a0 f   LIBCMTD:winapinls.obj
 0001:0002d150       __crtCompareStringEx       000000018002e150 f   LIBCMTD:winapinls.obj
 0001:0002d230       __crtDownlevelLCIDToLocaleName 000000018002e230 f   LIBCMTD:winapinls.obj
 0001:0002d330       __crtDownlevelLocaleNameToLCID 000000018002e330 f   LIBCMTD:winapinls.obj
 0001:0002d3b0       __crtEnumSystemLocalesEx   000000018002e3b0 f   LIBCMTD:winapinls.obj
 0001:0002d450       __crtGetDateFormatEx       000000018002e450 f   LIBCMTD:winapinls.obj
 0001:0002d510       __crtGetLocaleInfoEx       000000018002e510 f   LIBCMTD:winapinls.obj
 0001:0002d590       __crtGetTimeFormatEx       000000018002e590 f   LIBCMTD:winapinls.obj
 0001:0002d640       __crtGetUserDefaultLocaleName 000000018002e640 f   LIBCMTD:winapinls.obj
 0001:0002d6b0       __crtIsValidLocaleName     000000018002e6b0 f   LIBCMTD:winapinls.obj
 0001:0002d710       __crtLCMapStringEx         000000018002e710 f   LIBCMTD:winapinls.obj
 0001:0002d7f0       __wcsnicmp_ascii           000000018002e7f0 f   LIBCMTD:winapinls.obj
 0001:0002d900       _fileno                    000000018002e900 f   LIBCMTD:fileno.obj
 0001:0002d9c0       _isatty                    000000018002e9c0 f   LIBCMTD:isatty.obj
 0001:0002dad0       _fflush_nolock             000000018002ead0 f   LIBCMTD:fflush.obj
 0001:0002db50       _flush                     000000018002eb50 f   LIBCMTD:fflush.obj
 0001:0002dc40       _flushall                  000000018002ec40 f   LIBCMTD:fflush.obj
 0001:0002dc60       fflush                     000000018002ec60 f   LIBCMTD:fflush.obj
 0001:0002de20       _fcloseall                 000000018002ee20 f   LIBCMTD:closeall.obj
 0001:0002df20       _flsbuf                    000000018002ef20 f   LIBCMTD:_flsbuf.obj
 0001:0002e2c0       _vscprintf                 000000018002f2c0 f   LIBCMTD:vsprintf.obj
 0001:0002e2f0       _vscprintf_helper          000000018002f2f0 f   LIBCMTD:vsprintf.obj
 0001:0002e440       _vscprintf_l               000000018002f440 f   LIBCMTD:vsprintf.obj
 0001:0002e480       _vscprintf_p               000000018002f480 f   LIBCMTD:vsprintf.obj
 0001:0002e4b0       _vscprintf_p_l             000000018002f4b0 f   LIBCMTD:vsprintf.obj
 0001:0002e4f0       _vsprintf_l                000000018002f4f0 f   LIBCMTD:vsprintf.obj
 0001:0002e760       vsprintf                   000000018002f760 f   LIBCMTD:vsprintf.obj
 0001:0002e790       _vsnprintf_c               000000018002f790 f   LIBCMTD:vsnprnc.obj
 0001:0002e800       _vsnprintf_c_l             000000018002f800 f   LIBCMTD:vsnprnc.obj
 0001:0002e870       _vsnprintf_helper          000000018002f870 f   LIBCMTD:vsnprnc.obj
 0001:0002eb50       _vsnprintf_s               000000018002fb50 f   LIBCMTD:vsnprnc.obj
 0001:0002eba0       _vsnprintf_s_l             000000018002fba0 f   LIBCMTD:vsnprnc.obj
 0001:0002f140       _vsprintf_p                0000000180030140 f   LIBCMTD:vsnprnc.obj
 0001:0002f1b0       _vsprintf_p_l              00000001800301b0 f   LIBCMTD:vsnprnc.obj
 0001:0002f220       _vsprintf_s_l              0000000180030220 f   LIBCMTD:vsnprnc.obj
 0001:0002f5b0       vsprintf_s                 00000001800305b0 f   LIBCMTD:vsnprnc.obj
 0001:0002f5f0       _output_l                  00000001800305f0 f   LIBCMTD:output.obj
 0001:00030df0       get_int64_arg              0000000180031df0 f i LIBCMTD:output.obj
 0001:00030e60       get_int_arg                0000000180031e60 f i LIBCMTD:output.obj
 0001:00030ec0       get_short_arg              0000000180031ec0 f i LIBCMTD:output.obj
 0001:00031160       fegetexceptflag            0000000180032160 f   LIBCMTD:fegetexceptflag.obj
 0001:000313c0       _clearfp                   00000001800323c0 f   LIBCMTD:ieee.obj
 0001:000313e0       _control87                 00000001800323e0 f i LIBCMTD:ieee.obj
 0001:00031500       _controlfp                 0000000180032500 f   LIBCMTD:ieee.obj
 0001:00031530       _fpreset                   0000000180032530 f   LIBCMTD:ieee.obj
 0001:000316a0       _set_controlfp             00000001800326a0 f   LIBCMTD:ieee.obj
 0001:00031700       _statusfp                  0000000180032700 f   LIBCMTD:ieee.obj
 0001:00031720       free                       0000000180032720 f   LIBCMTD:dbgfree.obj
 0001:00031740       malloc                     0000000180032740 f   LIBCMTD:dbgmalloc.obj
 0001:00031780       __DestructExceptionObject  0000000180032780 f   LIBCMTD:frame.obj
 0001:00031870       ??0bad_exception@std@@QEAA@AEBV01@@Z 0000000180032870 f i LIBCMTD:frame.obj
 0001:000318b0       ??0bad_exception@std@@QEAA@PEBD@Z 00000001800328b0 f i LIBCMTD:frame.obj
 0001:000318f0       ??1bad_exception@std@@UEAA@XZ 00000001800328f0 f i LIBCMTD:frame.obj
 0001:00031920       ??_Ebad_exception@std@@UEAAPEAXI@Z 0000000180032920 f i LIBCMTD:frame.obj
 0001:00031920       ??_Gbad_exception@std@@UEAAPEAXI@Z 0000000180032920 f i LIBCMTD:frame.obj
 0001:000328f0       ?__uncaught_exception@@YA_NXZ 00000001800338f0 f   LIBCMTD:frame.obj
 0001:00032920       ?_is_exception_typeof@@YAHAEBVtype_info@@PEAU_EXCEPTION_POINTERS@@@Z 0000000180033920 f   LIBCMTD:frame.obj
 0001:00032a70       _SetWinRTOutOfMemoryExceptionCallback 0000000180033a70 f   LIBCMTD:frame.obj
 0001:00032a90       __AdjustPointer            0000000180033a90 f   LIBCMTD:frame.obj
 0001:00032b10       __BuildCatchObject         0000000180033b10 f   LIBCMTD:frame.obj
 0001:00032c50       __BuildCatchObjectHelper   0000000180033c50 f   LIBCMTD:frame.obj
 0001:00033080       __CxxCallCatchBlock        0000000180034080 f   LIBCMTD:frame.obj
 0001:000332f0       __CxxDetectRethrow         00000001800342f0 f   LIBCMTD:frame.obj
 0001:000333a0       __CxxExceptionFilter       00000001800343a0 f   LIBCMTD:frame.obj
 0001:000336e0       __CxxQueryExceptionSize    00000001800346e0 f   LIBCMTD:frame.obj
 0001:000336f0       __CxxRegisterExceptionObject 00000001800346f0 f   LIBCMTD:frame.obj
 0001:00033880       __CxxUnregisterExceptionObject 0000000180034880 f   LIBCMTD:frame.obj
 0001:00033a40       __FrameUnwindFilter        0000000180034a40 f   LIBCMTD:frame.obj
 0001:00033ad0       __FrameUnwindToState       0000000180034ad0 f   LIBCMTD:frame.obj
 0001:00033d30       __GetPlatformExceptionInfo 0000000180034d30 f   LIBCMTD:frame.obj
 0001:00033e40       __InternalCxxFrameHandler  0000000180034e40 f   LIBCMTD:frame.obj
 0001:00034260       __TypeMatch                0000000180035260 f   LIBCMTD:frame.obj
 0001:00034450       ?__GetCurrentState@@YAHPEA_KPEAU_xDISPATCHER_CONTEXT@@PEBU_s_FuncInfo@@@Z 0000000180035450 f   LIBCMTD:ehstate.obj
 0001:000344b0       ?__GetUnwindTryBlock@@YAHPEA_KPEAU_xDISPATCHER_CONTEXT@@PEBU_s_FuncInfo@@@Z 00000001800354b0 f   LIBCMTD:ehstate.obj
 0001:00034500       ?__SetState@@YAXPEA_KPEAU_xDISPATCHER_CONTEXT@@PEBU_s_FuncInfo@@H@Z 0000000180035500 f   LIBCMTD:ehstate.obj
 0001:00034530       ?__SetUnwindTryBlock@@YAXPEA_KPEAU_xDISPATCHER_CONTEXT@@PEBU_s_FuncInfo@@H@Z 0000000180035530 f   LIBCMTD:ehstate.obj
 0001:000345a0       ?__StateFromControlPc@@YAHPEBU_s_FuncInfo@@PEAU_xDISPATCHER_CONTEXT@@@Z 00000001800355a0 f   LIBCMTD:ehstate.obj
 0001:000345d0       ?__StateFromIp@@YAHPEBU_s_FuncInfo@@PEAU_xDISPATCHER_CONTEXT@@_J@Z 00000001800355d0 f   LIBCMTD:ehstate.obj
 0001:000346b0       __init_collate             00000001800356b0 f   LIBCMTD:initcoll.obj
 0001:000346c0       ___lc_codepage_func        00000001800356c0 f   LIBCMTD:initctyp.obj
 0001:00034720       ___lc_collate_cp_func      0000000180035720 f   LIBCMTD:initctyp.obj
 0001:00034780       ___lc_locale_name_func     0000000180035780 f   LIBCMTD:initctyp.obj
 0001:000347e0       ___mb_cur_max_func         00000001800357e0 f   LIBCMTD:initctyp.obj
 0001:00034840       ___mb_cur_max_l_func       0000000180035840 f   LIBCMTD:initctyp.obj
 0001:00034880       __init_ctype               0000000180035880 f   LIBCMTD:initctyp.obj
 0001:00035170       memcmp                     0000000180036170 f   LIBCMTD:memcmp.obj
 0001:00035240       wcscmp                     0000000180036240 f   LIBCMTD:wcscmp.obj
 0001:000352c0       wcscspn                    00000001800362c0 f   LIBCMTD:wcscspn.obj
 0001:00035360       wcsnlen                    0000000180036360 f   LIBCMTD:wcslen_s.obj
 0001:000353c0       wcsncmp                    00000001800363c0 f   LIBCMTD:wcsncmp.obj
 0001:00035450       wcspbrk                    0000000180036450 f   LIBCMTD:wcspbrk.obj
 0001:00036140       __get_qualified_locale     0000000180037140 f   LIBCMTD:getqloc.obj
 0001:000371f0       __get_qualified_locale_downlevel 00000001800381f0 f   LIBCMTD:getqloc_downlevel.obj
 0001:00037560       _iswctype_l                0000000180038560 f   LIBCMTD:iswctype.obj
 0001:00037590       is_wctype                  0000000180038590 f   LIBCMTD:iswctype.obj
 0001:000375c0       iswctype                   00000001800385c0 f   LIBCMTD:iswctype.obj
 0001:00037640       __mtold12                  0000000180038640 f   LIBCMTD:mantold.obj
 0001:000377d0       __vswprintf_l              00000001800387d0 f   LIBCMTD:vswprint.obj
 0001:00037810       _vscwprintf                0000000180038810 f   LIBCMTD:vswprint.obj
 0001:00037840       _vscwprintf_helper         0000000180038840 f   LIBCMTD:vswprint.obj
 0001:00037990       _vscwprintf_l              0000000180038990 f   LIBCMTD:vswprint.obj
 0001:000379d0       _vscwprintf_p              00000001800389d0 f   LIBCMTD:vswprint.obj
 0001:00037a00       _vscwprintf_p_l            0000000180038a00 f   LIBCMTD:vswprint.obj
 0001:00037a40       _vswprintf                 0000000180038a40 f   LIBCMTD:vswprint.obj
 0001:00037a70       _vswprintf_l               0000000180038a70 f   LIBCMTD:vswprint.obj
 0001:00037d40       _vsnwprintf_s              0000000180038d40 f   LIBCMTD:vswprnc.obj
 0001:00037d90       _vsnwprintf_s_l            0000000180038d90 f   LIBCMTD:vswprnc.obj
 0001:00038340       _vswprintf_c               0000000180039340 f   LIBCMTD:vswprnc.obj
 0001:000383b0       _vswprintf_c_l             00000001800393b0 f   LIBCMTD:vswprnc.obj
 0001:00038420       _vswprintf_helper          0000000180039420 f   LIBCMTD:vswprnc.obj
 0001:00038770       _vswprintf_p               0000000180039770 f   LIBCMTD:vswprnc.obj
 0001:000387e0       _vswprintf_p_l             00000001800397e0 f   LIBCMTD:vswprnc.obj
 0001:00038850       _vswprintf_s_l             0000000180039850 f   LIBCMTD:vswprnc.obj
 0001:00038be0       vswprintf_s                0000000180039be0 f   LIBCMTD:vswprnc.obj
 0001:00038c20       _woutput_l                 0000000180039c20 f   LIBCMTD:woutput.obj
 0001:0003a360       strcat_s                   000000018003b360 f   LIBCMTD:strcat_s.obj
 0001:0003a970       _i64toa_s                  000000018003b970 f   LIBCMTD:xtoas.obj
 0001:0003a9d0       _itoa_s                    000000018003b9d0 f   LIBCMTD:xtoas.obj
 0001:0003aa50       _ltoa_s                    000000018003ba50 f   LIBCMTD:xtoas.obj
 0001:0003aab0       _ui64toa_s                 000000018003bab0 f   LIBCMTD:xtoas.obj
 0001:0003aaf0       _ultoa_s                   000000018003baf0 f   LIBCMTD:xtoas.obj
 0001:0003b6c0       _mbstowcs_l                000000018003c6c0 f   LIBCMTD:mbstowcs.obj
 0001:0003b700       _mbstowcs_l_helper         000000018003c700 f   LIBCMTD:mbstowcs.obj
 0001:0003bc70       _mbstowcs_s_l              000000018003cc70 f   LIBCMTD:mbstowcs.obj
 0001:0003c200       mbstowcs                   000000018003d200 f   LIBCMTD:mbstowcs.obj
 0001:0003c260       mbstowcs_s                 000000018003d260 f   LIBCMTD:mbstowcs.obj
 0001:0003c340       _wcstombs_l                000000018003d340 f   LIBCMTD:wcstombs.obj
 0001:0003c380       _wcstombs_l_helper         000000018003d380 f   LIBCMTD:wcstombs.obj
 0001:0003cb90       _wcstombs_s_l              000000018003db90 f   LIBCMTD:wcstombs.obj
 0001:0003d090       wcstombs                   000000018003e090 f   LIBCMTD:wcstombs.obj
 0001:0003d0c0       wcstombs_s                 000000018003e0c0 f   LIBCMTD:wcstombs.obj
 0001:0003d110       _i64tow_s                  000000018003e110 f   LIBCMTD:xtows.obj
 0001:0003d170       _itow_s                    000000018003e170 f   LIBCMTD:xtows.obj
 0001:0003d1f0       _ltow_s                    000000018003e1f0 f   LIBCMTD:xtows.obj
 0001:0003d250       _ui64tow_s                 000000018003e250 f   LIBCMTD:xtows.obj
 0001:0003d290       _ultow_s                   000000018003e290 f   LIBCMTD:xtows.obj
 0001:0003dea0       __GSHandlerCheck_SEH       000000018003eea0 f   LIBCMTD:gshandlerseh.obj
 0001:0003df60       _commit                    000000018003ef60 f   LIBCMTD:commit.obj
 0001:0003e1f0       _write                     000000018003f1f0 f   LIBCMTD:write.obj
 0001:0003e490       _write_nolock              000000018003f490 f   LIBCMTD:write.obj
 0001:0003f5d0       _fclose_nolock             00000001800405d0 f   LIBCMTD:fclose.obj
 0001:0003f720       fclose                     0000000180040720 f   LIBCMTD:fclose.obj
 0001:0003f820       _lseeki64                  0000000180040820 f   LIBCMTD:lseeki64.obj
 0001:0003fad0       _lseeki64_nolock           0000000180040ad0 f   LIBCMTD:lseeki64.obj
 0001:0003fbf0       _getbuf                    0000000180040bf0 f   LIBCMTD:_getbuf.obj
 0001:0003fd00       _output_p_l                0000000180040d00 f   LIBCMTD:outputp.obj
 0001:000441e0       _validate_param_reuseA     00000001800451e0 f   LIBCMTD:outputp.obj
 0001:00044550       get_crtdouble_arg          0000000180045550 f i LIBCMTD:outputp.obj
 0001:000447f0       _output_s_l                00000001800457f0 f   LIBCMTD:outputs.obj
 0001:000463d0       _get_printf_count_output   00000001800473d0 f   LIBCMTD:printf.obj
 0001:00046400       _printf_l                  0000000180047400 f   LIBCMTD:printf.obj
 0001:00046440       _printf_p                  0000000180047440 f   LIBCMTD:printf.obj
 0001:00046480       _printf_p_l                0000000180047480 f   LIBCMTD:printf.obj
 0001:000464c0       _printf_s_l                00000001800474c0 f   LIBCMTD:printf.obj
 0001:00046500       _set_printf_count_output   0000000180047500 f   LIBCMTD:printf.obj
 0001:00046570       printf                     0000000180047570 f   LIBCMTD:printf.obj
 0001:000466f0       printf_s                   00000001800476f0 f   LIBCMTD:printf.obj
 0001:00046730       _wctomb_l                  0000000180047730 f   LIBCMTD:wctomb.obj
 0001:000467e0       _wctomb_s_l                00000001800477e0 f   LIBCMTD:wctomb.obj
 0001:00046c80       wctomb                     0000000180047c80 f   LIBCMTD:wctomb.obj
 0001:00046cf0       wctomb_s                   0000000180047cf0 f   LIBCMTD:wctomb.obj
 0001:00046d40       ??3@YAXPEAX@Z              0000000180047d40 f   LIBCMTD:dbgdel.obj
 0001:00046e20       strcmp                     0000000180047e20 f   LIBCMTD:strcmp.obj
 0001:00046e90       ?_ValidateExecute@@YAHP6A_JXZ@Z 0000000180047e90 f   LIBCMTD:validate.obj
 0001:00046ec0       ?_ValidateRead@@YAHPEBXI@Z 0000000180047ec0 f   LIBCMTD:validate.obj
 0001:00046ef0       ?_ValidateWrite@@YAHPEAXI@Z 0000000180047ef0 f   LIBCMTD:validate.obj
 0001:00046f30       _CallSettingFrame          0000000180047f30 f   LIBCMTD:handlers.obj
 0001:00046f70       _GetNextInstrOffset        0000000180047f70 f   LIBCMTD:handlers.obj
 0001:00046f80       ??0type_info@@AEAA@AEBV0@@Z 0000000180047f80 f   LIBCMTD:typinfo.obj
 0001:00046fa0       ??1type_info@@UEAA@XZ      0000000180047fa0 f   LIBCMTD:typinfo.obj
 0001:00046fd0       ??4type_info@@AEAAAEAV0@AEBV0@@Z 0000000180047fd0 f   LIBCMTD:typinfo.obj
 0001:00046fe0       ??8type_info@@QEBA_NAEBV0@@Z 0000000180047fe0 f   LIBCMTD:typinfo.obj
 0001:00047030       ??9type_info@@QEBA_NAEBV0@@Z 0000000180048030 f   LIBCMTD:typinfo.obj
 0001:00047080       ??_Etype_info@@UEAAPEAXI@Z 0000000180048080 f i LIBCMTD:typinfo.obj
 0001:00047080       ??_Gtype_info@@UEAAPEAXI@Z 0000000180048080 f i LIBCMTD:typinfo.obj
 0001:000470c0       ?_name_internal_method@type_info@@QEBAPEBDPEAU__type_info_node@@@Z 00000001800480c0 f   LIBCMTD:typinfo.obj
 0001:000470f0       ?_type_info_dtor_internal_method@type_info@@QEAAXXZ 00000001800480f0 f   LIBCMTD:typinfo.obj
 0001:00047110       ?before@type_info@@QEBA_NAEBV1@@Z 0000000180048110 f   LIBCMTD:typinfo.obj
 0001:00047160       ?name@type_info@@QEBAPEBDPEAU__type_info_node@@@Z 0000000180048160 f   LIBCMTD:typinfo.obj
 0001:00047190       ?raw_name@type_info@@QEBAPEBDXZ 0000000180048190 f   LIBCMTD:typinfo.obj
 0001:000471a0       ??0__non_rtti_object@std@@QEAA@AEBV01@@Z 00000001800481a0 f   LIBCMTD:stdexcpt.obj
 0001:000471e0       ??0__non_rtti_object@std@@QEAA@PEBD@Z 00000001800481e0 f   LIBCMTD:stdexcpt.obj
 0001:00047220       ??0bad_cast@std@@QEAA@AEBV01@@Z 0000000180048220 f   LIBCMTD:stdexcpt.obj
 0001:00047260       ??0bad_cast@std@@QEAA@PEBD@Z 0000000180048260 f   LIBCMTD:stdexcpt.obj
 0001:000472a0       ??0bad_typeid@std@@QEAA@AEBV01@@Z 00000001800482a0 f   LIBCMTD:stdexcpt.obj
 0001:000472e0       ??0bad_typeid@std@@QEAA@PEBD@Z 00000001800482e0 f   LIBCMTD:stdexcpt.obj
 0001:00047320       ??0exception@std@@QEAA@AEBQEBD@Z 0000000180048320 f   LIBCMTD:stdexcpt.obj
 0001:00047370       ??0exception@std@@QEAA@AEBQEBDH@Z 0000000180048370 f   LIBCMTD:stdexcpt.obj
 0001:000473b0       ??0exception@std@@QEAA@AEBV01@@Z 00000001800483b0 f   LIBCMTD:stdexcpt.obj
 0001:00047400       ??0exception@std@@QEAA@XZ  0000000180048400 f   LIBCMTD:stdexcpt.obj
 0001:00047430       ??1__non_rtti_object@std@@UEAA@XZ 0000000180048430 f   LIBCMTD:stdexcpt.obj
 0001:00047460       ??1bad_cast@std@@UEAA@XZ   0000000180048460 f   LIBCMTD:stdexcpt.obj
 0001:00047490       ??1bad_typeid@std@@UEAA@XZ 0000000180048490 f   LIBCMTD:stdexcpt.obj
 0001:000474c0       ??1exception@std@@UEAA@XZ  00000001800484c0 f   LIBCMTD:stdexcpt.obj
 0001:000474f0       ??4exception@std@@QEAAAEAV01@AEBV01@@Z 00000001800484f0 f   LIBCMTD:stdexcpt.obj
 0001:00047560       ??_E__non_rtti_object@std@@UEAAPEAXI@Z 0000000180048560 f i LIBCMTD:stdexcpt.obj
 0001:00047560       ??_G__non_rtti_object@std@@UEAAPEAXI@Z 0000000180048560 f i LIBCMTD:stdexcpt.obj
 0001:000475a0       ??_Gbad_cast@std@@UEAAPEAXI@Z 00000001800485a0 f i LIBCMTD:stdexcpt.obj
 0001:000475a0       ??_Ebad_cast@std@@UEAAPEAXI@Z 00000001800485a0 f i LIBCMTD:stdexcpt.obj
 0001:000475e0       ??_Gbad_typeid@std@@UEAAPEAXI@Z 00000001800485e0 f i LIBCMTD:stdexcpt.obj
 0001:000475e0       ??_Ebad_typeid@std@@UEAAPEAXI@Z 00000001800485e0 f i LIBCMTD:stdexcpt.obj
 0001:00047620       ??_Gexception@std@@UEAAPEAXI@Z 0000000180048620 f i LIBCMTD:stdexcpt.obj
 0001:00047620       ??_Eexception@std@@UEAAPEAXI@Z 0000000180048620 f i LIBCMTD:stdexcpt.obj
 0001:00047660       ?_Copy_str@exception@std@@AEAAXPEBD@Z 0000000180048660 f   LIBCMTD:stdexcpt.obj
 0001:000476d0       ?_Tidy@exception@std@@AEAAXXZ 00000001800486d0 f   LIBCMTD:stdexcpt.obj
 0001:00047710       ?what@exception@std@@UEBAPEBDXZ 0000000180048710 f   LIBCMTD:stdexcpt.obj
 0001:00047750       _CxxThrowException         0000000180048750 f   LIBCMTD:throw.obj
 0001:00047870       _wtoi                      0000000180048870 f   LIBCMTD:wtox.obj
 0001:00047890       _wtoi64                    0000000180048890 f   LIBCMTD:wtox.obj
 0001:000478b0       _wtoi64_l                  00000001800488b0 f   LIBCMTD:wtox.obj
 0001:000478e0       _wtoi_l                    00000001800488e0 f   LIBCMTD:wtox.obj
 0001:00047910       _wtol                      0000000180048910 f   LIBCMTD:wtox.obj
 0001:00047930       _wtol_l                    0000000180048930 f   LIBCMTD:wtox.obj
 0001:00047960       _wtoll                     0000000180048960 f   LIBCMTD:wtox.obj
 0001:00047980       _wtoll_l                   0000000180048980 f   LIBCMTD:wtox.obj
 0001:000479b0       wcschr                     00000001800489b0 f   LIBCMTD:wcschr.obj
 0001:00047b10       _wcsicmp                   0000000180048b10 f   LIBCMTD:wcsicmp.obj
 0001:00047d60       _wcsicmp_l                 0000000180048d60 f   LIBCMTD:wcsicmp.obj
 0001:000480d0       _wcsnicmp                  00000001800490d0 f   LIBCMTD:wcsnicmp.obj
 0001:00048370       _wcsnicmp_l                0000000180049370 f   LIBCMTD:wcsnicmp.obj
 0001:00048700       _validate_param_reuseW     0000000180049700 f   LIBCMTD:woutputp.obj
 0001:00048a70       _woutput_p_l               0000000180049a70 f   LIBCMTD:woutputp.obj
 0001:0004cc10       _woutput_s_l               000000018004dc10 f   LIBCMTD:woutputs.obj
 0001:0004e500       _fputwc_nolock             000000018004f500 f   LIBCMTD:fputwc.obj
 0001:0004e960       fputwc                     000000018004f960 f   LIBCMTD:fputwc.obj
 0001:0004ea60       putwc                      000000018004fa60 f   LIBCMTD:fputwc.obj
 0001:0004ea90       _mbtowc_l                  000000018004fa90 f   LIBCMTD:mbtowc.obj
 0001:0004edd0       mbtowc                     000000018004fdd0 f   LIBCMTD:mbtowc.obj
 0001:0004ee00       __lock_fhandle             000000018004fe00 f   LIBCMTD:osfinfo.obj
 0001:0004eed0       _alloc_osfhnd              000000018004fed0 f   LIBCMTD:osfinfo.obj
 0001:0004f1b0       _free_osfhnd               00000001800501b0 f   LIBCMTD:osfinfo.obj
 0001:0004f2e0       _get_osfhandle             00000001800502e0 f   LIBCMTD:osfinfo.obj
 0001:0004f4e0       _open_osfhandle            00000001800504e0 f   LIBCMTD:osfinfo.obj
 0001:0004f750       _set_osfhnd                0000000180050750 f   LIBCMTD:osfinfo.obj
 0001:0004f860       _unlock_fhandle            0000000180050860 f   LIBCMTD:osfinfo.obj
 0001:0004f8a0       _putwch                    00000001800508a0 f   LIBCMTD:putwch.obj
 0001:0004f8e0       _putwch_nolock             00000001800508e0 f   LIBCMTD:putwch.obj
 0001:0004f950       _close                     0000000180050950 f   LIBCMTD:close.obj
 0001:0004fbd0       _close_nolock              0000000180050bd0 f   LIBCMTD:close.obj
 0001:0004fce0       _freebuf                   0000000180050ce0 f   LIBCMTD:_freebuf.obj
 0001:00050490       _strtol_l                  0000000180051490 f   LIBCMTD:strtol.obj
 0001:000504d0       _strtoul_l                 00000001800514d0 f   LIBCMTD:strtol.obj
 0001:00050510       strtol                     0000000180051510 f   LIBCMTD:strtol.obj
 0001:00050580       strtoul                    0000000180051580 f   LIBCMTD:strtol.obj
 0001:000505f0       _vprintf_l                 00000001800515f0 f   LIBCMTD:vprintf.obj
 0001:00050630       _vprintf_p                 0000000180051630 f   LIBCMTD:vprintf.obj
 0001:00050660       _vprintf_p_l               0000000180051660 f   LIBCMTD:vprintf.obj
 0001:000506a0       _vprintf_s_l               00000001800516a0 f   LIBCMTD:vprintf.obj
 0001:000506e0       vprintf                    00000001800516e0 f   LIBCMTD:vprintf.obj
 0001:00050710       vprintf_helper             0000000180051710 f   LIBCMTD:vprintf.obj
 0001:00050850       vprintf_s                  0000000180051850 f   LIBCMTD:vprintf.obj
 0001:00050880       ?_Name_base@type_info@@CAPEBDPEBV1@PEAU__type_info_node@@@Z 0000000180051880 f   LIBCMTD:typname.obj
 0001:00050a50       ?_Name_base_internal@type_info@@CAPEBDPEBV1@PEAU__type_info_node@@@Z 0000000180051a50 f   LIBCMTD:typname.obj
 0001:00050c50       ?_Type_info_dtor@type_info@@CAXPEAV1@@Z 0000000180051c50 f   LIBCMTD:typname.obj
 0001:00050d60       ?_Type_info_dtor_internal@type_info@@CAXPEAV1@@Z 0000000180051d60 f   LIBCMTD:typname.obj
 0001:00050e70       __clean_type_info_names_internal 0000000180051e70 f   LIBCMTD:typname.obj
 0001:00050ef0       __unDNameHelper            0000000180051ef0 f   LIBCMTD:typname.obj
 0001:00051490       _wcstol_l                  0000000180052490 f   LIBCMTD:wcstol.obj
 0001:000514d0       _wcstoul_l                 00000001800524d0 f   LIBCMTD:wcstol.obj
 0001:00051510       wcstol                     0000000180052510 f   LIBCMTD:wcstol.obj
 0001:00051540       wcstoul                    0000000180052540 f   LIBCMTD:wcstol.obj
 0001:00051c00       _wcstof_l                  0000000180052c00 f   LIBCMTD:wcstoq.obj
 0001:00051d90       _wcstoi64                  0000000180052d90 f   LIBCMTD:wcstoq.obj
 0001:00051e00       _wcstoi64_l                0000000180052e00 f   LIBCMTD:wcstoq.obj
 0001:00051e40       _wcstoimax_l               0000000180052e40 f   LIBCMTD:wcstoq.obj
 0001:00051e80       _wcstold_l                 0000000180052e80 f   LIBCMTD:wcstoq.obj
 0001:00051eb0       _wcstoll_l                 0000000180052eb0 f   LIBCMTD:wcstoq.obj
 0001:00051ef0       _wcstoui64                 0000000180052ef0 f   LIBCMTD:wcstoq.obj
 0001:00051f60       _wcstoui64_l               0000000180052f60 f   LIBCMTD:wcstoq.obj
 0001:00051fa0       _wcstoull_l                0000000180052fa0 f   LIBCMTD:wcstoq.obj
 0001:00051fe0       _wcstoumax_l               0000000180052fe0 f   LIBCMTD:wcstoq.obj
 0001:00052020       wcstof                     0000000180053020 f   LIBCMTD:wcstoq.obj
 0001:00052050       wcstoimax                  0000000180053050 f   LIBCMTD:wcstoq.obj
 0001:00052080       wcstold                    0000000180053080 f   LIBCMTD:wcstoq.obj
 0001:000520b0       wcstoll                    00000001800530b0 f   LIBCMTD:wcstoq.obj
 0001:000520e0       wcstoull                   00000001800530e0 f   LIBCMTD:wcstoq.obj
 0001:00052110       wcstoumax                  0000000180053110 f   LIBCMTD:wcstoq.obj
 0001:00052140       _towlower_l                0000000180053140 f   LIBCMTD:towlower.obj
 0001:00052300       towlower                   0000000180053300 f   LIBCMTD:towlower.obj
 0001:00052320       _flswbuf                   0000000180053320 f   LIBCMTD:_flswbuf.obj
 0001:000526d0       __termconout               00000001800536d0 f   LIBCMTD:initcon.obj
 0001:00052700       __initconout               0000000180053700 f   LIBCMTD:initcon.obj
 0001:00052750       ??0Block@_HeapManager@@QEAA@XZ 0000000180053750 f i LIBCMTD:undname.obj
 0001:00052770       ??0DName@@QEAA@AEAPEBDD@Z  0000000180053770 f   LIBCMTD:undname.obj
 0001:00052ac0       ??0DName@@QEAA@AEBV0@@Z    0000000180053ac0 f i LIBCMTD:undname.obj
 0001:00052af0       ??0DName@@QEAA@D@Z         0000000180053af0 f   LIBCMTD:undname.obj
 0001:00052bf0       ??0DName@@QEAA@PEAV0@@Z    0000000180053bf0 f   LIBCMTD:undname.obj
 0001:00052d70       ??0DName@@QEAA@PEBD@Z      0000000180053d70 f   LIBCMTD:undname.obj
 0001:00052e80       ??0DName@@QEAA@W4DNameStatus@@@Z 0000000180053e80 f   LIBCMTD:undname.obj
 0001:00052fd0       ??0DName@@QEAA@XZ          0000000180053fd0 f i LIBCMTD:undname.obj
 0001:000530a0       ??0DName@@QEAA@_J@Z        00000001800540a0 f   LIBCMTD:undname.obj
 0001:00053260       ??0DName@@QEAA@_K@Z        0000000180054260 f   LIBCMTD:undname.obj
 0001:000533e0       ??0DNameNode@@IEAA@XZ      00000001800543e0 f   LIBCMTD:undname.obj
 0001:00053400       ??0DNameStatusNode@@AEAA@W4DNameStatus@@@Z 0000000180054400 f   LIBCMTD:undname.obj
 0001:00053470       ??0Replicator@@QEAA@XZ     0000000180054470 f i LIBCMTD:undname.obj
 0001:00053490       ??0UnDecorator@@QEAA@PEADPEBDHP6APEADJ@ZK@Z 0000000180054490 f i LIBCMTD:undname.obj
 0001:00053560       ??0charNode@@QEAA@D@Z      0000000180054560 f   LIBCMTD:undname.obj
 0001:000535a0       ??0pDNameNode@@QEAA@PEAVDName@@@Z 00000001800545a0 f   LIBCMTD:undname.obj
 0001:00053620       ??0pairNode@@QEAA@PEAVDNameNode@@0@Z 0000000180054620 f   LIBCMTD:undname.obj
 0001:00053680       ??0pcharNode@@QEAA@PEBDH@Z 0000000180054680 f   LIBCMTD:undname.obj
 0001:00053750       ??2@YAPEAX_KAEAV_HeapManager@@H@Z 0000000180054750 f i LIBCMTD:undname.obj
 0001:00053780       ??4DName@@QEAAAEAV0@AEBV0@@Z 0000000180054780 f   LIBCMTD:undname.obj
 0001:000537b0       ??4DName@@QEAAAEAV0@D@Z    00000001800547b0 f i LIBCMTD:undname.obj
 0001:000538b0       ??4DName@@QEAAAEAV0@PEAV0@@Z 00000001800548b0 f   LIBCMTD:undname.obj
 0001:00053a20       ??4DName@@QEAAAEAV0@PEBD@Z 0000000180054a20 f   LIBCMTD:undname.obj
 0001:00053b20       ??4DName@@QEAAAEAV0@W4DNameStatus@@@Z 0000000180054b20 f   LIBCMTD:undname.obj
 0001:00053c50       ??AReplicator@@QEBA?AVDName@@H@Z 0000000180054c50 f   LIBCMTD:undname.obj
 0001:00053ce0       ??BUnDecorator@@QEAAPEADXZ 0000000180054ce0 f i LIBCMTD:undname.obj
 0001:00054010       ??H@YA?AVDName@@DAEBV0@@Z  0000000180055010 f i LIBCMTD:undname.obj
 0001:00054050       ??H@YA?AVDName@@PEBDAEBV0@@Z 0000000180055050 f i LIBCMTD:undname.obj
 0001:00054090       ??H@YA?AVDName@@W4DNameStatus@@AEBV0@@Z 0000000180055090 f i LIBCMTD:undname.obj
 0001:000540d0       ??HDName@@QEBA?AV0@AEBV0@@Z 00000001800550d0 f   LIBCMTD:undname.obj
 0001:00054120       ??HDName@@QEBA?AV0@D@Z     0000000180055120 f   LIBCMTD:undname.obj
 0001:00054170       ??HDName@@QEBA?AV0@PEAV0@@Z 0000000180055170 f   LIBCMTD:undname.obj
 0001:000541c0       ??HDName@@QEBA?AV0@PEBD@Z  00000001800551c0 f   LIBCMTD:undname.obj
 0001:00054210       ??HDName@@QEBA?AV0@W4DNameStatus@@@Z 0000000180055210 f   LIBCMTD:undname.obj
 0001:00054260       ??YDName@@QEAAAEAV0@AEBV0@@Z 0000000180055260 f   LIBCMTD:undname.obj
 0001:000542e0       ??YDName@@QEAAAEAV0@D@Z    00000001800552e0 f   LIBCMTD:undname.obj
 0001:00054380       ??YDName@@QEAAAEAV0@PEAV0@@Z 0000000180055380 f   LIBCMTD:undname.obj
 0001:00054460       ??YDName@@QEAAAEAV0@PEBD@Z 0000000180055460 f   LIBCMTD:undname.obj
 0001:00054520       ??YDName@@QEAAAEAV0@W4DNameStatus@@@Z 0000000180055520 f   LIBCMTD:undname.obj
 0001:00054590       ??YReplicator@@QEAAAEAV0@AEBVDName@@@Z 0000000180055590 f   LIBCMTD:undname.obj
 0001:00054650       ??_5DName@@QEAAAEAV0@AEBV0@@Z 0000000180055650 f   LIBCMTD:undname.obj
 0001:000546c0       ?Constructor@_HeapManager@@QEAAXP6APEAX_K@ZP6AXPEAX@Z@Z 00000001800556c0 f i LIBCMTD:undname.obj
 0001:00054720       ?Destructor@_HeapManager@@QEAAXXZ 0000000180055720 f i LIBCMTD:undname.obj
 0001:00054780       ?UScore@UnDecorator@@SAPEBDW4Tokens@@@Z 0000000180055780 f   LIBCMTD:undname.obj
 0001:000547c0       ?append@DName@@AEAAXPEAVDNameNode@@@Z 00000001800557c0 f   LIBCMTD:undname.obj
 0001:00054870       ?composeDeclaration@UnDecorator@@CA?AVDName@@AEBV2@@Z 0000000180055870 f i LIBCMTD:undname.obj
 0001:00056930       ?dbGetString@DName@@QEBAPEADXZ 0000000180057930 f   LIBCMTD:undname.obj
 0001:00056960       ?doAccessSpecifiers@UnDecorator@@SAHXZ 0000000180057960 f i LIBCMTD:undname.obj
 0001:00056990       ?doAllocationLanguage@UnDecorator@@SAHXZ 0000000180057990 f i LIBCMTD:undname.obj
 0001:000569c0       ?doAllocationModel@UnDecorator@@SAHXZ 00000001800579c0 f i LIBCMTD:undname.obj
 0001:000569f0       ?doEcsu@UnDecorator@@SAHXZ 00000001800579f0 f i LIBCMTD:undname.obj
 0001:00056a20       ?doEllipsis@UnDecorator@@SAHXZ 0000000180057a20 f i LIBCMTD:undname.obj
 0001:00056a50       ?doFunctionReturns@UnDecorator@@SAHXZ 0000000180057a50 f i LIBCMTD:undname.obj
 0001:00056a80       ?doMSKeywords@UnDecorator@@SAHXZ 0000000180057a80 f i LIBCMTD:undname.obj
 0001:00056ab0       ?doMemberTypes@UnDecorator@@SAHXZ 0000000180057ab0 f i LIBCMTD:undname.obj
 0001:00056ae0       ?doNameOnly@UnDecorator@@SAHXZ 0000000180057ae0 f i LIBCMTD:undname.obj
 0001:00056af0       ?doNoIdentCharCheck@UnDecorator@@SAHXZ 0000000180057af0 f i LIBCMTD:undname.obj
 0001:00056b00       ?doPchar@DName@@AEAAXPEBDH@Z 0000000180057b00 f   LIBCMTD:undname.obj
 0001:00056c90       ?doPtr64@UnDecorator@@SAHXZ 0000000180057c90 f i LIBCMTD:undname.obj
 0001:00056cc0       ?doRestrictionSpec@UnDecorator@@SAHXZ 0000000180057cc0 f i LIBCMTD:undname.obj
 0001:00056cf0       ?doThisTypes@UnDecorator@@SAHXZ 0000000180057cf0 f i LIBCMTD:undname.obj
 0001:00056d20       ?doThrowTypes@UnDecorator@@SAHXZ 0000000180057d20 f i LIBCMTD:undname.obj
 0001:00056d50       ?doTypeOnly@UnDecorator@@SAHXZ 0000000180057d50 f i LIBCMTD:undname.obj
 0001:00056d60       ?doUnderScore@UnDecorator@@SAHXZ 0000000180057d60 f i LIBCMTD:undname.obj
 0001:00056d90       ?getArgumentList@UnDecorator@@CA?AVDName@@XZ 0000000180057d90 f   LIBCMTD:undname.obj
 0001:00056f30       ?getArgumentTypes@UnDecorator@@CA?AVDName@@XZ 0000000180057f30 f   LIBCMTD:undname.obj
 0001:000570f0       ?getArrayType@UnDecorator@@CA?AVDName@@AEBV2@@Z 00000001800580f0 f i LIBCMTD:undname.obj
 0001:000573e0       ?getBasedType@UnDecorator@@CA?AVDName@@XZ 00000001800583e0 f   LIBCMTD:undname.obj
 0001:000574d0       ?getBasicDataType@UnDecorator@@CA?AVDName@@AEBV2@@Z 00000001800584d0 f   LIBCMTD:undname.obj
 0001:00057be0       ?getCallIndex@UnDecorator@@CA?AVDName@@XZ 0000000180058be0 f i LIBCMTD:undname.obj
 0001:00057c00       ?getCallingConvention@UnDecorator@@CA?AVDName@@XZ 0000000180058c00 f   LIBCMTD:undname.obj
 0001:00057df0       ?getDataIndirectType@UnDecorator@@CA?AVDName@@AEBV2@PEBD0H@Z 0000000180058df0 f   LIBCMTD:undname.obj
 0001:00058760       ?getDataIndirectType@UnDecorator@@CA?AVDName@@XZ 0000000180059760 f i LIBCMTD:undname.obj
 0001:000587c0       ?getDataType@UnDecorator@@CA?AVDName@@PEAV2@@Z 00000001800597c0 f   LIBCMTD:undname.obj
 0001:00058950       ?getDecoratedName@UnDecorator@@CA?AVDName@@XZ 0000000180059950 f   LIBCMTD:undname.obj
 0001:00058d50       ?getDimension@UnDecorator@@CA?AVDName@@_N@Z 0000000180059d50 f   LIBCMTD:undname.obj
 0001:000590b0       ?getDispatchTarget@UnDecorator@@CA?AVDName@@XZ 000000018005a0b0 f   LIBCMTD:undname.obj
 0001:00059180       ?getDisplacement@UnDecorator@@CA?AVDName@@XZ 000000018005a180 f i LIBCMTD:undname.obj
 0001:000591a0       ?getECSUDataType@UnDecorator@@CA?AVDName@@XZ 000000018005a1a0 f   LIBCMTD:undname.obj
 0001:000593e0       ?getECSUName@UnDecorator@@CA?AVDName@@XZ 000000018005a3e0 f i LIBCMTD:undname.obj
 0001:00059400       ?getEnumType@UnDecorator@@CA?AVDName@@XZ 000000018005a400 f i LIBCMTD:undname.obj
 0001:00059580       ?getExtendedDataIndirectType@UnDecorator@@CA?AVDName@@AEAPEBDAEA_NH@Z 000000018005a580 f   LIBCMTD:undname.obj
 0001:000598a0       ?getExternalDataType@UnDecorator@@CA?AVDName@@AEBV2@@Z 000000018005a8a0 f i LIBCMTD:undname.obj
 0001:00059970       ?getFunctionIndirectType@UnDecorator@@CA?AVDName@@AEBV2@@Z 000000018005a970 f   LIBCMTD:undname.obj
 0001:00059ef0       ?getGuardNumber@UnDecorator@@CA?AVDName@@XZ 000000018005aef0 f i LIBCMTD:undname.obj
 0001:00059f10       ?getLastChar@DName@@QEBADXZ 000000018005af10 f i LIBCMTD:undname.obj
 0001:00059f50       ?getLastChar@DNameStatusNode@@UEBADXZ 000000018005af50 f i LIBCMTD:undname.obj
 0001:00059f90       ?getLastChar@charNode@@UEBADXZ 000000018005af90 f i LIBCMTD:undname.obj
 0001:00059fa0       ?getLastChar@pDNameNode@@UEBADXZ 000000018005afa0 f i LIBCMTD:undname.obj
 0001:00059fe0       ?getLastChar@pairNode@@UEBADXZ 000000018005afe0 f i LIBCMTD:undname.obj
 0001:0005a040       ?getLastChar@pcharNode@@UEBADXZ 000000018005b040 f i LIBCMTD:undname.obj
 0001:0005a080       ?getLexicalFrame@UnDecorator@@CA?AVDName@@XZ 000000018005b080 f i LIBCMTD:undname.obj
 0001:0005a0c0       ?getMemory@_HeapManager@@QEAAPEAX_KH@Z 000000018005b0c0 f   LIBCMTD:undname.obj
 0001:0005a230       ?getNumberOfDimensions@UnDecorator@@CAHXZ 000000018005b230 f   LIBCMTD:undname.obj
 0001:0005a350       ?getOperatorName@UnDecorator@@CA?AVDName@@_NPEA_N@Z 000000018005b350 f i LIBCMTD:undname.obj
 0001:0005aff0       ?getPointerType@UnDecorator@@CA?AVDName@@AEBV2@0@Z 000000018005bff0 f i LIBCMTD:undname.obj
 0001:0005b040       ?getPointerTypeArray@UnDecorator@@CA?AVDName@@AEBV2@0@Z 000000018005c040 f i LIBCMTD:undname.obj
 0001:0005b090       ?getPrimaryDataType@UnDecorator@@CA?AVDName@@AEBV2@@Z 000000018005c090 f   LIBCMTD:undname.obj
 0001:0005b510       ?getPtrRefDataType@UnDecorator@@CA?AVDName@@AEBV2@H@Z 000000018005c510 f i LIBCMTD:undname.obj
 0001:0005b690       ?getPtrRefType@UnDecorator@@CA?AVDName@@AEBV2@0PEBD@Z 000000018005c690 f   LIBCMTD:undname.obj
 0001:0005b8a0       ?getReferenceType@UnDecorator@@CA?AVDName@@AEBV2@0PEBD@Z 000000018005c8a0 f i LIBCMTD:undname.obj
 0001:0005b8e0       ?getRestrictionSpec@UnDecorator@@CA?AVDName@@XZ 000000018005c8e0 f   LIBCMTD:undname.obj
 0001:0005ba80       ?getReturnType@UnDecorator@@CA?AVDName@@PEAV2@@Z 000000018005ca80 f   LIBCMTD:undname.obj
 0001:0005bae0       ?getScope@UnDecorator@@CA?AVDName@@XZ 000000018005cae0 f   LIBCMTD:undname.obj
 0001:0005c0d0       ?getScopedName@UnDecorator@@CA?AVDName@@XZ 000000018005d0d0 f   LIBCMTD:undname.obj
 0001:0005c240       ?getSignedDimension@UnDecorator@@CA?AVDName@@XZ 000000018005d240 f   LIBCMTD:undname.obj
 0001:0005c2d0       ?getStorageConvention@UnDecorator@@CA?AVDName@@XZ 000000018005d2d0 f i LIBCMTD:undname.obj
 0001:0005c2f0       ?getString@DName@@QEBAPEADPEAD0@Z 000000018005d2f0 f i LIBCMTD:undname.obj
 0001:0005c340       ?getString@DName@@QEBAPEADPEADH@Z 000000018005d340 f i LIBCMTD:undname.obj
 0001:0005c400       ?getString@DNameStatusNode@@UEBAPEADPEAD0@Z 000000018005d400 f i LIBCMTD:undname.obj
 0001:0005c450       ?getString@charNode@@UEBAPEADPEAD0@Z 000000018005d450 f i LIBCMTD:undname.obj
 0001:0005c490       ?getString@pDNameNode@@UEBAPEADPEAD0@Z 000000018005d490 f i LIBCMTD:undname.obj
 0001:0005c4f0       ?getString@pairNode@@UEBAPEADPEAD0@Z 000000018005d4f0 f i LIBCMTD:undname.obj
 0001:0005c570       ?getString@pcharNode@@UEBAPEADPEAD0@Z 000000018005d570 f i LIBCMTD:undname.obj
 0001:0005c5b0       ?getStringEncoding@UnDecorator@@CA?AVDName@@PEADH@Z 000000018005d5b0 f   LIBCMTD:undname.obj
 0001:0005c6f0       ?getStringHelper@@YAPEADPEAD00H@Z 000000018005d6f0 f i LIBCMTD:undname.obj
 0001:0005c760       ?getSymbolName@UnDecorator@@CA?AVDName@@XZ 000000018005d760 f i LIBCMTD:undname.obj
 0001:0005c800       ?getTemplateArgumentList@UnDecorator@@CA?AVDName@@XZ 000000018005d800 f   LIBCMTD:undname.obj
 0001:0005cbe0       ?getTemplateConstant@UnDecorator@@CA?AVDName@@XZ 000000018005dbe0 f   LIBCMTD:undname.obj
 0001:0005d1b0       ?getTemplateName@UnDecorator@@CA?AVDName@@_N@Z 000000018005e1b0 f   LIBCMTD:undname.obj
 0001:0005d400       ?getThisType@UnDecorator@@CA?AVDName@@XZ 000000018005e400 f i LIBCMTD:undname.obj
 0001:0005d460       ?getThrowTypes@UnDecorator@@CA?AVDName@@XZ 000000018005e460 f   LIBCMTD:undname.obj
 0001:0005d550       ?getTypeEncoding@UnDecorator@@CAHXZ 000000018005e550 f i LIBCMTD:undname.obj
 0001:0005e100       ?getVCallThunkType@UnDecorator@@CA?AVDName@@XZ 000000018005f100 f i LIBCMTD:undname.obj
 0001:0005e180       ?getVbTableType@UnDecorator@@CA?AVDName@@AEBV2@@Z 000000018005f180 f i LIBCMTD:undname.obj
 0001:0005e1b0       ?getVdispMapType@UnDecorator@@CA?AVDName@@AEBV2@@Z 000000018005f1b0 f i LIBCMTD:undname.obj
 0001:0005e240       ?getVfTableType@UnDecorator@@CA?AVDName@@AEBV2@@Z 000000018005f240 f i LIBCMTD:undname.obj
 0001:0005e470       ?getZName@UnDecorator@@CA?AVDName@@_N0@Z 000000018005f470 f   LIBCMTD:undname.obj
 0001:0005e7f0       ?haveTemplateParameters@UnDecorator@@SAHXZ 000000018005f7f0 f i LIBCMTD:undname.obj
 0001:0005e800       ?isArray@DName@@QEBAHXZ    000000018005f800 f i LIBCMTD:undname.obj
 0001:0005e820       ?isComArray@DName@@QEBAHXZ 000000018005f820 f i LIBCMTD:undname.obj
 0001:0005e840       ?isEmpty@DName@@QEBAHXZ    000000018005f840 f i LIBCMTD:undname.obj
 0001:0005e870       ?isFull@Replicator@@QEBAHXZ 000000018005f870 f i LIBCMTD:undname.obj
 0001:0005e8a0       ?isNoTE@DName@@QEBAHXZ     000000018005f8a0 f i LIBCMTD:undname.obj
 0001:0005e8c0       ?isPinPtr@DName@@QEBAHXZ   000000018005f8c0 f i LIBCMTD:undname.obj
 0001:0005e8e0       ?isPtrRef@DName@@QEBAHXZ   000000018005f8e0 f i LIBCMTD:undname.obj
 0001:0005e900       ?isUDC@DName@@QEBAHXZ      000000018005f900 f i LIBCMTD:undname.obj
 0001:0005e950       ?isUDTThunk@DName@@QEBAHXZ 000000018005f950 f i LIBCMTD:undname.obj
 0001:0005e9a0       ?isVCallThunk@DName@@QEBAHXZ 000000018005f9a0 f i LIBCMTD:undname.obj
 0001:0005e9c0       ?isValid@DName@@QEBAHXZ    000000018005f9c0 f i LIBCMTD:undname.obj
 0001:0005ea00       ?length@DName@@QEBAHXZ     000000018005fa00 f i LIBCMTD:undname.obj
 0001:0005ea40       ?length@DNameStatusNode@@UEBAHXZ 000000018005fa40 f i LIBCMTD:undname.obj
 0001:0005ea50       ?length@charNode@@UEBAHXZ  000000018005fa50 f i LIBCMTD:undname.obj
 0001:0005ea60       ?length@pDNameNode@@UEBAHXZ 000000018005fa60 f i LIBCMTD:undname.obj
 0001:0005eaa0       ?length@pairNode@@UEBAHXZ  000000018005faa0 f i LIBCMTD:undname.obj
 0001:0005eb10       ?length@pcharNode@@UEBAHXZ 000000018005fb10 f i LIBCMTD:undname.obj
 0001:0005eb20       ?make@DNameStatusNode@@SAPEAV1@W4DNameStatus@@@Z 000000018005fb20 f i LIBCMTD:undname.obj
 0001:0005ebd0       ?setIsArray@DName@@QEAAXXZ 000000018005fbd0 f i LIBCMTD:undname.obj
 0001:0005ebf0       ?setIsComArray@DName@@QEAAXXZ 000000018005fbf0 f i LIBCMTD:undname.obj
 0001:0005ec10       ?setIsNoTE@DName@@QEAAXXZ  000000018005fc10 f i LIBCMTD:undname.obj
 0001:0005ec30       ?setIsPinPtr@DName@@QEAAXXZ 000000018005fc30 f i LIBCMTD:undname.obj
 0001:0005ec50       ?setIsUDC@DName@@QEAAXXZ   000000018005fc50 f i LIBCMTD:undname.obj
 0001:0005ec80       ?setIsVCallThunk@DName@@QEAAXXZ 000000018005fc80 f i LIBCMTD:undname.obj
 0001:0005eca0       ?setPtrRef@DName@@QEAAAEAV1@XZ 000000018005fca0 f i LIBCMTD:undname.obj
 0001:0005ecc0       ?status@DName@@QEBA?AW4DNameStatus@@XZ 000000018005fcc0 f i LIBCMTD:undname.obj
 0001:0005edf0       __unDName                  000000018005fdf0 f   LIBCMTD:undname.obj
 0001:0005eed0       __unDNameEx                000000018005fed0 f   LIBCMTD:undname.obj
 0001:0005efb0       _wchartodigit              000000018005ffb0 f   LIBCMTD:wchtodig.obj
 0001:0005f320       _wcstod_l                  0000000180060320 f   LIBCMTD:wcstod.obj
 0001:0005f5d0       wcstod                     00000001800605d0 f   LIBCMTD:wcstod.obj
 0001:0005f600       __crtLCMapStringW          0000000180060600 f   LIBCMTD:w_map.obj
 0001:0005f670       _get_purecall_handler      0000000180060670 f   LIBCMTD:purevirt.obj
 0001:0005f690       _purecall                  0000000180060690 f   LIBCMTD:purevirt.obj
 0001:0005f6e0       _set_purecall_handler      00000001800606e0 f   LIBCMTD:purevirt.obj
 0001:0005f720       _atoi64                    0000000180060720 f   LIBCMTD:atox.obj
 0001:0005f740       _atoi64_l                  0000000180060740 f   LIBCMTD:atox.obj
 0001:0005f770       _atoi_l                    0000000180060770 f   LIBCMTD:atox.obj
 0001:0005f7a0       _atol_l                    00000001800607a0 f   LIBCMTD:atox.obj
 0001:0005f7d0       _atoll_l                   00000001800607d0 f   LIBCMTD:atox.obj
 0001:0005f800       atoi                       0000000180060800 f   LIBCMTD:atox.obj
 0001:0005f820       atol                       0000000180060820 f   LIBCMTD:atox.obj
 0001:0005f840       atoll                      0000000180060840 f   LIBCMTD:atox.obj
 0001:0005f860       _wfltin2                   0000000180060860 f   LIBCMTD:wcfin.obj
 0001:00060050       _strtof_l                  0000000180061050 f   LIBCMTD:strtoq.obj
 0001:00060090       _strtoi64                  0000000180061090 f   LIBCMTD:strtoq.obj
 0001:00060100       _strtoi64_l                0000000180061100 f   LIBCMTD:strtoq.obj
 0001:00060140       _strtoimax_l               0000000180061140 f   LIBCMTD:strtoq.obj
 0001:00060180       _strtold_l                 0000000180061180 f   LIBCMTD:strtoq.obj
 0001:000601b0       _strtoll_l                 00000001800611b0 f   LIBCMTD:strtoq.obj
 0001:000601f0       _strtoui64                 00000001800611f0 f   LIBCMTD:strtoq.obj
 0001:00060260       _strtoui64_l               0000000180061260 f   LIBCMTD:strtoq.obj
 0001:000602a0       _strtoull_l                00000001800612a0 f   LIBCMTD:strtoq.obj
 0001:000602e0       _strtoumax_l               00000001800612e0 f   LIBCMTD:strtoq.obj
 0001:00060320       strtof                     0000000180061320 f   LIBCMTD:strtoq.obj
 0001:00060350       strtoimax                  0000000180061350 f   LIBCMTD:strtoq.obj
 0001:00060380       strtold                    0000000180061380 f   LIBCMTD:strtoq.obj
 0001:000603b0       strtoll                    00000001800613b0 f   LIBCMTD:strtoq.obj
 0001:000603e0       strtoull                   00000001800613e0 f   LIBCMTD:strtoq.obj
 0001:00060410       strtoumax                  0000000180061410 f   LIBCMTD:strtoq.obj
 0001:00060440       __WSTRINGTOLD_L            0000000180061440 f   LIBCMTD:wstrgtold.obj
 0001:000604f0       __wstrgtold12_l            00000001800614f0 f   LIBCMTD:wstrgtold.obj
 0001:00061300       _strtod_l                  0000000180062300 f   LIBCMTD:strtod.obj
 0001:00061620       strtod                     0000000180062620 f   LIBCMTD:strtod.obj
 0001:00061650       _fltin2                    0000000180062650 f   LIBCMTD:cfin.obj
 0001:00061792       GetCommandLineA            0000000180062792 f   kernel32:KERNEL32.dll
 0001:00061798       GetCurrentThreadId         0000000180062798 f   kernel32:KERNEL32.dll
 0001:0006179e       GetLastError               000000018006279e f   kernel32:KERNEL32.dll
 0001:000617a4       SetLastError               00000001800627a4 f   kernel32:KERNEL32.dll
 0001:000617aa       GetCurrentThread           00000001800627aa f   kernel32:KERNEL32.dll
 0001:000617b0       IsDebuggerPresent          00000001800627b0 f   kernel32:KERNEL32.dll
 0001:000617b6       IsProcessorFeaturePresent  00000001800627b6 f   kernel32:KERNEL32.dll
 0001:000617bc       EncodePointer              00000001800627bc f   kernel32:KERNEL32.dll
 0001:000617c2       DecodePointer              00000001800627c2 f   kernel32:KERNEL32.dll
 0001:000617c8       ExitProcess                00000001800627c8 f   kernel32:KERNEL32.dll
 0001:000617ce       GetModuleHandleExW         00000001800627ce f   kernel32:KERNEL32.dll
 0001:000617d4       GetProcAddress             00000001800627d4 f   kernel32:KERNEL32.dll
 0001:000617da       AreFileApisANSI            00000001800627da f   kernel32:KERNEL32.dll
 0001:000617e0       MultiByteToWideChar        00000001800627e0 f   kernel32:KERNEL32.dll
 0001:000617e6       WideCharToMultiByte        00000001800627e6 f   kernel32:KERNEL32.dll
 0001:000617ec       GetProcessHeap             00000001800627ec f   kernel32:KERNEL32.dll
 0001:000617f2       GetStdHandle               00000001800627f2 f   kernel32:KERNEL32.dll
 0001:000617f8       GetFileType                00000001800627f8 f   kernel32:KERNEL32.dll
 0001:000617fe       DeleteCriticalSection      00000001800627fe f   kernel32:KERNEL32.dll
 0001:00061804       GetStartupInfoW            0000000180062804 f   kernel32:KERNEL32.dll
 0001:0006180a       GetModuleFileNameA         000000018006280a f   kernel32:KERNEL32.dll
 0001:00061810       HeapSize                   0000000180062810 f   kernel32:KERNEL32.dll
 0001:00061816       HeapValidate               0000000180062816 f   kernel32:KERNEL32.dll
 0001:0006181c       GetSystemInfo              000000018006281c f   kernel32:KERNEL32.dll
 0001:00061822       QueryPerformanceCounter    0000000180062822 f   kernel32:KERNEL32.dll
 0001:00061828       GetCurrentProcessId        0000000180062828 f   kernel32:KERNEL32.dll
 0001:0006182e       GetSystemTimeAsFileTime    000000018006282e f   kernel32:KERNEL32.dll
 0001:00061834       GetEnvironmentStringsW     0000000180062834 f   kernel32:KERNEL32.dll
 0001:0006183a       FreeEnvironmentStringsW    000000018006283a f   kernel32:KERNEL32.dll
 0001:00061840       RtlCaptureContext          0000000180062840 f   kernel32:KERNEL32.dll
 0001:00061846       RtlLookupFunctionEntry     0000000180062846 f   kernel32:KERNEL32.dll
 0001:0006184c       RtlVirtualUnwind           000000018006284c f   kernel32:KERNEL32.dll
 0001:00061852       UnhandledExceptionFilter   0000000180062852 f   kernel32:KERNEL32.dll
 0001:00061858       SetUnhandledExceptionFilter 0000000180062858 f   kernel32:KERNEL32.dll
 0001:0006185e       InitializeCriticalSectionAndSpinCount 000000018006285e f   kernel32:KERNEL32.dll
 0001:00061864       CreateEventW               0000000180062864 f   kernel32:KERNEL32.dll
 0001:0006186a       Sleep                      000000018006286a f   kernel32:KERNEL32.dll
 0001:00061870       GetCurrentProcess          0000000180062870 f   kernel32:KERNEL32.dll
 0001:00061876       TerminateProcess           0000000180062876 f   kernel32:KERNEL32.dll
 0001:0006187c       TlsAlloc                   000000018006287c f   kernel32:KERNEL32.dll
 0001:00061882       TlsGetValue                0000000180062882 f   kernel32:KERNEL32.dll
 0001:00061888       TlsSetValue                0000000180062888 f   kernel32:KERNEL32.dll
 0001:0006188e       TlsFree                    000000018006288e f   kernel32:KERNEL32.dll
 0001:00061894       GetTickCount               0000000180062894 f   kernel32:KERNEL32.dll
 0001:0006189a       GetModuleHandleW           000000018006289a f   kernel32:KERNEL32.dll
 0001:000618a0       CreateSemaphoreW           00000001800628a0 f   kernel32:KERNEL32.dll
 0001:000618a6       RtlUnwindEx                00000001800628a6 f   kernel32:KERNEL32.dll
 0001:000618ac       EnterCriticalSection       00000001800628ac f   kernel32:KERNEL32.dll
 0001:000618b2       LeaveCriticalSection       00000001800628b2 f   kernel32:KERNEL32.dll
 0001:000618b8       FatalAppExitA              00000001800628b8 f   kernel32:KERNEL32.dll
 0001:000618be       IsValidCodePage            00000001800628be f   kernel32:KERNEL32.dll
 0001:000618c4       GetACP                     00000001800628c4 f   kernel32:KERNEL32.dll
 0001:000618ca       GetOEMCP                   00000001800628ca f   kernel32:KERNEL32.dll
 0001:000618d0       GetCPInfo                  00000001800628d0 f   kernel32:KERNEL32.dll
 0001:000618d6       RaiseException             00000001800628d6 f   kernel32:KERNEL32.dll
 0001:000618dc       GetModuleFileNameW         00000001800628dc f   kernel32:KERNEL32.dll
 0001:000618e2       WriteFile                  00000001800628e2 f   kernel32:KERNEL32.dll
 0001:000618e8       SetConsoleCtrlHandler      00000001800628e8 f   kernel32:KERNEL32.dll
 0001:000618ee       FreeLibrary                00000001800628ee f   kernel32:KERNEL32.dll
 0001:000618f4       LoadLibraryExW             00000001800628f4 f   kernel32:KERNEL32.dll
 0001:000618fa       HeapFree                   00000001800628fa f   kernel32:KERNEL32.dll
 0001:00061900       HeapReAlloc                0000000180062900 f   kernel32:KERNEL32.dll
 0001:00061906       HeapQueryInformation       0000000180062906 f   kernel32:KERNEL32.dll
 0001:0006190c       HeapAlloc                  000000018006290c f   kernel32:KERNEL32.dll
 0001:00061912       GetStringTypeW             0000000180062912 f   kernel32:KERNEL32.dll
 0001:00061918       OutputDebugStringW         0000000180062918 f   kernel32:KERNEL32.dll
 0001:0006191e       WaitForSingleObjectEx      000000018006291e f   kernel32:KERNEL32.dll
 0001:00061924       CreateThread               0000000180062924 f   kernel32:KERNEL32.dll
 0001:0006192a       OutputDebugStringA         000000018006292a f   kernel32:KERNEL32.dll
 0001:00061930       WriteConsoleW              0000000180062930 f   kernel32:KERNEL32.dll
 0001:00061936       GetDateFormatW             0000000180062936 f   kernel32:KERNEL32.dll
 0001:0006193c       GetTimeFormatW             000000018006293c f   kernel32:KERNEL32.dll
 0001:00061942       CompareStringW             0000000180062942 f   kernel32:KERNEL32.dll
 0001:00061948       LCMapStringW               0000000180062948 f   kernel32:KERNEL32.dll
 0001:0006194e       GetLocaleInfoW             000000018006294e f   kernel32:KERNEL32.dll
 0001:00061954       IsValidLocale              0000000180062954 f   kernel32:KERNEL32.dll
 0001:0006195a       GetUserDefaultLCID         000000018006295a f   kernel32:KERNEL32.dll
 0001:00061960       EnumSystemLocalesW         0000000180062960 f   kernel32:KERNEL32.dll
 0001:00061966       RtlPcToFileHeader          0000000180062966 f   kernel32:KERNEL32.dll
 0001:0006196c       FlushFileBuffers           000000018006296c f   kernel32:KERNEL32.dll
 0001:00061972       GetConsoleCP               0000000180062972 f   kernel32:KERNEL32.dll
 0001:00061978       GetConsoleMode             0000000180062978 f   kernel32:KERNEL32.dll
 0001:0006197e       SetFilePointerEx           000000018006297e f   kernel32:KERNEL32.dll
 0001:00061984       SetStdHandle               0000000180062984 f   kernel32:KERNEL32.dll
 0001:0006198a       CloseHandle                000000018006298a f   kernel32:KERNEL32.dll
 0001:00061990       CreateFileW                0000000180062990 f   kernel32:KERNEL32.dll
 0002:00000000       __imp_GetCommandLineA      0000000180064000     kernel32:KERNEL32.dll
 0002:00000008       __imp_GetCurrentThreadId   0000000180064008     kernel32:KERNEL32.dll
 0002:00000010       __imp_GetLastError         0000000180064010     kernel32:KERNEL32.dll
 0002:00000018       __imp_SetLastError         0000000180064018     kernel32:KERNEL32.dll
 0002:00000020       __imp_GetCurrentThread     0000000180064020     kernel32:KERNEL32.dll
 0002:00000028       __imp_IsDebuggerPresent    0000000180064028     kernel32:KERNEL32.dll
 0002:00000030       __imp_IsProcessorFeaturePresent 0000000180064030     kernel32:KERNEL32.dll
 0002:00000038       __imp_EncodePointer        0000000180064038     kernel32:KERNEL32.dll
 0002:00000040       __imp_DecodePointer        0000000180064040     kernel32:KERNEL32.dll
 0002:00000048       __imp_ExitProcess          0000000180064048     kernel32:KERNEL32.dll
 0002:00000050       __imp_GetModuleHandleExW   0000000180064050     kernel32:KERNEL32.dll
 0002:00000058       __imp_GetProcAddress       0000000180064058     kernel32:KERNEL32.dll
 0002:00000060       __imp_AreFileApisANSI      0000000180064060     kernel32:KERNEL32.dll
 0002:00000068       __imp_MultiByteToWideChar  0000000180064068     kernel32:KERNEL32.dll
 0002:00000070       __imp_WideCharToMultiByte  0000000180064070     kernel32:KERNEL32.dll
 0002:00000078       __imp_GetProcessHeap       0000000180064078     kernel32:KERNEL32.dll
 0002:00000080       __imp_GetStdHandle         0000000180064080     kernel32:KERNEL32.dll
 0002:00000088       __imp_GetFileType          0000000180064088     kernel32:KERNEL32.dll
 0002:00000090       __imp_DeleteCriticalSection 0000000180064090     kernel32:KERNEL32.dll
 0002:00000098       __imp_GetStartupInfoW      0000000180064098     kernel32:KERNEL32.dll
 0002:000000a0       __imp_GetModuleFileNameA   00000001800640a0     kernel32:KERNEL32.dll
 0002:000000a8       __imp_HeapSize             00000001800640a8     kernel32:KERNEL32.dll
 0002:000000b0       __imp_HeapValidate         00000001800640b0     kernel32:KERNEL32.dll
 0002:000000b8       __imp_GetSystemInfo        00000001800640b8     kernel32:KERNEL32.dll
 0002:000000c0       __imp_QueryPerformanceCounter 00000001800640c0     kernel32:KERNEL32.dll
 0002:000000c8       __imp_GetCurrentProcessId  00000001800640c8     kernel32:KERNEL32.dll
 0002:000000d0       __imp_GetSystemTimeAsFileTime 00000001800640d0     kernel32:KERNEL32.dll
 0002:000000d8       __imp_GetEnvironmentStringsW 00000001800640d8     kernel32:KERNEL32.dll
 0002:000000e0       __imp_FreeEnvironmentStringsW 00000001800640e0     kernel32:KERNEL32.dll
 0002:000000e8       __imp_RtlCaptureContext    00000001800640e8     kernel32:KERNEL32.dll
 0002:000000f0       __imp_RtlLookupFunctionEntry 00000001800640f0     kernel32:KERNEL32.dll
 0002:000000f8       __imp_RtlVirtualUnwind     00000001800640f8     kernel32:KERNEL32.dll
 0002:00000100       __imp_UnhandledExceptionFilter 0000000180064100     kernel32:KERNEL32.dll
 0002:00000108       __imp_SetUnhandledExceptionFilter 0000000180064108     kernel32:KERNEL32.dll
 0002:00000110       __imp_InitializeCriticalSectionAndSpinCount 0000000180064110     kernel32:KERNEL32.dll
 0002:00000118       __imp_CreateEventW         0000000180064118     kernel32:KERNEL32.dll
 0002:00000120       __imp_Sleep                0000000180064120     kernel32:KERNEL32.dll
 0002:00000128       __imp_GetCurrentProcess    0000000180064128     kernel32:KERNEL32.dll
 0002:00000130       __imp_TerminateProcess     0000000180064130     kernel32:KERNEL32.dll
 0002:00000138       __imp_TlsAlloc             0000000180064138     kernel32:KERNEL32.dll
 0002:00000140       __imp_TlsGetValue          0000000180064140     kernel32:KERNEL32.dll
 0002:00000148       __imp_TlsSetValue          0000000180064148     kernel32:KERNEL32.dll
 0002:00000150       __imp_TlsFree              0000000180064150     kernel32:KERNEL32.dll
 0002:00000158       __imp_GetTickCount         0000000180064158     kernel32:KERNEL32.dll
 0002:00000160       __imp_GetModuleHandleW     0000000180064160     kernel32:KERNEL32.dll
 0002:00000168       __imp_CreateSemaphoreW     0000000180064168     kernel32:KERNEL32.dll
 0002:00000170       __imp_RtlUnwindEx          0000000180064170     kernel32:KERNEL32.dll
 0002:00000178       __imp_EnterCriticalSection 0000000180064178     kernel32:KERNEL32.dll
 0002:00000180       __imp_LeaveCriticalSection 0000000180064180     kernel32:KERNEL32.dll
 0002:00000188       __imp_FatalAppExitA        0000000180064188     kernel32:KERNEL32.dll
 0002:00000190       __imp_IsValidCodePage      0000000180064190     kernel32:KERNEL32.dll
 0002:00000198       __imp_GetACP               0000000180064198     kernel32:KERNEL32.dll
 0002:000001a0       __imp_GetOEMCP             00000001800641a0     kernel32:KERNEL32.dll
 0002:000001a8       __imp_GetCPInfo            00000001800641a8     kernel32:KERNEL32.dll
 0002:000001b0       __imp_RaiseException       00000001800641b0     kernel32:KERNEL32.dll
 0002:000001b8       __imp_GetModuleFileNameW   00000001800641b8     kernel32:KERNEL32.dll
 0002:000001c0       __imp_WriteFile            00000001800641c0     kernel32:KERNEL32.dll
 0002:000001c8       __imp_SetConsoleCtrlHandler 00000001800641c8     kernel32:KERNEL32.dll
 0002:000001d0       __imp_FreeLibrary          00000001800641d0     kernel32:KERNEL32.dll
 0002:000001d8       __imp_LoadLibraryExW       00000001800641d8     kernel32:KERNEL32.dll
 0002:000001e0       __imp_HeapFree             00000001800641e0     kernel32:KERNEL32.dll
 0002:000001e8       __imp_HeapReAlloc          00000001800641e8     kernel32:KERNEL32.dll
 0002:000001f0       __imp_HeapQueryInformation 00000001800641f0     kernel32:KERNEL32.dll
 0002:000001f8       __imp_HeapAlloc            00000001800641f8     kernel32:KERNEL32.dll
 0002:00000200       __imp_GetStringTypeW       0000000180064200     kernel32:KERNEL32.dll
 0002:00000208       __imp_OutputDebugStringW   0000000180064208     kernel32:KERNEL32.dll
 0002:00000210       __imp_WaitForSingleObjectEx 0000000180064210     kernel32:KERNEL32.dll
 0002:00000218       __imp_CreateThread         0000000180064218     kernel32:KERNEL32.dll
 0002:00000220       __imp_OutputDebugStringA   0000000180064220     kernel32:KERNEL32.dll
 0002:00000228       __imp_WriteConsoleW        0000000180064228     kernel32:KERNEL32.dll
 0002:00000230       __imp_GetDateFormatW       0000000180064230     kernel32:KERNEL32.dll
 0002:00000238       __imp_GetTimeFormatW       0000000180064238     kernel32:KERNEL32.dll
 0002:00000240       __imp_CompareStringW       0000000180064240     kernel32:KERNEL32.dll
 0002:00000248       __imp_LCMapStringW         0000000180064248     kernel32:KERNEL32.dll
 0002:00000250       __imp_GetLocaleInfoW       0000000180064250     kernel32:KERNEL32.dll
 0002:00000258       __imp_IsValidLocale        0000000180064258     kernel32:KERNEL32.dll
 0002:00000260       __imp_GetUserDefaultLCID   0000000180064260     kernel32:KERNEL32.dll
 0002:00000268       __imp_EnumSystemLocalesW   0000000180064268     kernel32:KERNEL32.dll
 0002:00000270       __imp_RtlPcToFileHeader    0000000180064270     kernel32:KERNEL32.dll
 0002:00000278       __imp_FlushFileBuffers     0000000180064278     kernel32:KERNEL32.dll
 0002:00000280       __imp_GetConsoleCP         0000000180064280     kernel32:KERNEL32.dll
 0002:00000288       __imp_GetConsoleMode       0000000180064288     kernel32:KERNEL32.dll
 0002:00000290       __imp_SetFilePointerEx     0000000180064290     kernel32:KERNEL32.dll
 0002:00000298       __imp_SetStdHandle         0000000180064298     kernel32:KERNEL32.dll
 0002:000002a0       __imp_CloseHandle          00000001800642a0     kernel32:KERNEL32.dll
 0002:000002a8       __imp_CreateFileW          00000001800642a8     kernel32:KERNEL32.dll
 0002:000002b0       \177KERNEL32_NULL_THUNK_DATA 00000001800642b0     kernel32:KERNEL32.dll
 0002:000002b8       __xc_a                     00000001800642b8     LIBCMTD:crt0init.obj
 0002:000002c0       __xc_z                     00000001800642c0     LIBCMTD:crt0init.obj
 0002:000002c8       __xi_a                     00000001800642c8     LIBCMTD:crt0init.obj
 0002:000002f8       __xi_z                     00000001800642f8     LIBCMTD:crt0init.obj
 0002:00000300       __xp_a                     0000000180064300     LIBCMTD:crt0init.obj
 0002:00000320       __xp_z                     0000000180064320     LIBCMTD:crt0init.obj
 0002:00000328       __xt_a                     0000000180064328     LIBCMTD:crt0init.obj
 0002:00000330       __xt_z                     0000000180064330     LIBCMTD:crt0init.obj
 0002:000005a0       ??_C@_0BA@NMEIMCEK@InvalidCodePath?$AA@ 00000001800645a0     handmade.obj
 0002:000005b0       __real@00000000            00000001800645b0     handmade.obj
 0002:000005b4       __real@3a83126f            00000001800645b4     handmade.obj
 0002:000005b8       __real@3e4ccccd            00000001800645b8     handmade.obj
 0002:000005bc       __real@3f000000            00000001800645bc     handmade.obj
 0002:000005c0       __real@3f800000            00000001800645c0     handmade.obj
 0002:000005c4       __real@3fb33333            00000001800645c4     handmade.obj
 0002:000005c8       __real@40000000            00000001800645c8     handmade.obj
 0002:000005d0       __real@401921fb60000000    00000001800645d0     handmade.obj
 0002:000005d8       __real@40400000            00000001800645d8     handmade.obj
 0002:000005dc       __real@41200000            00000001800645dc     handmade.obj
 0002:000005e0       __real@41800000            00000001800645e0     handmade.obj
 0002:000005e4       __real@41b80000            00000001800645e4     handmade.obj
 0002:000005e8       __real@41c00000            00000001800645e8     handmade.obj
 0002:000005ec       __real@41c80000            00000001800645ec     handmade.obj
 0002:000005f0       __real@42000000            00000001800645f0     handmade.obj
 0002:000005f4       __real@42480000            00000001800645f4     handmade.obj
 0002:000005f8       __real@42700000            00000001800645f8     handmade.obj
 0002:000005fc       __real@42800000            00000001800645fc     handmade.obj
 0002:00000600       __real@437f0000            0000000180064600     handmade.obj
 0002:00000604       __real@bf000000            0000000180064604     handmade.obj
 0002:00000608       __real@bf800000            0000000180064608     handmade.obj
 0002:0000060c       __real@c1000000            000000018006460c     handmade.obj
 0002:00000610       __real@c11ccccd            0000000180064610     handmade.obj
 0002:00000620       __xmm@7fffffffffffffff7fffffffffffffff 0000000180064620     handmade.obj
 0002:00000630       __xmm@80000000800000008000000080000000 0000000180064630     handmade.obj
 0002:00000760       ??_C@_05KGFAIMPG@sqrtf?$AA@ 0000000180064760     LIBCMTD:sqrtf.obj
 0002:00000768       _FPinit                    0000000180064768     LIBCMTD:fpinit.obj
 0002:00000770       _pRawDllMain               0000000180064770     LIBCMTD:dllcrt0.obj
 0002:00000770       _pDefaultRawDllMain        0000000180064770     LIBCMTD:dllcrt0.obj
 0002:00000778       ??_C@_0CL@OOIKPIHN@f?3?2dd?2vctools?2crt?2crtw32?2startup@ 0000000180064778     LIBCMTD:dllcrt0.obj
 0002:000007a8       _Fenv0                     00000001800647a8     LIBCMTD:_test.obj
 0002:00000820       ??_C@_0CM@KPPOKOAI@f?3?2dd?2vctools?2crt?2crtw32?2startup@ 0000000180064820     LIBCMTD:tidtable.obj
 0002:00000860       __Lcosfarray               0000000180064860     LIBCMTD:Lsincosf_array.obj
 0002:00000890       __Lsinfarray               0000000180064890     LIBCMTD:Lsincosf_array.obj
 0002:000008b0       __L_2_by_pi_bits           00000001800648b0     LIBCMTD:L2_by_pi_bits.obj
 0002:00000a00       ??_C@_04LAGPAAHP@sinf?$AA@ 0000000180064a00     LIBCMTD:sincos_special.obj
 0002:00000a08       ??_C@_03BLEJJJBH@sin?$AA@  0000000180064a08     LIBCMTD:sincos_special.obj
 0002:00000a0c       ??_C@_04OBBKPIAC@cosf?$AA@ 0000000180064a0c     LIBCMTD:sincos_special.obj
 0002:00000a14       ??_C@_03LALBNOCG@cos?$AA@  0000000180064a14     LIBCMTD:sincos_special.obj
 0002:00000a18       ??_C@_03IIINPABG@tan?$AA@  0000000180064a18     LIBCMTD:sincos_special.obj
 0002:00000a1c       ??_C@_04MHPLPEIA@tanf?$AA@ 0000000180064a1c     LIBCMTD:sincos_special.obj
 0002:00000a24       ?ProcessDetach@NativeDll@<CrtImplementationDetails>@@0IB 0000000180064a24     LIBCMTD:cvt.obj
 0002:00000a28       ?ProcessAttach@NativeDll@<CrtImplementationDetails>@@0IB 0000000180064a28     LIBCMTD:cvt.obj
 0002:00000a2c       ?ThreadAttach@NativeDll@<CrtImplementationDetails>@@0IB 0000000180064a2c     LIBCMTD:cvt.obj
 0002:00000a30       ?ThreadDetach@NativeDll@<CrtImplementationDetails>@@0IB 0000000180064a30     LIBCMTD:cvt.obj
 0002:00000a34       ?ProcessVerifier@NativeDll@<CrtImplementationDetails>@@0IB 0000000180064a34     LIBCMTD:cvt.obj
 0002:00000a38       ??_C@_1BI@ICGGMGLK@?$AAb?$AAu?$AAf?$AA?5?$AA?$CB?$AA?$DN?$AA?5?$AAN?$AAU?$AAL?$AAL?$AA?$AA@ 0000000180064a38     LIBCMTD:cvt.obj
 0002:00000a50       ??_C@_15GANGMFKL@?$AA?$CF?$AAs?$AA?$AA@ 0000000180064a50     LIBCMTD:cvt.obj
 0002:00000a60       ??_C@_1EG@OHONNKNN@?$AAf?$AA?3?$AA?2?$AAd?$AAd?$AA?2?$AAv?$AAc?$AAt?$AAo?$AAo?$AAl?$AAs?$AA?2?$AAc?$AAr?$AAt?$AA?2?$AAf?$AAp?$AAw?$AA3?$AA2?$AA?2?$AAc?$AAo?$AAn?$AAv?$AA?2?$AAc?$AAv?$AAt@ 0000000180064a60     LIBCMTD:cvt.obj
 0002:00000aa8       ??_C@_1BE@OLBNEILL@?$AA_?$AAc?$AAf?$AAt?$AAo?$AAe?$AA2?$AA_?$AAl?$AA?$AA@ 0000000180064aa8     LIBCMTD:cvt.obj
 0002:00000ac0       ??_C@_1CA@CBMNPEO@?$AAs?$AAi?$AAz?$AAe?$AAI?$AAn?$AAB?$AAy?$AAt?$AAe?$AAs?$AA?5?$AA?$DO?$AA?5?$AA0?$AA?$AA@ 0000000180064ac0     LIBCMTD:cvt.obj
 0002:00000ae0       ??_C@_1HE@NACBNDPP@?$AAs?$AAi?$AAz?$AAe?$AAI?$AAn?$AAB?$AAy?$AAt?$AAe?$AAs?$AA?5?$AA?$DO?$AA?5?$AA?$CI?$AAs?$AAi?$AAz?$AAe?$AA_?$AAt?$AA?$CJ?$AA?$CI?$AA3?$AA?5?$AA?$CL?$AA?5?$AA?$CI?$AAn?$AAd?$AAe?$AAc@ 0000000180064ae0     LIBCMTD:cvt.obj
 0002:00000b60       ??_C@_1LE@EOIFGNCJ@?$AAs?$AAt?$AAr?$AAc?$AAp?$AAy?$AA_?$AAs?$AA?$CI?$AAp?$AA?0?$AA?5?$AA?$CI?$AAs?$AAi?$AAz?$AAe?$AAI?$AAn?$AAB?$AAy?$AAt?$AAe?$AAs?$AA?5?$AA?$DN?$AA?$DN?$AA?5?$AA?$CI?$AAs?$AAi?$AAz@ 0000000180064b60     LIBCMTD:cvt.obj
 0002:00000c14       ??_C@_05KLBDPFGC@e?$CL000?$AA@ 0000000180064c14     LIBCMTD:cvt.obj
 0002:00000c20       ??_C@_1BC@INKAPMHI@?$AA_?$AAc?$AAf?$AAt?$AAo?$AAe?$AA_?$AAl?$AA?$AA@ 0000000180064c20     LIBCMTD:cvt.obj
 0002:00000c38       ??_C@_1BC@JOKPCIC@?$AA_?$AAc?$AAf?$AAt?$AAo?$AAa?$AA_?$AAl?$AA?$AA@ 0000000180064c38     LIBCMTD:cvt.obj
 0002:00000c50       ??_C@_1FC@IKIMAMJB@?$AAs?$AAi?$AAz?$AAe?$AAI?$AAn?$AAB?$AAy?$AAt?$AAe?$AAs?$AA?5?$AA?$DO?$AA?5?$AA?$CI?$AAs?$AAi?$AAz?$AAe?$AA_?$AAt?$AA?$CJ?$AA?$CI?$AA1?$AA?5?$AA?$CL?$AA?5?$AA4?$AA?5?$AA?$CL?$AA?5?$AAn@ 0000000180064c50     LIBCMTD:cvt.obj
 0002:00000ca8       ??_C@_1BE@CKPDLI@?$AA_?$AAc?$AAf?$AAt?$AAo?$AAf?$AA2?$AA_?$AAl?$AA?$AA@ 0000000180064ca8     LIBCMTD:cvt.obj
 0002:00000cc0       ??_C@_1BC@DCPPLJL@?$AA_?$AAc?$AAf?$AAt?$AAo?$AAf?$AA_?$AAl?$AA?$AA@ 0000000180064cc0     LIBCMTD:cvt.obj
 0002:00000cd8       ??_C@_1BC@MPIFPLAF@?$AA_?$AAc?$AAf?$AAt?$AAo?$AAg?$AA_?$AAl?$AA?$AA@ 0000000180064cd8     LIBCMTD:cvt.obj
 0002:00000cf0       __real@0000000000000000    0000000180064cf0     LIBCMTD:cvt.obj
 0002:00000d00       _XcptActTab                0000000180064d00     LIBCMTD:winxfltr.obj
 0002:00000dc0       _XcptActTabCount           0000000180064dc0     LIBCMTD:winxfltr.obj
 0002:00000dc4       _XcptActTabSize            0000000180064dc4     LIBCMTD:winxfltr.obj
 0002:00000dc8       _First_FPE_Indx            0000000180064dc8     LIBCMTD:winxfltr.obj
 0002:00000dcc       _Num_FPE                   0000000180064dcc     LIBCMTD:winxfltr.obj
 0002:00000dd0       ??_C@_1BI@BGOHAHKC@?$AAm?$AAs?$AAc?$AAo?$AAr?$AAe?$AAe?$AA?4?$AAd?$AAl?$AAl?$AA?$AA@ 0000000180064dd0     LIBCMTD:crt0dat.obj
 0002:00000de8       ??_C@_0P@MIGLKIOC@CorExitProcess?$AA@ 0000000180064de8     LIBCMTD:crt0dat.obj
 0002:00000df8       ??_C@_1BO@LKEBEKJP@?$AAp?$AAV?$AAa?$AAl?$AAu?$AAe?$AA?5?$AA?$CB?$AA?$DN?$AA?5?$AAN?$AAU?$AAL?$AAL?$AA?$AA@ 0000000180064df8     LIBCMTD:crt0dat.obj
 0002:00000e20       ??_C@_1FG@MHCBBJEK@?$AAf?$AA?3?$AA?2?$AAd?$AAd?$AA?2?$AAv?$AAc?$AAt?$AAo?$AAo?$AAl?$AAs?$AA?2?$AAc?$AAr?$AAt?$AA?2?$AAc?$AAr?$AAt?$AAw?$AA3?$AA2?$AA?2?$AAs?$AAt?$AAa?$AAr?$AAt?$AAu?$AAp@ 0000000180064e20     LIBCMTD:crt0dat.obj
 0002:00000e78       ??_C@_1BK@PNLDCCDP@?$AA_?$AAg?$AAe?$AAt?$AA_?$AAw?$AAp?$AAg?$AAm?$AAp?$AAt?$AAr?$AA?$AA@ 0000000180064e78     LIBCMTD:crt0dat.obj
 0002:00000e98       ??_C@_1CC@CDIPMFPD@?$AA_?$AAw?$AAp?$AAg?$AAm?$AAp?$AAt?$AAr?$AA?5?$AA?$CB?$AA?$DN?$AA?5?$AAN?$AAU?$AAL?$AAL?$AA?$AA@ 0000000180064e98     LIBCMTD:crt0dat.obj
 0002:00000ec0       ??_C@_1BI@COAAPHJK@?$AA_?$AAg?$AAe?$AAt?$AA_?$AAp?$AAg?$AAm?$AAp?$AAt?$AAr?$AA?$AA@ 0000000180064ec0     LIBCMTD:crt0dat.obj
 0002:00000ed8       ??_C@_1CA@BBNAFCKO@?$AA_?$AAp?$AAg?$AAm?$AAp?$AAt?$AAr?$AA?5?$AA?$CB?$AA?$DN?$AA?5?$AAN?$AAU?$AAL?$AAL?$AA?$AA@ 0000000180064ed8     LIBCMTD:crt0dat.obj
 0002:00000ef8       ??_C@_1BK@DJNILIMN@?$AAp?$AAa?$AAt?$AAh?$AA?5?$AA?$CB?$AA?$DN?$AA?5?$AAN?$AAU?$AAL?$AAL?$AA?$AA@ 0000000180064ef8     LIBCMTD:crt0dat.obj
 0002:00000f18       ??_C@_1DG@KANBJOCK@?$AA_?$AA_?$AAc?$AAo?$AAp?$AAy?$AA_?$AAp?$AAa?$AAt?$AAh?$AA_?$AAt?$AAo?$AA_?$AAw?$AAi?$AAd?$AAe?$AA_?$AAs?$AAt?$AAr?$AAi?$AAn?$AAg?$AA?$AA@ 0000000180064f18     LIBCMTD:crt0dat.obj
 0002:00000f50       ??_C@_1CA@BGODLPHH@?$AAo?$AAu?$AAt?$AAP?$AAa?$AAt?$AAh?$AA?5?$AA?$CB?$AA?$DN?$AA?5?$AAN?$AAU?$AAL?$AAL?$AA?$AA@ 0000000180064f50     LIBCMTD:crt0dat.obj
 0002:00000f70       ??_C@_0CL@LMMOJFEN@f?3?2dd?2vctools?2crt?2crtw32?2startup@ 0000000180064f70     LIBCMTD:crt0dat.obj
 0002:00000fa0       ??_C@_1CC@NLGECIOD@?$AAi?$AAn?$AAS?$AAt?$AAr?$AAi?$AAn?$AAg?$AA?5?$AA?$CB?$AA?$DN?$AA?5?$AAN?$AAU?$AAL?$AAL?$AA?$AA@ 0000000180064fa0     LIBCMTD:crt0dat.obj
 0002:00000fc8       ??_C@_1BO@PNPLHAEP@?$AA_?$AA_?$AAc?$AAo?$AAp?$AAy?$AA_?$AAt?$AAo?$AA_?$AAc?$AAh?$AAa?$AAr?$AA?$AA@ 0000000180064fc8     LIBCMTD:crt0dat.obj
 0002:00000fe8       ??_C@_1CE@HIPDKGHC@?$AAo?$AAu?$AAt?$AAS?$AAt?$AAr?$AAi?$AAn?$AAg?$AA?5?$AA?$CB?$AA?$DN?$AA?5?$AAN?$AAU?$AAL?$AAL?$AA?$AA@ 0000000180064fe8     LIBCMTD:crt0dat.obj
 0002:00001010       ??_C@_1BC@DENNNKIM@?$AA_?$AAc?$AAr?$AAt?$AAh?$AAe?$AAa?$AAp?$AA?$AA@ 0000000180065010     LIBCMTD:heapinit.obj
 0002:00001030       ??_C@_1FC@JOHAHJGP@?$AAf?$AA?3?$AA?2?$AAd?$AAd?$AA?2?$AAv?$AAc?$AAt?$AAo?$AAo?$AAl?$AAs?$AA?2?$AAc?$AAr?$AAt?$AA?2?$AAc?$AAr?$AAt?$AAw?$AA3?$AA2?$AA?2?$AAh?$AAe?$AAa?$AAp?$AA?2?$AAh?$AAe@ 0000000180065030     LIBCMTD:heapinit.obj
 0002:00001088       ??_C@_0CI@BIOGDJKL@f?3?2dd?2vctools?2crt?2crtw32?2lowio?2i@ 0000000180065088     LIBCMTD:ioinit.obj
 0002:000010b0       ??_C@_0CL@OBKFGCKK@f?3?2dd?2vctools?2crt?2crtw32?2startup@ 00000001800650b0     LIBCMTD:stdargv.obj
 0002:000010e0       ??_C@_0CL@BJBFGFLH@f?3?2dd?2vctools?2crt?2crtw32?2startup@ 00000001800650e0     LIBCMTD:stdenvp.obj
 0002:00001110       ??_C@_1FG@MHBLOJIO@?$AAf?$AA?3?$AA?2?$AAd?$AAd?$AA?2?$AAv?$AAc?$AAt?$AAo?$AAo?$AAl?$AAs?$AA?2?$AAc?$AAr?$AAt?$AA?2?$AAc?$AAr?$AAt?$AAw?$AA3?$AA2?$AA?2?$AAs?$AAt?$AAa?$AAr?$AAt?$AAu?$AAp@ 0000000180065110     LIBCMTD:stdenvp.obj
 0002:00001168       ??_C@_1BC@GHMCNHHL@?$AA_?$AAs?$AAe?$AAt?$AAe?$AAn?$AAv?$AAp?$AA?$AA@ 0000000180065168     LIBCMTD:stdenvp.obj
 0002:00001180       ??_C@_1DE@MMOGFGHF@?$AAs?$AAt?$AAr?$AAc?$AAp?$AAy?$AA_?$AAs?$AA?$CI?$AA?$CK?$AAe?$AAn?$AAv?$AA?0?$AA?5?$AAc?$AAc?$AAh?$AAa?$AAr?$AAs?$AA?0?$AA?5?$AAp?$AA?$CJ?$AA?$AA@ 0000000180065180     LIBCMTD:stdenvp.obj
 0002:000011e0       ??_C@_04HJMOFLDF@Free?$AA@ 00000001800651e0     LIBCMTD:dbgheap.obj
 0002:000011e8       ??_C@_06EFAGIKOH@Normal?$AA@ 00000001800651e8     LIBCMTD:dbgheap.obj
 0002:000011f0       ??_C@_03OGPFLFLO@CRT?$AA@  00000001800651f0     LIBCMTD:dbgheap.obj
 0002:000011f4       ??_C@_06KMEJCCGM@Ignore?$AA@ 00000001800651f4     LIBCMTD:dbgheap.obj
 0002:000011fc       ??_C@_06PJIGMIJB@Client?$AA@ 00000001800651fc     LIBCMTD:dbgheap.obj
 0002:00001208       ??_C@_1CE@LJFEPPMP@?$AA_?$AAC?$AAr?$AAt?$AAC?$AAh?$AAe?$AAc?$AAk?$AAM?$AAe?$AAm?$AAo?$AAr?$AAy?$AA?$CI?$AA?$CJ?$AA?$AA@ 0000000180065208     LIBCMTD:dbgheap.obj
 0002:00001230       ??_C@_1FA@JKEKCOIC@?$AAf?$AA?3?$AA?2?$AAd?$AAd?$AA?2?$AAv?$AAc?$AAt?$AAo?$AAo?$AAl?$AAs?$AA?2?$AAc?$AAr?$AAt?$AA?2?$AAc?$AAr?$AAt?$AAw?$AA3?$AA2?$AA?2?$AAm?$AAi?$AAs?$AAc?$AA?2?$AAd?$AAb@ 0000000180065230     LIBCMTD:dbgheap.obj
 0002:00001280       ??_C@_0DF@BBEGIFEK@Client?5hook?5allocation?5failure?5a@ 0000000180065280     LIBCMTD:dbgheap.obj
 0002:000012b8       ??_C@_0CB@CCLOLAHO@Client?5hook?5allocation?5failure?4?6@ 00000001800652b8     LIBCMTD:dbgheap.obj
 0002:000012dc       ??_C@_02DKCKIIND@?$CFs?$AA@ 00000001800652dc     LIBCMTD:dbgheap.obj
 0002:000012e0       ??_C@_0CF@BICKFLAF@Invalid?5allocation?5size?3?5?$CFIu?5byt@ 00000001800652e0     LIBCMTD:dbgheap.obj
 0002:00001308       ??_C@_0DC@JEMAGEKG@Error?3?5memory?5allocation?3?5bad?5me@ 0000000180065308     LIBCMTD:dbgheap.obj
 0002:00001340       ??_C@_0DI@KKJPDPGM@Client?5hook?5re?9allocation?5failur@ 0000000180065340     LIBCMTD:dbgheap.obj
 0002:00001378       ??_C@_0CE@DOFMDOL@Client?5hook?5re?9allocation?5failur@ 0000000180065378     LIBCMTD:dbgheap.obj
 0002:000013a0       ??_C@_0ED@GPCPBAGP@Invalid?5allocation?5size?3?5?$CFIu?5byt@ 00000001800653a0     LIBCMTD:dbgheap.obj
 0002:000013f0       ??_C@_0FA@EFEIGJKG@Error?3?5memory?5allocation?3?5bad?5me@ 00000001800653f0     LIBCMTD:dbgheap.obj
 0002:00001440       ??_C@_0EM@LGFLMAGJ@The?5Block?5at?50x?$CFp?5was?5allocated?5@ 0000000180065440     LIBCMTD:dbgheap.obj
 0002:00001490       ??_C@_1EE@GFOPCECE@?$AA_?$AAC?$AAr?$AAt?$AAI?$AAs?$AAV?$AAa?$AAl?$AAi?$AAd?$AAH?$AAe?$AAa?$AAp?$AAP?$AAo?$AAi?$AAn?$AAt?$AAe?$AAr?$AA?$CI?$AAp?$AAU?$AAs?$AAe?$AAr?$AAD?$AAa?$AAt?$AAa@ 0000000180065490     LIBCMTD:dbgheap.obj
 0002:000014e0       ??_C@_1IK@DCPKDGNH@?$AAp?$AAO?$AAl?$AAd?$AAB?$AAl?$AAo?$AAc?$AAk?$AA?9?$AA?$DO?$AAn?$AAL?$AAi?$AAn?$AAe?$AA?5?$AA?$DN?$AA?$DN?$AA?5?$AAI?$AAG?$AAN?$AAO?$AAR?$AAE?$AA_?$AAL?$AAI?$AAN?$AAE?$AA?5@ 00000001800654e0     LIBCMTD:dbgheap.obj
 0002:00001570       ??_C@_0DA@HFBKENN@Error?3?5possible?5heap?5corruption?5@ 0000000180065570     LIBCMTD:dbgheap.obj
 0002:000015a0       ??_C@_1GE@PCKLOLAO@?$AAf?$AAR?$AAe?$AAa?$AAl?$AAl?$AAo?$AAc?$AA?5?$AA?$HM?$AA?$HM?$AA?5?$AA?$CI?$AA?$CB?$AAf?$AAR?$AAe?$AAa?$AAl?$AAl?$AAo?$AAc?$AA?5?$AA?$CG?$AA?$CG?$AA?5?$AAp?$AAN?$AAe?$AAw?$AAB?$AAl@ 00000001800655a0     LIBCMTD:dbgheap.obj
 0002:00001608       ??_C@_1DC@GEFKNOOL@?$AA_?$AAp?$AAL?$AAa?$AAs?$AAt?$AAB?$AAl?$AAo?$AAc?$AAk?$AA?5?$AA?$DN?$AA?$DN?$AA?5?$AAp?$AAO?$AAl?$AAd?$AAB?$AAl?$AAo?$AAc?$AAk?$AA?$AA@ 0000000180065608     LIBCMTD:dbgheap.obj
 0002:00001640       ??_C@_1DE@KOOKLFBB@?$AA_?$AAp?$AAF?$AAi?$AAr?$AAs?$AAt?$AAB?$AAl?$AAo?$AAc?$AAk?$AA?5?$AA?$DN?$AA?$DN?$AA?5?$AAp?$AAO?$AAl?$AAd?$AAB?$AAl?$AAo?$AAc?$AAk?$AA?$AA@ 0000000180065640     LIBCMTD:dbgheap.obj
 0002:00001678       ??_C@_1CE@CJACEFBA@?$AAp?$AAU?$AAs?$AAe?$AAr?$AAD?$AAa?$AAt?$AAa?$AA?5?$AA?$CB?$AA?$DN?$AA?5?$AAN?$AAU?$AAL?$AAL?$AA?$AA@ 0000000180065678     LIBCMTD:dbgheap.obj
 0002:000016a0       ??_C@_1BI@HAPNGHDP@?$AA_?$AAe?$AAx?$AAp?$AAa?$AAn?$AAd?$AA_?$AAd?$AAb?$AAg?$AA?$AA@ 00000001800656a0     LIBCMTD:dbgheap.obj
 0002:000016c0       ??_C@_0EJ@HEIBCIMJ@The?5Block?5at?50x?$CFp?5was?5allocated?5@ 00000001800656c0     LIBCMTD:dbgheap.obj
 0002:00001710       ??_C@_0BL@KEIPLFAC@Client?5hook?5free?5failure?4?6?$AA@ 0000000180065710     LIBCMTD:dbgheap.obj
 0002:00001730       ??_C@_1EO@LHDAJOCM@?$AA_?$AAB?$AAL?$AAO?$AAC?$AAK?$AA_?$AAT?$AAY?$AAP?$AAE?$AA_?$AAI?$AAS?$AA_?$AAV?$AAA?$AAL?$AAI?$AAD?$AA?$CI?$AAp?$AAH?$AAe?$AAa?$AAd?$AA?9?$AA?$DO?$AAn?$AAB?$AAl?$AAo@ 0000000180065730     LIBCMTD:dbgheap.obj
 0002:00001780       ??_C@_0KI@JGFOHMEB@HEAP?5CORRUPTION?5DETECTED?3?5before@ 0000000180065780     LIBCMTD:dbgheap.obj
 0002:00001830       ??_C@_0IK@PJCGLBOB@HEAP?5CORRUPTION?5DETECTED?3?5before@ 0000000180065830     LIBCMTD:dbgheap.obj
 0002:000018c0       ??_C@_0KE@MBMNHHHN@HEAP?5CORRUPTION?5DETECTED?3?5after?5@ 00000001800658c0     LIBCMTD:dbgheap.obj
 0002:00001970       ??_C@_0IG@LEMBDCJK@HEAP?5CORRUPTION?5DETECTED?3?5after?5@ 0000000180065970     LIBCMTD:dbgheap.obj
 0002:00001a00       ??_C@_1HK@HPCBMDFG@?$AAp?$AAH?$AAe?$AAa?$AAd?$AA?9?$AA?$DO?$AAn?$AAL?$AAi?$AAn?$AAe?$AA?5?$AA?$DN?$AA?$DN?$AA?5?$AAI?$AAG?$AAN?$AAO?$AAR?$AAE?$AA_?$AAL?$AAI?$AAN?$AAE?$AA?5?$AA?$CG?$AA?$CG?$AA?5?$AAp@ 0000000180065a00     LIBCMTD:dbgheap.obj
 0002:00001a80       ??_C@_1DM@ODCJIDCP@?$AAp?$AAH?$AAe?$AAa?$AAd?$AA?9?$AA?$DO?$AAn?$AAB?$AAl?$AAo?$AAc?$AAk?$AAU?$AAs?$AAe?$AA?5?$AA?$DN?$AA?$DN?$AA?5?$AAn?$AAB?$AAl?$AAo?$AAc?$AAk?$AAU?$AAs?$AAe?$AA?$AA@ 0000000180065a80     LIBCMTD:dbgheap.obj
 0002:00001ac0       ??_C@_1CK@DMAGEMBG@?$AA_?$AAp?$AAL?$AAa?$AAs?$AAt?$AAB?$AAl?$AAo?$AAc?$AAk?$AA?5?$AA?$DN?$AA?$DN?$AA?5?$AAp?$AAH?$AAe?$AAa?$AAd?$AA?$AA@ 0000000180065ac0     LIBCMTD:dbgheap.obj
 0002:00001af0       ??_C@_1CM@MMAADDMD@?$AA_?$AAp?$AAF?$AAi?$AAr?$AAs?$AAt?$AAB?$AAl?$AAo?$AAc?$AAk?$AA?5?$AA?$DN?$AA?$DN?$AA?5?$AAp?$AAH?$AAe?$AAa?$AAd?$AA?$AA@ 0000000180065af0     LIBCMTD:dbgheap.obj
 0002:00001b20       ??_C@_1BG@MBKOGDLD@?$AA_?$AAm?$AAs?$AAi?$AAz?$AAe?$AA_?$AAd?$AAb?$AAg?$AA?$AA@ 0000000180065b20     LIBCMTD:dbgheap.obj
 0002:00001b38       ??_C@_0CE@MKKHMBMK@_heapchk?5fails?5with?5_HEAPBADBEGI@ 0000000180065b38     LIBCMTD:dbgheap.obj
 0002:00001b60       ??_C@_0CD@CPKEAPBD@_heapchk?5fails?5with?5_HEAPBADNODE@ 0000000180065b60     LIBCMTD:dbgheap.obj
 0002:00001b88       ??_C@_0CC@MJGLGBDG@_heapchk?5fails?5with?5_HEAPBADEND?4@ 0000000180065b88     LIBCMTD:dbgheap.obj
 0002:00001bb0       ??_C@_0CC@MFFCHFHO@_heapchk?5fails?5with?5_HEAPBADPTR?4@ 0000000180065bb0     LIBCMTD:dbgheap.obj
 0002:00001bd8       ??_C@_0CL@HNNNMKMJ@_heapchk?5fails?5with?5unknown?5retu@ 0000000180065bd8     LIBCMTD:dbgheap.obj
 0002:00001c08       ??_C@_07OHKEFPKJ@DAMAGED?$AA@ 0000000180065c08     LIBCMTD:dbgheap.obj
 0002:00001c10       ??_C@_0KA@IHNJJKPL@HEAP?5CORRUPTION?5DETECTED?3?5on?5top@ 0000000180065c10     LIBCMTD:dbgheap.obj
 0002:00001cb0       ??_C@_0IC@BBJIOOJH@HEAP?5CORRUPTION?5DETECTED?3?5on?5top@ 0000000180065cb0     LIBCMTD:dbgheap.obj
 0002:00001d40       ??_C@_0EG@DGJMPDBH@?$CFhs?5located?5at?50x?$CFp?5is?5?$CFIu?5bytes@ 0000000180065d40     LIBCMTD:dbgheap.obj
 0002:00001d88       ??_C@_0CI@JMLBEDHJ@?$CFhs?5located?5at?50x?$CFp?5is?5?$CFIu?5bytes@ 0000000180065d88     LIBCMTD:dbgheap.obj
 0002:00001db0       ??_C@_1BHO@NNANJNF@?$AA?$CI?$AAf?$AAN?$AAe?$AAw?$AAB?$AAi?$AAt?$AAs?$AA?$DN?$AA?$DN?$AA_?$AAC?$AAR?$AAT?$AAD?$AAB?$AAG?$AA_?$AAR?$AAE?$AAP?$AAO?$AAR?$AAT?$AA_?$AAF?$AAL?$AAA?$AAG?$AA?$CJ?$AA?5@ 0000000180065db0     LIBCMTD:dbgheap.obj
 0002:00001f30       ??_C@_1BO@GJFDNMNF@?$AA_?$AAC?$AAr?$AAt?$AAS?$AAe?$AAt?$AAD?$AAb?$AAg?$AAF?$AAl?$AAa?$AAg?$AA?$AA@ 0000000180065f30     LIBCMTD:dbgheap.obj
 0002:00001f50       ??_C@_1BI@CJGCEEDL@?$AAp?$AAf?$AAn?$AA?5?$AA?$CB?$AA?$DN?$AA?5?$AAN?$AAU?$AAL?$AAL?$AA?$AA@ 0000000180065f50     LIBCMTD:dbgheap.obj
 0002:00001f68       ??_C@_1DE@GJCKCKEC@?$AA_?$AAC?$AAr?$AAt?$AAD?$AAo?$AAF?$AAo?$AAr?$AAA?$AAl?$AAl?$AAC?$AAl?$AAi?$AAe?$AAn?$AAt?$AAO?$AAb?$AAj?$AAe?$AAc?$AAt?$AAs?$AA?$AA@ 0000000180065f68     LIBCMTD:dbgheap.obj
 0002:00001fa0       ??_C@_1BM@MIMANDHC@?$AAs?$AAt?$AAa?$AAt?$AAe?$AA?5?$AA?$CB?$AA?$DN?$AA?5?$AAN?$AAU?$AAL?$AAL?$AA?$AA@ 0000000180065fa0     LIBCMTD:dbgheap.obj
 0002:00001fc0       ??_C@_1CE@NJJKELF@?$AA_?$AAC?$AAr?$AAt?$AAM?$AAe?$AAm?$AAC?$AAh?$AAe?$AAc?$AAk?$AAp?$AAo?$AAi?$AAn?$AAt?$AA?$AA@ 0000000180065fc0     LIBCMTD:dbgheap.obj
 0002:00001fe8       ??_C@_0DP@LEFMFBOD@Bad?5memory?5block?5found?5at?50x?$CFp?4?6@ 0000000180065fe8     LIBCMTD:dbgheap.obj
 0002:00002028       ??_C@_0CB@EAAIGELO@Bad?5memory?5block?5found?5at?50x?$CFp?4?6@ 0000000180066028     LIBCMTD:dbgheap.obj
 0002:00002050       ??_C@_1CE@PDIENACM@?$AA_?$AAC?$AAr?$AAt?$AAM?$AAe?$AAm?$AAD?$AAi?$AAf?$AAf?$AAe?$AAr?$AAe?$AAn?$AAc?$AAe?$AA?$AA@ 0000000180066050     LIBCMTD:dbgheap.obj
 0002:00002078       ??_C@_1CC@DHPFEMMN@?$AAo?$AAl?$AAd?$AAS?$AAt?$AAa?$AAt?$AAe?$AA?5?$AA?$CB?$AA?$DN?$AA?5?$AAN?$AAU?$AAL?$AAL?$AA?$AA@ 0000000180066078     LIBCMTD:dbgheap.obj
 0002:000020a0       ??_C@_1CC@DFPEDFBP@?$AAn?$AAe?$AAw?$AAS?$AAt?$AAa?$AAt?$AAe?$AA?5?$AA?$CB?$AA?$DN?$AA?5?$AAN?$AAU?$AAL?$AAL?$AA?$AA@ 00000001800660a0     LIBCMTD:dbgheap.obj
 0002:000020c4       ??_C@_05MKKEDADM@?$CF?42X?5?$AA@ 00000001800660c4     LIBCMTD:dbgheap.obj
 0002:000020d0       ??_C@_1CG@LPFIACGM@?$AA_?$AAp?$AAr?$AAi?$AAn?$AAt?$AAM?$AAe?$AAm?$AAB?$AAl?$AAo?$AAc?$AAk?$AAD?$AAa?$AAt?$AAa?$AA?$AA@ 00000001800660d0     LIBCMTD:dbgheap.obj
 0002:000020f8       ??_C@_1BI@KALLJECN@?$AA?$CI?$AA?$CK?$AA_?$AAe?$AAr?$AAr?$AAn?$AAo?$AA?$CI?$AA?$CJ?$AA?$CJ?$AA?$AA@ 00000001800660f8     LIBCMTD:dbgheap.obj
 0002:00002110       ??_C@_0BA@HJBKCELP@?5Data?3?5?$DM?$CFs?$DO?5?$CFs?6?$AA@ 0000000180066110     LIBCMTD:dbgheap.obj
 0002:00002120       ??_C@_0BE@KCIPKCIA@Dumping?5objects?5?9?$DO?6?$AA@ 0000000180066120     LIBCMTD:dbgheap.obj
 0002:00002138       ??_C@_0BE@OIEFNFL@?$CDFile?5Error?$CD?$CI?$CFd?$CJ?5?3?5?$AA@ 0000000180066138     LIBCMTD:dbgheap.obj
 0002:00002150       ??_C@_0L@JMEFFCCJ@?$CFhs?$CI?$CFd?$CJ?5?3?5?$AA@ 0000000180066150     LIBCMTD:dbgheap.obj
 0002:0000215c       ??_C@_06PKLGBFGM@?$HL?$CFld?$HN?5?$AA@ 000000018006615c     LIBCMTD:dbgheap.obj
 0002:00002168       ??_C@_0DD@GHNAAKBB@client?5block?5at?50x?$CFp?0?5subtype?5?$CFx@ 0000000180066168     LIBCMTD:dbgheap.obj
 0002:000021a0       ??_C@_0CH@FAGDDGPN@normal?5block?5at?50x?$CFp?0?5?$CFIu?5bytes?5@ 00000001800661a0     LIBCMTD:dbgheap.obj
 0002:000021c8       ??_C@_0DA@MDLBNIBM@crt?5block?5at?50x?$CFp?0?5subtype?5?$CFx?0?5?$CF@ 00000001800661c8     LIBCMTD:dbgheap.obj
 0002:000021f8       ??_C@_0BH@GFGKJDCO@Object?5dump?5complete?4?6?$AA@ 00000001800661f8     LIBCMTD:dbgheap.obj
 0002:00002210       ??_C@_0BI@JBFPOEJA@Detected?5memory?5leaks?$CB?6?$AA@ 0000000180066210     LIBCMTD:dbgheap.obj
 0002:00002228       ??_C@_1CM@MPNIBKGK@?$AA_?$AAC?$AAr?$AAt?$AAM?$AAe?$AAm?$AAD?$AAu?$AAm?$AAp?$AAS?$AAt?$AAa?$AAt?$AAi?$AAs?$AAt?$AAi?$AAc?$AAs?$AA?$AA@ 0000000180066228     LIBCMTD:dbgheap.obj
 0002:00002258       ??_C@_0BO@DACNIABB@?$CFId?5bytes?5in?5?$CFId?5?$CFhs?5Blocks?4?6?$AA@ 0000000180066258     LIBCMTD:dbgheap.obj
 0002:00002278       ??_C@_0CB@BLHDAFNE@Largest?5number?5used?3?5?$CFId?5bytes?4?6@ 0000000180066278     LIBCMTD:dbgheap.obj
 0002:000022a0       ??_C@_0BP@DEDHGGGI@Total?5allocations?3?5?$CFId?5bytes?4?6?$AA@ 00000001800662a0     LIBCMTD:dbgheap.obj
 0002:000022c0       ??_C@_1CE@NPMGPNNP@?$AAI?$AAS?$AA_?$AA2?$AA_?$AAP?$AAO?$AAW?$AA_?$AAN?$AA?$CI?$AAa?$AAl?$AAi?$AAg?$AAn?$AA?$CJ?$AA?$AA@ 00000001800662c0     LIBCMTD:dbgheap.obj
 0002:000022e8       ??_C@_1DG@DONCJBBJ@?$AA_?$AAa?$AAl?$AAi?$AAg?$AAn?$AAe?$AAd?$AA_?$AAo?$AAf?$AAf?$AAs?$AAe?$AAt?$AA_?$AAm?$AAa?$AAl?$AAl?$AAo?$AAc?$AA_?$AAd?$AAb?$AAg?$AA?$AA@ 00000001800662e8     LIBCMTD:dbgheap.obj
 0002:00002320       ??_C@_1DK@LFLKFPDA@?$AAo?$AAf?$AAf?$AAs?$AAe?$AAt?$AA?5?$AA?$DN?$AA?$DN?$AA?5?$AA0?$AA?5?$AA?$HM?$AA?$HM?$AA?5?$AAo?$AAf?$AAf?$AAs?$AAe?$AAt?$AA?5?$AA?$DM?$AA?5?$AAs?$AAi?$AAz?$AAe?$AA?$AA@ 0000000180066320     LIBCMTD:dbgheap.obj
 0002:00002360       ??_C@_0EI@NDNJMAJK@The?5block?5at?50x?$CFp?5was?5not?5alloca@ 0000000180066360     LIBCMTD:dbgheap.obj
 0002:000023a8       ??_C@_0DL@PGHMMKNE@Damage?5before?50x?$CFp?5which?5was?5all@ 00000001800663a8     LIBCMTD:dbgheap.obj
 0002:000023e8       ??_C@_1DI@NINIKFFK@?$AA_?$AAa?$AAl?$AAi?$AAg?$AAn?$AAe?$AAd?$AA_?$AAo?$AAf?$AAf?$AAs?$AAe?$AAt?$AA_?$AAr?$AAe?$AAa?$AAl?$AAl?$AAo?$AAc?$AA_?$AAd?$AAb?$AAg?$AA?$AA@ 00000001800663e8     LIBCMTD:dbgheap.obj
 0002:00002420       ??_C@_0EF@PGELACII@The?5block?5at?50x?$CFp?5was?5not?5alloca@ 0000000180066420     LIBCMTD:dbgheap.obj
 0002:00002468       ??_C@_1CC@MOBIKHH@?$AAm?$AAe?$AAm?$AAb?$AAl?$AAo?$AAc?$AAk?$AA?5?$AA?$CB?$AA?$DN?$AA?5?$AAN?$AAU?$AAL?$AAL?$AA?$AA@ 0000000180066468     LIBCMTD:dbgheap.obj
 0002:00002490       ??_C@_1CG@CEGMHIMN@?$AA_?$AAa?$AAl?$AAi?$AAg?$AAn?$AAe?$AAd?$AA_?$AAm?$AAs?$AAi?$AAz?$AAe?$AA_?$AAd?$AAb?$AAg?$AA?$AA@ 0000000180066490     LIBCMTD:dbgheap.obj
 0002:000024b8       ??_C@_0CG@NNNNMKLF@f?3?2dd?2vctools?2crt?2crtw32?2misc?2a_@ 00000001800664b8     LIBCMTD:a_env.obj
 0002:000024e0       ??_C@_1BK@MGMFAEKH@?$AAk?$AAe?$AAr?$AAn?$AAe?$AAl?$AA3?$AA2?$AA?4?$AAd?$AAl?$AAl?$AA?$AA@ 00000001800664e0     LIBCMTD:winapisupp.obj
 0002:00002500       ??_C@_08KNHFBNJ@FlsAlloc?$AA@ 0000000180066500     LIBCMTD:winapisupp.obj
 0002:00002510       ??_C@_07PEJMOBNF@FlsFree?$AA@ 0000000180066510     LIBCMTD:winapisupp.obj
 0002:00002518       ??_C@_0M@GDNOONDI@FlsGetValue?$AA@ 0000000180066518     LIBCMTD:winapisupp.obj
 0002:00002528       ??_C@_0M@JCPCPOEF@FlsSetValue?$AA@ 0000000180066528     LIBCMTD:winapisupp.obj
 0002:00002538       ??_C@_0BM@HCFOFFN@InitializeCriticalSectionEx?$AA@ 0000000180066538     LIBCMTD:winapisupp.obj
 0002:00002558       ??_C@_0P@DLHPPCNH@CreateEventExW?$AA@ 0000000180066558     LIBCMTD:winapisupp.obj
 0002:00002568       ??_C@_0BD@KIEEOEEH@CreateSemaphoreExW?$AA@ 0000000180066568     LIBCMTD:winapisupp.obj
 0002:00002580       ??_C@_0BI@BKLFFAPO@SetThreadStackGuarantee?$AA@ 0000000180066580     LIBCMTD:winapisupp.obj
 0002:00002598       ??_C@_0BG@OGFAJCKC@CreateThreadpoolTimer?$AA@ 0000000180066598     LIBCMTD:winapisupp.obj
 0002:000025b0       ??_C@_0BD@LPLEMMDI@SetThreadpoolTimer?$AA@ 00000001800665b0     LIBCMTD:winapisupp.obj
 0002:000025c8       ??_C@_0CA@FMNJENH@WaitForThreadpoolTimerCallbacks?$AA@ 00000001800665c8     LIBCMTD:winapisupp.obj
 0002:000025e8       ??_C@_0BF@DCFCCNOC@CloseThreadpoolTimer?$AA@ 00000001800665e8     LIBCMTD:winapisupp.obj
 0002:00002600       ??_C@_0BF@FLABGKKM@CreateThreadpoolWait?$AA@ 0000000180066600     LIBCMTD:winapisupp.obj
 0002:00002618       ??_C@_0BC@MGCOHNA@SetThreadpoolWait?$AA@ 0000000180066618     LIBCMTD:winapisupp.obj
 0002:00002630       ??_C@_0BE@OCIOMIMP@CloseThreadpoolWait?$AA@ 0000000180066630     LIBCMTD:winapisupp.obj
 0002:00002648       ??_C@_0BJ@LKGHFHBO@FlushProcessWriteBuffers?$AA@ 0000000180066648     LIBCMTD:winapisupp.obj
 0002:00002668       ??_C@_0BP@KALKKPMO@FreeLibraryWhenCallbackReturns?$AA@ 0000000180066668     LIBCMTD:winapisupp.obj
 0002:00002688       ??_C@_0BK@DFNBACLA@GetCurrentProcessorNumber?$AA@ 0000000180066688     LIBCMTD:winapisupp.obj
 0002:000026a8       ??_C@_0BP@KHGALBC@GetLogicalProcessorInformation?$AA@ 00000001800666a8     LIBCMTD:winapisupp.obj
 0002:000026c8       ??_C@_0BE@FKKLLFLM@CreateSymbolicLinkW?$AA@ 00000001800666c8     LIBCMTD:winapisupp.obj
 0002:000026e0       ??_C@_0BJ@OHNKDLIJ@SetDefaultDllDirectories?$AA@ 00000001800666e0     LIBCMTD:winapisupp.obj
 0002:00002700       ??_C@_0BE@LJANKFHF@EnumSystemLocalesEx?$AA@ 0000000180066700     LIBCMTD:winapisupp.obj
 0002:00002718       ??_C@_0BA@IHGNDAEB@CompareStringEx?$AA@ 0000000180066718     LIBCMTD:winapisupp.obj
 0002:00002728       ??_C@_0BA@EPCJIIPD@GetDateFormatEx?$AA@ 0000000180066728     LIBCMTD:winapisupp.obj
 0002:00002738       ??_C@_0BA@ONOKGCMP@GetLocaleInfoEx?$AA@ 0000000180066738     LIBCMTD:winapisupp.obj
 0002:00002748       ??_C@_0BA@CIJJKCJJ@GetTimeFormatEx?$AA@ 0000000180066748     LIBCMTD:winapisupp.obj
 0002:00002758       ??_C@_0BJ@PBCCBIPI@GetUserDefaultLocaleName?$AA@ 0000000180066758     LIBCMTD:winapisupp.obj
 0002:00002778       ??_C@_0BC@CELBKLLA@IsValidLocaleName?$AA@ 0000000180066778     LIBCMTD:winapisupp.obj
 0002:00002790       ??_C@_0O@KKBNKAPF@LCMapStringEx?$AA@ 0000000180066790     LIBCMTD:winapisupp.obj
 0002:000027a0       ??_C@_0BE@JOGNEJCI@GetCurrentPackageId?$AA@ 00000001800667a0     LIBCMTD:winapisupp.obj
 0002:000027b8       ??_C@_0P@CDHHOHKP@GetTickCount64?$AA@ 00000001800667b8     LIBCMTD:winapisupp.obj
 0002:000027c8       ??_C@_0BO@KPCLFDJJ@GetFileInformationByHandleExW?$AA@ 00000001800667c8     LIBCMTD:winapisupp.obj
 0002:000027e8       ??_C@_0BM@MHIDLABK@SetFileInformationByHandleW?$AA@ 00000001800667e8     LIBCMTD:winapisupp.obj
 0002:00002810       ??_C@_1EM@IOHICOCC@?$AAf?$AA?3?$AA?2?$AAd?$AAd?$AA?2?$AAv?$AAc?$AAt?$AAo?$AAo?$AAl?$AAs?$AA?2?$AAc?$AAr?$AAt?$AA?2?$AAc?$AAr?$AAt?$AAw?$AA3?$AA2?$AA?2?$AAd?$AAo?$AAs?$AA?2?$AAd?$AAo?$AAs@ 0000000180066810     LIBCMTD:dosmap.obj
 0002:00002860       ??_C@_1BG@KCMPBBDK@?$AA_?$AAg?$AAe?$AAt?$AA_?$AAe?$AAr?$AAr?$AAn?$AAo?$AA?$AA@ 0000000180066860     LIBCMTD:dosmap.obj
 0002:00002878       ??_C@_1BM@INIPHHDD@?$AA_?$AAg?$AAe?$AAt?$AA_?$AAd?$AAo?$AAs?$AAe?$AAr?$AAr?$AAn?$AAo?$AA?$AA@ 0000000180066878     LIBCMTD:dosmap.obj
 0002:00002898       ??_C@_0CJ@LPLBAFNO@f?3?2dd?2vctools?2crt?2crtw32?2startup@ 0000000180066898     LIBCMTD:mlock.obj
 0002:000028d0       ??_C@_1BJK@FEBNHLFF@?$AA?$CI?$AA?$CI?$AAp?$AAt?$AAl?$AAo?$AAc?$AAi?$AA?9?$AA?$DO?$AAl?$AAc?$AA_?$AAc?$AAa?$AAt?$AAe?$AAg?$AAo?$AAr?$AAy?$AA?$FL?$AAc?$AAa?$AAt?$AAe?$AAg?$AAo?$AAr?$AAy?$AA?$FN?$AA?4@ 00000001800668d0     LIBCMTD:localref.obj
 0002:00002a70       ??_C@_1FC@HINIIGNO@?$AAf?$AA?3?$AA?2?$AAd?$AAd?$AA?2?$AAv?$AAc?$AAt?$AAo?$AAo?$AAl?$AAs?$AA?2?$AAc?$AAr?$AAt?$AA?2?$AAc?$AAr?$AAt?$AAw?$AA3?$AA2?$AA?2?$AAm?$AAi?$AAs?$AAc?$AA?2?$AAl?$AAo@ 0000000180066a70     LIBCMTD:localref.obj
 0002:00002ac4       ??_C@_03KOEHGMDN@Sun?$AA@  0000000180066ac4     LIBCMTD:nlsdata.obj
 0002:00002ac8       ??_C@_03PDAGKDH@Mon?$AA@   0000000180066ac8     LIBCMTD:nlsdata.obj
 0002:00002acc       ??_C@_03NAGEINEP@Tue?$AA@  0000000180066acc     LIBCMTD:nlsdata.obj
 0002:00002ad0       ??_C@_03MHOMLAJA@Wed?$AA@  0000000180066ad0     LIBCMTD:nlsdata.obj
 0002:00002ad4       ??_C@_03IOFIKPDN@Thu?$AA@  0000000180066ad4     LIBCMTD:nlsdata.obj
 0002:00002ad8       ??_C@_03IDIOELNC@Fri?$AA@  0000000180066ad8     LIBCMTD:nlsdata.obj
 0002:00002adc       ??_C@_03FEFJNEK@Sat?$AA@   0000000180066adc     LIBCMTD:nlsdata.obj
 0002:00002ae0       ??_C@_06OOPIFAJ@Sunday?$AA@ 0000000180066ae0     LIBCMTD:nlsdata.obj
 0002:00002ae8       ??_C@_06JLEDEDGH@Monday?$AA@ 0000000180066ae8     LIBCMTD:nlsdata.obj
 0002:00002af0       ??_C@_07BAAGCFCM@Tuesday?$AA@ 0000000180066af0     LIBCMTD:nlsdata.obj
 0002:00002af8       ??_C@_09DLIGFAKA@Wednesday?$AA@ 0000000180066af8     LIBCMTD:nlsdata.obj
 0002:00002b08       ??_C@_08HACCIKIA@Thursday?$AA@ 0000000180066b08     LIBCMTD:nlsdata.obj
 0002:00002b14       ??_C@_06JECMNKMI@Friday?$AA@ 0000000180066b14     LIBCMTD:nlsdata.obj
 0002:00002b20       ??_C@_08INBOOONO@Saturday?$AA@ 0000000180066b20     LIBCMTD:nlsdata.obj
 0002:00002b2c       ??_C@_03JIHJHPIE@Jan?$AA@  0000000180066b2c     LIBCMTD:nlsdata.obj
 0002:00002b30       ??_C@_03HJBDCHOM@Feb?$AA@  0000000180066b30     LIBCMTD:nlsdata.obj
 0002:00002b34       ??_C@_03ODNJBKGA@Mar?$AA@  0000000180066b34     LIBCMTD:nlsdata.obj
 0002:00002b38       ??_C@_03LEOLGMJP@Apr?$AA@  0000000180066b38     LIBCMTD:nlsdata.obj
 0002:00002b3c       ??_C@_03CNMDKL@May?$AA@    0000000180066b3c     LIBCMTD:nlsdata.obj
 0002:00002b40       ??_C@_03IDFGHECI@Jun?$AA@  0000000180066b40     LIBCMTD:nlsdata.obj
 0002:00002b44       ??_C@_03LBGABGKK@Jul?$AA@  0000000180066b44     LIBCMTD:nlsdata.obj
 0002:00002b48       ??_C@_03IFJFEIGA@Aug?$AA@  0000000180066b48     LIBCMTD:nlsdata.obj
 0002:00002b4c       ??_C@_03GGCAPAJC@Sep?$AA@  0000000180066b4c     LIBCMTD:nlsdata.obj
 0002:00002b50       ??_C@_03BMAOKBAD@Oct?$AA@  0000000180066b50     LIBCMTD:nlsdata.obj
 0002:00002b54       ??_C@_03JPJOFNIA@Nov?$AA@  0000000180066b54     LIBCMTD:nlsdata.obj
 0002:00002b58       ??_C@_03MKABNOCG@Dec?$AA@  0000000180066b58     LIBCMTD:nlsdata.obj
 0002:00002b60       ??_C@_07CGJPFGJA@January?$AA@ 0000000180066b60     LIBCMTD:nlsdata.obj
 0002:00002b68       ??_C@_08GNJGEPFN@February?$AA@ 0000000180066b68     LIBCMTD:nlsdata.obj
 0002:00002b74       ??_C@_05HPCKOFNC@March?$AA@ 0000000180066b74     LIBCMTD:nlsdata.obj
 0002:00002b7c       ??_C@_05DMJDNLEJ@April?$AA@ 0000000180066b7c     LIBCMTD:nlsdata.obj
 0002:00002b84       ??_C@_04CNLMGBGM@June?$AA@ 0000000180066b84     LIBCMTD:nlsdata.obj
 0002:00002b8c       ??_C@_04MIEPOIFP@July?$AA@ 0000000180066b8c     LIBCMTD:nlsdata.obj
 0002:00002b94       ??_C@_06LBBHFDDG@August?$AA@ 0000000180066b94     LIBCMTD:nlsdata.obj
 0002:00002ba0       ??_C@_09BHHEALKD@September?$AA@ 0000000180066ba0     LIBCMTD:nlsdata.obj
 0002:00002bb0       ??_C@_07JJNFCEND@October?$AA@ 0000000180066bb0     LIBCMTD:nlsdata.obj
 0002:00002bb8       ??_C@_08HCHEGEOA@November?$AA@ 0000000180066bb8     LIBCMTD:nlsdata.obj
 0002:00002bc8       ??_C@_08EDHMEBNP@December?$AA@ 0000000180066bc8     LIBCMTD:nlsdata.obj
 0002:00002bd4       ??_C@_02DEDBPAFC@AM?$AA@   0000000180066bd4     LIBCMTD:nlsdata.obj
 0002:00002bd8       ??_C@_02CJNFDJBF@PM?$AA@   0000000180066bd8     LIBCMTD:nlsdata.obj
 0002:00002be0       ??_C@_08BPBNCDIB@MM?1dd?1yy?$AA@ 0000000180066be0     LIBCMTD:nlsdata.obj
 0002:00002bf0       ??_C@_0BE@CKGJFCPC@dddd?0?5MMMM?5dd?0?5yyyy?$AA@ 0000000180066bf0     LIBCMTD:nlsdata.obj
 0002:00002c08       ??_C@_08JCCMCCIL@HH?3mm?3ss?$AA@ 0000000180066c08     LIBCMTD:nlsdata.obj
 0002:00002c18       ??_C@_17MBGCMIPB@?$AAS?$AAu?$AAn?$AA?$AA@ 0000000180066c18     LIBCMTD:nlsdata.obj
 0002:00002c20       ??_C@_17KBOMKBF@?$AAM?$AAo?$AAn?$AA?$AA@ 0000000180066c20     LIBCMTD:nlsdata.obj
 0002:00002c28       ??_C@_17BMKGEGOJ@?$AAT?$AAu?$AAe?$AA?$AA@ 0000000180066c28     LIBCMTD:nlsdata.obj
 0002:00002c30       ??_C@_17CJEDCEPE@?$AAW?$AAe?$AAd?$AA?$AA@ 0000000180066c30     LIBCMTD:nlsdata.obj
 0002:00002c38       ??_C@_17PDPHAADD@?$AAT?$AAh?$AAu?$AA?$AA@ 0000000180066c38     LIBCMTD:nlsdata.obj
 0002:00002c40       ??_C@_17HFOLPPLP@?$AAF?$AAr?$AAi?$AA?$AA@ 0000000180066c40     LIBCMTD:nlsdata.obj
 0002:00002c48       ??_C@_17GGIBDPIH@?$AAS?$AAa?$AAt?$AA?$AA@ 0000000180066c48     LIBCMTD:nlsdata.obj
 0002:00002c50       ??_C@_1O@IHNHDHPB@?$AAS?$AAu?$AAn?$AAd?$AAa?$AAy?$AA?$AA@ 0000000180066c50     LIBCMTD:nlsdata.obj
 0002:00002c60       ??_C@_1O@MMNBFLIA@?$AAM?$AAo?$AAn?$AAd?$AAa?$AAy?$AA?$AA@ 0000000180066c60     LIBCMTD:nlsdata.obj
 0002:00002c70       ??_C@_1BA@ENFBFFEK@?$AAT?$AAu?$AAe?$AAs?$AAd?$AAa?$AAy?$AA?$AA@ 0000000180066c70     LIBCMTD:nlsdata.obj
 0002:00002c80       ??_C@_1BE@EBOGMDOH@?$AAW?$AAe?$AAd?$AAn?$AAe?$AAs?$AAd?$AAa?$AAy?$AA?$AA@ 0000000180066c80     LIBCMTD:nlsdata.obj
 0002:00002c98       ??_C@_1BC@HHMNLIHE@?$AAT?$AAh?$AAu?$AAr?$AAs?$AAd?$AAa?$AAy?$AA?$AA@ 0000000180066c98     LIBCMTD:nlsdata.obj
 0002:00002cb0       ??_C@_1O@PDICJHAG@?$AAF?$AAr?$AAi?$AAd?$AAa?$AAy?$AA?$AA@ 0000000180066cb0     LIBCMTD:nlsdata.obj
 0002:00002cc0       ??_C@_1BC@ENMNNPAJ@?$AAS?$AAa?$AAt?$AAu?$AAr?$AAd?$AAa?$AAy?$AA?$AA@ 0000000180066cc0     LIBCMTD:nlsdata.obj
 0002:00002cd8       ??_C@_17DKNBKCHM@?$AAJ?$AAa?$AAn?$AA?$AA@ 0000000180066cd8     LIBCMTD:nlsdata.obj
 0002:00002ce0       ??_C@_17LMDJEKJN@?$AAF?$AAe?$AAb?$AA?$AA@ 0000000180066ce0     LIBCMTD:nlsdata.obj
 0002:00002ce8       ??_C@_17CKNLEDEC@?$AAM?$AAa?$AAr?$AA?$AA@ 0000000180066ce8     LIBCMTD:nlsdata.obj
 0002:00002cf0       ??_C@_17LFPOIHDD@?$AAA?$AAp?$AAr?$AA?$AA@ 0000000180066cf0     LIBCMTD:nlsdata.obj
 0002:00002cf8       ??_C@_17PNNKMEED@?$AAM?$AAa?$AAy?$AA?$AA@ 0000000180066cf8     LIBCMTD:nlsdata.obj
 0002:00002d00       ??_C@_17KCJGOCPB@?$AAJ?$AAu?$AAn?$AA?$AA@ 0000000180066d00     LIBCMTD:nlsdata.obj
 0002:00002d08       ??_C@_17IJPCKHK@?$AAJ?$AAu?$AAl?$AA?$AA@ 0000000180066d08     LIBCMTD:nlsdata.obj
 0002:00002d10       ??_C@_17ICPELBCN@?$AAA?$AAu?$AAg?$AA?$AA@ 0000000180066d10     LIBCMTD:nlsdata.obj
 0002:00002d18       ??_C@_17HCHCOKMG@?$AAS?$AAe?$AAp?$AA?$AA@ 0000000180066d18     LIBCMTD:nlsdata.obj
 0002:00002d20       ??_C@_17FNLKOI@?$AAO?$AAc?$AAt?$AA?$AA@ 0000000180066d20     LIBCMTD:nlsdata.obj
 0002:00002d28       ??_C@_17BBDMLCIG@?$AAN?$AAo?$AAv?$AA?$AA@ 0000000180066d28     LIBCMTD:nlsdata.obj
 0002:00002d30       ??_C@_17EGKACKIF@?$AAD?$AAe?$AAc?$AA?$AA@ 0000000180066d30     LIBCMTD:nlsdata.obj
 0002:00002d38       ??_C@_1BA@EFMEIEBA@?$AAJ?$AAa?$AAn?$AAu?$AAa?$AAr?$AAy?$AA?$AA@ 0000000180066d38     LIBCMTD:nlsdata.obj
 0002:00002d48       ??_C@_1BC@JGDDFFAM@?$AAF?$AAe?$AAb?$AAr?$AAu?$AAa?$AAr?$AAy?$AA?$AA@ 0000000180066d48     LIBCMTD:nlsdata.obj
 0002:00002d60       ??_C@_1M@IKEENEDF@?$AAM?$AAa?$AAr?$AAc?$AAh?$AA?$AA@ 0000000180066d60     LIBCMTD:nlsdata.obj
 0002:00002d70       ??_C@_1M@GJNLMHFD@?$AAA?$AAp?$AAr?$AAi?$AAl?$AA?$AA@ 0000000180066d70     LIBCMTD:nlsdata.obj
 0002:00002d80       ??_C@_19EPFLPGAP@?$AAJ?$AAu?$AAn?$AAe?$AA?$AA@ 0000000180066d80     LIBCMTD:nlsdata.obj
 0002:00002d90       ??_C@_19BIFMLPCD@?$AAJ?$AAu?$AAl?$AAy?$AA?$AA@ 0000000180066d90     LIBCMTD:nlsdata.obj
 0002:00002da0       ??_C@_1O@PAHLKOAC@?$AAA?$AAu?$AAg?$AAu?$AAs?$AAt?$AA?$AA@ 0000000180066da0     LIBCMTD:nlsdata.obj
 0002:00002db0       ??_C@_1BE@DKAAMBJL@?$AAS?$AAe?$AAp?$AAt?$AAe?$AAm?$AAb?$AAe?$AAr?$AA?$AA@ 0000000180066db0     LIBCMTD:nlsdata.obj
 0002:00002dc8       ??_C@_1BA@EPANDLNG@?$AAO?$AAc?$AAt?$AAo?$AAb?$AAe?$AAr?$AA?$AA@ 0000000180066dc8     LIBCMTD:nlsdata.obj
 0002:00002dd8       ??_C@_1BC@BGLIFPF@?$AAN?$AAo?$AAv?$AAe?$AAm?$AAb?$AAe?$AAr?$AA?$AA@ 0000000180066dd8     LIBCMTD:nlsdata.obj
 0002:00002df0       ??_C@_1BC@FEMKIFH@?$AAD?$AAe?$AAc?$AAe?$AAm?$AAb?$AAe?$AAr?$AA?$AA@ 0000000180066df0     LIBCMTD:nlsdata.obj
 0002:00002e04       ??_C@_15ODEHAHHF@?$AAA?$AAM?$AA?$AA@ 0000000180066e04     LIBCMTD:nlsdata.obj
 0002:00002e0c       ??_C@_15CLMNNGEL@?$AAP?$AAM?$AA?$AA@ 0000000180066e0c     LIBCMTD:nlsdata.obj
 0002:00002e18       ??_C@_1BC@IEBCMHCM@?$AAM?$AAM?$AA?1?$AAd?$AAd?$AA?1?$AAy?$AAy?$AA?$AA@ 0000000180066e18     LIBCMTD:nlsdata.obj
 0002:00002e30       ??_C@_1CI@KNAKOEBC@?$AAd?$AAd?$AAd?$AAd?$AA?0?$AA?5?$AAM?$AAM?$AAM?$AAM?$AA?5?$AAd?$AAd?$AA?0?$AA?5?$AAy?$AAy?$AAy?$AAy?$AA?$AA@ 0000000180066e30     LIBCMTD:nlsdata.obj
 0002:00002e58       ??_C@_1BC@GDGBMEMK@?$AAH?$AAH?$AA?3?$AAm?$AAm?$AA?3?$AAs?$AAs?$AA?$AA@ 0000000180066e58     LIBCMTD:nlsdata.obj
 0002:00002e70       ??_C@_1M@BMHNFIME@?$AAe?$AAn?$AA?9?$AAU?$AAS?$AA?$AA@ 0000000180066e70     LIBCMTD:nlsdata.obj
 0002:00002ea0       ??_C@_1M@HPNHIDJI@?$AAj?$AAa?$AA?9?$AAJ?$AAP?$AA?$AA@ 0000000180066ea0     LIBCMTD:mbctype.obj
 0002:00002eb0       ??_C@_1M@BIBDDEMK@?$AAz?$AAh?$AA?9?$AAC?$AAN?$AA?$AA@ 0000000180066eb0     LIBCMTD:mbctype.obj
 0002:00002ec0       ??_C@_1M@JLOOOEGK@?$AAk?$AAo?$AA?9?$AAK?$AAR?$AA?$AA@ 0000000180066ec0     LIBCMTD:mbctype.obj
 0002:00002ed0       ??_C@_1M@CLNBBOPM@?$AAz?$AAh?$AA?9?$AAT?$AAW?$AA?$AA@ 0000000180066ed0     LIBCMTD:mbctype.obj
 0002:00002f08       ??_C@_0CM@BEDCPGGG@f?3?2dd?2vctools?2crt?2crtw32?2mbstrin@ 0000000180066f08     LIBCMTD:mbctype.obj
 0002:00002f34       ??_C@_03KHJOGHMM@exp?$AA@  0000000180066f34     LIBCMTD:fpexcept.obj
 0002:00002f38       ??_C@_03JGHBODFD@pow?$AA@  0000000180066f38     LIBCMTD:fpexcept.obj
 0002:00002f3c       ??_C@_03MGHMBJCF@log?$AA@  0000000180066f3c     LIBCMTD:fpexcept.obj
 0002:00002f40       ??_C@_05HGHHAHAP@log10?$AA@ 0000000180066f40     LIBCMTD:fpexcept.obj
 0002:00002f48       ??_C@_04COOMCNPB@sinh?$AA@ 0000000180066f48     LIBCMTD:fpexcept.obj
 0002:00002f50       ??_C@_04HPJJNFIM@cosh?$AA@ 0000000180066f50     LIBCMTD:fpexcept.obj
 0002:00002f58       ??_C@_04FJHINJAO@tanh?$AA@ 0000000180066f58     LIBCMTD:fpexcept.obj
 0002:00002f60       ??_C@_04FIHNOPOL@asin?$AA@ 0000000180066f60     LIBCMTD:fpexcept.obj
 0002:00002f68       ??_C@_04PDIFKINK@acos?$AA@ 0000000180066f68     LIBCMTD:fpexcept.obj
 0002:00002f70       ??_C@_04MLLJIGOK@atan?$AA@ 0000000180066f70     LIBCMTD:fpexcept.obj
 0002:00002f78       ??_C@_05KNGEOGJB@atan2?$AA@ 0000000180066f78     LIBCMTD:fpexcept.obj
 0002:00002f80       ??_C@_04EIAKFFMI@sqrt?$AA@ 0000000180066f80     LIBCMTD:fpexcept.obj
 0002:00002f88       ??_C@_04GFPJNGEK@ceil?$AA@ 0000000180066f88     LIBCMTD:fpexcept.obj
 0002:00002f90       ??_C@_05PBJFFIGL@floor?$AA@ 0000000180066f90     LIBCMTD:fpexcept.obj
 0002:00002f98       ??_C@_04ODHECPBC@fabs?$AA@ 0000000180066f98     LIBCMTD:fpexcept.obj
 0002:00002fa0       ??_C@_04EHEDPDJG@modf?$AA@ 0000000180066fa0     LIBCMTD:fpexcept.obj
 0002:00002fa8       ??_C@_05CEJMAHNP@ldexp?$AA@ 0000000180066fa8     LIBCMTD:fpexcept.obj
 0002:00002fb0       ??_C@_05KBKMEMPO@_cabs?$AA@ 0000000180066fb0     LIBCMTD:fpexcept.obj
 0002:00002fb8       ??_C@_06MEIMCGCF@_hypot?$AA@ 0000000180066fb8     LIBCMTD:fpexcept.obj
 0002:00002fc0       ??_C@_04KEPJIHGP@fmod?$AA@ 0000000180066fc0     LIBCMTD:fpexcept.obj
 0002:00002fc8       ??_C@_05GKKHEGJL@frexp?$AA@ 0000000180066fc8     LIBCMTD:fpexcept.obj
 0002:00002fd0       ??_C@_03MJLDFKDL@_y0?$AA@  0000000180066fd0     LIBCMTD:fpexcept.obj
 0002:00002fd4       ??_C@_03NAKIGLHK@_y1?$AA@  0000000180066fd4     LIBCMTD:fpexcept.obj
 0002:00002fd8       ??_C@_03ONILCKOB@_yn?$AA@  0000000180066fd8     LIBCMTD:fpexcept.obj
 0002:00002fdc       ??_C@_05JGDBENOH@_logb?$AA@ 0000000180066fdc     LIBCMTD:fpexcept.obj
 0002:00002fe8       ??_C@_0L@KDOEJCKC@_nextafter?$AA@ 0000000180066fe8     LIBCMTD:fpexcept.obj
 0002:00003000       __xmm@80000000000000008000000000000000 0000000180067000     LIBCMTD:fpexcept.obj
 0002:00003010       ??_C@_1FC@NCPEPIBI@?$AA?$CI?$AA?$CI?$AA_?$AAD?$AAs?$AAt?$AA?$CJ?$AA?$CJ?$AA?5?$AA?$CB?$AA?$DN?$AA?5?$AAN?$AAU?$AAL?$AAL?$AA?5?$AA?$CG?$AA?$CG?$AA?5?$AA?$CI?$AA?$CI?$AA_?$AAS?$AAi?$AAz?$AAe?$AAI?$AAn?$AAB?$AAy?$AAt@ 0000000180067010     LIBCMTD:strcpy_s.obj
 0002:00003070       ??_C@_1FA@ILDLFIFE@?$AAf?$AA?3?$AA?2?$AAd?$AAd?$AA?2?$AAv?$AAc?$AAt?$AAo?$AAo?$AAl?$AAs?$AA?2?$AAc?$AAr?$AAt?$AA?2?$AAc?$AAr?$AAt?$AAw?$AA3?$AA2?$AA?2?$AAh?$AA?2?$AAt?$AAc?$AAs?$AAc?$AAp@ 0000000180067070     LIBCMTD:strcpy_s.obj
 0002:000030c0       ??_C@_1BC@CFJEPFGF@?$AAs?$AAt?$AAr?$AAc?$AAp?$AAy?$AA_?$AAs?$AA?$AA@ 00000001800670c0     LIBCMTD:strcpy_s.obj
 0002:000030d8       ??_C@_1CG@OFBJMIGJ@?$AA?$CI?$AA?$CI?$AA?$CI?$AA_?$AAS?$AAr?$AAc?$AA?$CJ?$AA?$CJ?$AA?$CJ?$AA?5?$AA?$CB?$AA?$DN?$AA?5?$AAN?$AAU?$AAL?$AAL?$AA?$AA@ 00000001800670d8     LIBCMTD:strcpy_s.obj
 0002:00003100       ??_C@_1CI@HCPHDDLE@?$AAB?$AAu?$AAf?$AAf?$AAe?$AAr?$AA?5?$AAi?$AAs?$AA?5?$AAt?$AAo?$AAo?$AA?5?$AAs?$AAm?$AAa?$AAl?$AAl?$AA?$AA@ 0000000180067100     LIBCMTD:strcpy_s.obj
 0002:00003128       ??_C@_1DM@MADKGDLO@?$AA?$CI?$AAL?$AA?$CC?$AAB?$AAu?$AAf?$AAf?$AAe?$AAr?$AA?5?$AAi?$AAs?$AA?5?$AAt?$AAo?$AAo?$AA?5?$AAs?$AAm?$AAa?$AAl?$AAl?$AA?$CC?$AA?5?$AA?$CG?$AA?$CG?$AA?5?$AA0?$AA?$CJ?$AA?$AA@ 0000000180067128     LIBCMTD:strcpy_s.obj
 0002:00003170       ??_C@_1FI@JBLIKEIM@?$AAf?$AA?3?$AA?2?$AAd?$AAd?$AA?2?$AAv?$AAc?$AAt?$AAo?$AAo?$AAl?$AAs?$AA?2?$AAc?$AAr?$AAt?$AA?2?$AAc?$AAr?$AAt?$AAw?$AA3?$AA2?$AA?2?$AAc?$AAo?$AAn?$AAv?$AAe?$AAr?$AAt@ 0000000180067170     LIBCMTD:_fptostr.obj
 0002:000031c8       ??_C@_1BC@OPALLEB@?$AA_?$AAf?$AAp?$AAt?$AAo?$AAs?$AAt?$AAr?$AA?$AA@ 00000001800671c8     LIBCMTD:_fptostr.obj
 0002:000031e0       ??_C@_1GM@CEDLGDDI@?$AAs?$AAi?$AAz?$AAe?$AAI?$AAn?$AAB?$AAy?$AAt?$AAe?$AAs?$AA?5?$AA?$DO?$AA?5?$AA?$CI?$AAs?$AAi?$AAz?$AAe?$AA_?$AAt?$AA?$CJ?$AA?$CI?$AA?$CI?$AAd?$AAi?$AAg?$AAi?$AAt?$AAs?$AA?5?$AA?$DO@ 00000001800671e0     LIBCMTD:_fptostr.obj
 0002:00003250       ??_C@_1BK@CLIEHFDF@?$AAp?$AAf?$AAl?$AAt?$AA?5?$AA?$CB?$AA?$DN?$AA?5?$AAN?$AAU?$AAL?$AAL?$AA?$AA@ 0000000180067250     LIBCMTD:_fptostr.obj
 0002:00003270       ??_C@_1EK@LJBJCHGA@?$AAf?$AA?3?$AA?2?$AAd?$AAd?$AA?2?$AAv?$AAc?$AAt?$AAo?$AAo?$AAl?$AAs?$AA?2?$AAc?$AAr?$AAt?$AA?2?$AAf?$AAp?$AAw?$AA3?$AA2?$AA?2?$AAc?$AAo?$AAn?$AAv?$AA?2?$AAc?$AAf?$AAo@ 0000000180067270     LIBCMTD:cfout.obj
 0002:000032c0       ??_C@_1BC@BPMMEHLK@?$AA_?$AAf?$AAl?$AAt?$AAo?$AAu?$AAt?$AA2?$AA?$AA@ 00000001800672c0     LIBCMTD:cfout.obj
 0002:000032e0       ??_C@_1FK@KODCOBKF@?$AAs?$AAt?$AAr?$AAc?$AAp?$AAy?$AA_?$AAs?$AA?$CI?$AAr?$AAe?$AAs?$AAu?$AAl?$AAt?$AAs?$AAt?$AAr?$AA?0?$AA?5?$AAr?$AAe?$AAs?$AAu?$AAl?$AAt?$AAs?$AAi?$AAz?$AAe?$AA?0?$AA?5@ 00000001800672e0     LIBCMTD:cfout.obj
 0002:00003358       ??_C@_1BA@GLMCNLEM@?$AAW?$AAa?$AAr?$AAn?$AAi?$AAn?$AAg?$AA?$AA@ 0000000180067358     LIBCMTD:dbgrptw.obj
 0002:00003368       ??_C@_1M@ILHOPKA@?$AAE?$AAr?$AAr?$AAo?$AAr?$AA?$AA@ 0000000180067368     LIBCMTD:dbgrptw.obj
 0002:00003378       ??_C@_1CC@CGHMNGDG@?$AAA?$AAs?$AAs?$AAe?$AAr?$AAt?$AAi?$AAo?$AAn?$AA?5?$AAF?$AAa?$AAi?$AAl?$AAe?$AAd?$AA?$AA@ 0000000180067378     LIBCMTD:dbgrptw.obj
 0002:000033a0       ??_C@_17LGKOMLJ@?$AA?4?$AA?4?$AA?4?$AA?$AA@ 00000001800673a0     LIBCMTD:dbgrptw.obj
 0002:000033b0       ??_C@_1HI@OFEHGPPC@?$AAm?$AAo?$AAd?$AAe?$AA?5?$AA?$DN?$AA?$DN?$AA?5?$AA_?$AAC?$AAR?$AAT?$AA_?$AAR?$AAP?$AAT?$AAH?$AAO?$AAO?$AAK?$AA_?$AAI?$AAN?$AAS?$AAT?$AAA?$AAL?$AAL?$AA?5?$AA?$HM?$AA?$HM?$AA?5@ 00000001800673b0     LIBCMTD:dbgrptw.obj
 0002:00003430       ??_C@_1EO@JACJHHCK@?$AAf?$AA?3?$AA?2?$AAd?$AAd?$AA?2?$AAv?$AAc?$AAt?$AAo?$AAo?$AAl?$AAs?$AA?2?$AAc?$AAr?$AAt?$AA?2?$AAc?$AAr?$AAt?$AAw?$AA3?$AA2?$AA?2?$AAm?$AAi?$AAs?$AAc?$AA?2?$AAd?$AAb@ 0000000180067430     LIBCMTD:dbgrptw.obj
 0002:00003480       ??_C@_1CI@IIHEAKEI@?$AA_?$AAC?$AAr?$AAt?$AAS?$AAe?$AAt?$AAR?$AAe?$AAp?$AAo?$AAr?$AAt?$AAH?$AAo?$AAo?$AAk?$AAW?$AA2?$AA?$AA@ 0000000180067480     LIBCMTD:dbgrptw.obj
 0002:000034a8       ??_C@_1CG@JBJEFOCM@?$AAp?$AAf?$AAn?$AAN?$AAe?$AAw?$AAH?$AAo?$AAo?$AAk?$AA?5?$AA?$CB?$AA?$DN?$AA?5?$AAN?$AAU?$AAL?$AAL?$AA?$AA@ 00000001800674a8     LIBCMTD:dbgrptw.obj
 0002:000034d0       ??_C@_1FI@PHIAFFHM@?$AA?$CI?$AA?$CC?$AAT?$AAh?$AAe?$AA?5?$AAh?$AAo?$AAo?$AAk?$AA?5?$AAf?$AAu?$AAn?$AAc?$AAt?$AAi?$AAo?$AAn?$AA?5?$AAi?$AAs?$AA?5?$AAn?$AAo?$AAt?$AA?5?$AAi?$AAn?$AA?5?$AAt?$AAh@ 00000001800674d0     LIBCMTD:dbgrptw.obj
 0002:00003528       ??_C@_0CH@BBGAHGHC@f?3?2dd?2vctools?2crt?2crtw32?2misc?2db@ 0000000180067528     LIBCMTD:dbgrptw.obj
 0002:00003550       ??_C@_1CI@PGJIFDEK@?$AA_?$AA_?$AAc?$AAr?$AAt?$AAM?$AAe?$AAs?$AAs?$AAa?$AAg?$AAe?$AAW?$AAi?$AAn?$AAd?$AAo?$AAw?$AAW?$AA?$AA@ 0000000180067550     LIBCMTD:dbgrptw.obj
 0002:00003580       ??_C@_1GI@DEDNNLCI@?$AAw?$AAc?$AAs?$AAc?$AAp?$AAy?$AA_?$AAs?$AA?$CI?$AAs?$AAz?$AAE?$AAx?$AAe?$AAN?$AAa?$AAm?$AAe?$AA?0?$AA?5?$AA2?$AA6?$AA0?$AA?0?$AA?5?$AAL?$AA?$CC?$AA?$DM?$AAp?$AAr?$AAo?$AAg@ 0000000180067580     LIBCMTD:dbgrptw.obj
 0002:000035e8       ??_C@_1CO@EAEJAADC@?$AA?$DM?$AAp?$AAr?$AAo?$AAg?$AAr?$AAa?$AAm?$AA?5?$AAn?$AAa?$AAm?$AAe?$AA?5?$AAu?$AAn?$AAk?$AAn?$AAo?$AAw?$AAn?$AA?$DO?$AA?$AA@ 00000001800675e8     LIBCMTD:dbgrptw.obj
 0002:00003620       ??_C@_1NO@LECLLHOL@?$AAm?$AAe?$AAm?$AAc?$AAp?$AAy?$AA_?$AAs?$AA?$CI?$AAs?$AAz?$AAS?$AAh?$AAo?$AAr?$AAt?$AAP?$AAr?$AAo?$AAg?$AAN?$AAa?$AAm?$AAe?$AA?0?$AA?5?$AAs?$AAi?$AAz?$AAe?$AAo?$AAf@ 0000000180067620     LIBCMTD:dbgrptw.obj
 0002:00003700       ??_C@_1OG@PMPPFHAF@?$AA?6?$AA?6?$AAF?$AAo?$AAr?$AA?5?$AAi?$AAn?$AAf?$AAo?$AAr?$AAm?$AAa?$AAt?$AAi?$AAo?$AAn?$AA?5?$AAo?$AAn?$AA?5?$AAh?$AAo?$AAw?$AA?5?$AAy?$AAo?$AAu?$AAr?$AA?5?$AAp?$AAr@ 0000000180067700     LIBCMTD:dbgrptw.obj
 0002:000037e8       ??_C@_11LOCGONAA@?$AA?$AA@ 00000001800677e8     LIBCMTD:dbgrptw.obj
 0002:000037f0       ??_C@_1BK@PEDCIPMA@?$AAE?$AAx?$AAp?$AAr?$AAe?$AAs?$AAs?$AAi?$AAo?$AAn?$AA?3?$AA?5?$AA?$AA@ 00000001800677f0     LIBCMTD:dbgrptw.obj
 0002:0000380c       ??_C@_15IABLJNFO@?$AA?6?$AA?6?$AA?$AA@ 000000018006780c     LIBCMTD:dbgrptw.obj
 0002:00003818       ??_C@_1BA@GLLGCPCK@?$AA?6?$AAL?$AAi?$AAn?$AAe?$AA?3?$AA?5?$AA?$AA@ 0000000180067818     LIBCMTD:dbgrptw.obj
 0002:00003828       ??_C@_1BA@LNHECFIM@?$AA?6?$AAF?$AAi?$AAl?$AAe?$AA?3?$AA?5?$AA?$AA@ 0000000180067828     LIBCMTD:dbgrptw.obj
 0002:00003838       ??_C@_1BE@CGCJKGHI@?$AA?6?$AAM?$AAo?$AAd?$AAu?$AAl?$AAe?$AA?3?$AA?5?$AA?$AA@ 0000000180067838     LIBCMTD:dbgrptw.obj
 0002:00003850       ??_C@_1KM@HNMIBKJH@?$AAD?$AAe?$AAb?$AAu?$AAg?$AA?5?$AA?$CF?$AAs?$AA?$CB?$AA?6?$AA?6?$AAP?$AAr?$AAo?$AAg?$AAr?$AAa?$AAm?$AA?3?$AA?5?$AA?$CF?$AAs?$AA?$CF?$AAs?$AA?$CF?$AAs?$AA?$CF?$AAs?$AA?$CF?$AAs?$AA?$CF?$AAs@ 0000000180067850     LIBCMTD:dbgrptw.obj
 0002:00003900       ??_C@_1JI@EACPGHID@?$AAw?$AAc?$AAs?$AAc?$AAp?$AAy?$AA_?$AAs?$AA?$CI?$AAs?$AAz?$AAO?$AAu?$AAt?$AAM?$AAe?$AAs?$AAs?$AAa?$AAg?$AAe?$AA?0?$AA?5?$AA4?$AA0?$AA9?$AA6?$AA?0?$AA?5?$AAL?$AA?$CC?$AA_@ 0000000180067900     LIBCMTD:dbgrptw.obj
 0002:000039a0       ??_C@_1FG@BBOLDHGF@?$AA_?$AAC?$AAr?$AAt?$AAD?$AAb?$AAg?$AAR?$AAe?$AAp?$AAo?$AAr?$AAt?$AA?3?$AA?5?$AAS?$AAt?$AAr?$AAi?$AAn?$AAg?$AA?5?$AAt?$AAo?$AAo?$AA?5?$AAl?$AAo?$AAn?$AAg?$AA?5?$AAo@ 00000001800679a0     LIBCMTD:dbgrptw.obj
 0002:00003a00       ??_C@_1EK@MBDPDCGA@?$AAM?$AAi?$AAc?$AAr?$AAo?$AAs?$AAo?$AAf?$AAt?$AA?5?$AAV?$AAi?$AAs?$AAu?$AAa?$AAl?$AA?5?$AAC?$AA?$CL?$AA?$CL?$AA?5?$AAR?$AAu?$AAn?$AAt?$AAi?$AAm?$AAe?$AA?5?$AAL?$AAi?$AAb@ 0000000180067a00     LIBCMTD:dbgrptw.obj
 0002:00003a50       ??_C@_1EM@EGEEBJLG@?$AA?$CI?$AAo?$AAp?$AAt?$AAi?$AAo?$AAn?$AAs?$AA?5?$AA?$CG?$AA?5?$AA?$HO?$AA_?$AAT?$AAW?$AAO?$AA_?$AAD?$AAI?$AAG?$AAI?$AAT?$AA_?$AAE?$AAX?$AAP?$AAO?$AAN?$AAE?$AAN?$AAT?$AA?$CJ@ 0000000180067a50     LIBCMTD:outputformat.obj
 0002:00003aa0       ??_C@_1FM@FBHCILLE@?$AAf?$AA?3?$AA?2?$AAd?$AAd?$AA?2?$AAv?$AAc?$AAt?$AAo?$AAo?$AAl?$AAs?$AA?2?$AAc?$AAr?$AAt?$AA?2?$AAc?$AAr?$AAt?$AAw?$AA3?$AA2?$AA?2?$AAs?$AAt?$AAd?$AAi?$AAo?$AA?2?$AAo@ 0000000180067aa0     LIBCMTD:outputformat.obj
 0002:00003b00       ??_C@_1CG@EBJECAJM@?$AA_?$AAs?$AAe?$AAt?$AA_?$AAo?$AAu?$AAt?$AAp?$AAu?$AAt?$AA_?$AAf?$AAo?$AAr?$AAm?$AAa?$AAt?$AA?$AA@ 0000000180067b00     LIBCMTD:outputformat.obj
 0002:00003ca0       ??_C@_1FK@PGACCAFB@?$AAR?$AA6?$AA0?$AA0?$AA2?$AA?$AN?$AA?6?$AA?9?$AA?5?$AAf?$AAl?$AAo?$AAa?$AAt?$AAi?$AAn?$AAg?$AA?5?$AAp?$AAo?$AAi?$AAn?$AAt?$AA?5?$AAs?$AAu?$AAp?$AAp?$AAo?$AAr?$AAt?$AA?5@ 0000000180067ca0     LIBCMTD:crt0msg.obj
 0002:00003d00       ??_C@_1FE@LLNEDJMD@?$AAR?$AA6?$AA0?$AA0?$AA8?$AA?$AN?$AA?6?$AA?9?$AA?5?$AAn?$AAo?$AAt?$AA?5?$AAe?$AAn?$AAo?$AAu?$AAg?$AAh?$AA?5?$AAs?$AAp?$AAa?$AAc?$AAe?$AA?5?$AAf?$AAo?$AAr?$AA?5?$AAa?$AAr@ 0000000180067d00     LIBCMTD:crt0msg.obj
 0002:00003d60       ??_C@_1FI@HONFMGBI@?$AAR?$AA6?$AA0?$AA0?$AA9?$AA?$AN?$AA?6?$AA?9?$AA?5?$AAn?$AAo?$AAt?$AA?5?$AAe?$AAn?$AAo?$AAu?$AAg?$AAh?$AA?5?$AAs?$AAp?$AAa?$AAc?$AAe?$AA?5?$AAf?$AAo?$AAr?$AA?5?$AAe?$AAn@ 0000000180067d60     LIBCMTD:crt0msg.obj
 0002:00003dc0       ??_C@_1EG@BEHAGFJD@?$AAR?$AA6?$AA0?$AA1?$AA0?$AA?$AN?$AA?6?$AA?9?$AA?5?$AAa?$AAb?$AAo?$AAr?$AAt?$AA?$CI?$AA?$CJ?$AA?5?$AAh?$AAa?$AAs?$AA?5?$AAb?$AAe?$AAe?$AAn?$AA?5?$AAc?$AAa?$AAl?$AAl?$AAe?$AAd@ 0000000180067dc0     LIBCMTD:crt0msg.obj
 0002:00003e10       ??_C@_1FI@LOGNIKDM@?$AAR?$AA6?$AA0?$AA1?$AA6?$AA?$AN?$AA?6?$AA?9?$AA?5?$AAn?$AAo?$AAt?$AA?5?$AAe?$AAn?$AAo?$AAu?$AAg?$AAh?$AA?5?$AAs?$AAp?$AAa?$AAc?$AAe?$AA?5?$AAf?$AAo?$AAr?$AA?5?$AAt?$AAh@ 0000000180067e10     LIBCMTD:crt0msg.obj
 0002:00003e70       ??_C@_1FK@BEOGODMC@?$AAR?$AA6?$AA0?$AA1?$AA7?$AA?$AN?$AA?6?$AA?9?$AA?5?$AAu?$AAn?$AAe?$AAx?$AAp?$AAe?$AAc?$AAt?$AAe?$AAd?$AA?5?$AAm?$AAu?$AAl?$AAt?$AAi?$AAt?$AAh?$AAr?$AAe?$AAa?$AAd?$AA?5@ 0000000180067e70     LIBCMTD:crt0msg.obj
 0002:00003ed0       ??_C@_1EC@JIBHAOPH@?$AAR?$AA6?$AA0?$AA1?$AA8?$AA?$AN?$AA?6?$AA?9?$AA?5?$AAu?$AAn?$AAe?$AAx?$AAp?$AAe?$AAc?$AAt?$AAe?$AAd?$AA?5?$AAh?$AAe?$AAa?$AAp?$AA?5?$AAe?$AAr?$AAr?$AAo?$AAr?$AA?$AN?$AA?6@ 0000000180067ed0     LIBCMTD:crt0msg.obj
 0002:00003f20       ??_C@_1FC@ECHBIFBC@?$AAR?$AA6?$AA0?$AA1?$AA9?$AA?$AN?$AA?6?$AA?9?$AA?5?$AAu?$AAn?$AAa?$AAb?$AAl?$AAe?$AA?5?$AAt?$AAo?$AA?5?$AAo?$AAp?$AAe?$AAn?$AA?5?$AAc?$AAo?$AAn?$AAs?$AAo?$AAl?$AAe?$AA?5@ 0000000180067f20     LIBCMTD:crt0msg.obj
 0002:00003f80       ??_C@_1GK@FHCKBEFA@?$AAR?$AA6?$AA0?$AA2?$AA4?$AA?$AN?$AA?6?$AA?9?$AA?5?$AAn?$AAo?$AAt?$AA?5?$AAe?$AAn?$AAo?$AAu?$AAg?$AAh?$AA?5?$AAs?$AAp?$AAa?$AAc?$AAe?$AA?5?$AAf?$AAo?$AAr?$AA?5?$AA_?$AAo@ 0000000180067f80     LIBCMTD:crt0msg.obj
 0002:00003ff0       ??_C@_1EM@MAADIHMB@?$AAR?$AA6?$AA0?$AA2?$AA5?$AA?$AN?$AA?6?$AA?9?$AA?5?$AAp?$AAu?$AAr?$AAe?$AA?5?$AAv?$AAi?$AAr?$AAt?$AAu?$AAa?$AAl?$AA?5?$AAf?$AAu?$AAn?$AAc?$AAt?$AAi?$AAo?$AAn?$AA?5?$AAc@ 0000000180067ff0     LIBCMTD:crt0msg.obj
 0002:00004040       ??_C@_1GK@MCAAGJMO@?$AAR?$AA6?$AA0?$AA2?$AA6?$AA?$AN?$AA?6?$AA?9?$AA?5?$AAn?$AAo?$AAt?$AA?5?$AAe?$AAn?$AAo?$AAu?$AAg?$AAh?$AA?5?$AAs?$AAp?$AAa?$AAc?$AAe?$AA?5?$AAf?$AAo?$AAr?$AA?5?$AAs?$AAt@ 0000000180068040     LIBCMTD:crt0msg.obj
 0002:000040b0       ??_C@_1GK@MFGOKLAG@?$AAR?$AA6?$AA0?$AA2?$AA7?$AA?$AN?$AA?6?$AA?9?$AA?5?$AAn?$AAo?$AAt?$AA?5?$AAe?$AAn?$AAo?$AAu?$AAg?$AAh?$AA?5?$AAs?$AAp?$AAa?$AAc?$AAe?$AA?5?$AAf?$AAo?$AAr?$AA?5?$AAl?$AAo@ 00000001800680b0     LIBCMTD:crt0msg.obj
 0002:00004120       ??_C@_1EK@HHFLMAOL@?$AAR?$AA6?$AA0?$AA2?$AA8?$AA?$AN?$AA?6?$AA?9?$AA?5?$AAu?$AAn?$AAa?$AAb?$AAl?$AAe?$AA?5?$AAt?$AAo?$AA?5?$AAi?$AAn?$AAi?$AAt?$AAi?$AAa?$AAl?$AAi?$AAz?$AAe?$AA?5?$AAh?$AAe@ 0000000180068120     LIBCMTD:crt0msg.obj
 0002:00004170       ??_C@_1DO@BMFCDCD@?$AAR?$AA6?$AA0?$AA3?$AA0?$AA?$AN?$AA?6?$AA?9?$AA?5?$AAC?$AAR?$AAT?$AA?5?$AAn?$AAo?$AAt?$AA?5?$AAi?$AAn?$AAi?$AAt?$AAi?$AAa?$AAl?$AAi?$AAz?$AAe?$AAd?$AA?$AN?$AA?6?$AA?$AA@ 0000000180068170     LIBCMTD:crt0msg.obj
 0002:000041b0       ??_C@_1MG@ENCOOIDF@?$AAR?$AA6?$AA0?$AA3?$AA1?$AA?$AN?$AA?6?$AA?9?$AA?5?$AAA?$AAt?$AAt?$AAe?$AAm?$AAp?$AAt?$AA?5?$AAt?$AAo?$AA?5?$AAi?$AAn?$AAi?$AAt?$AAi?$AAa?$AAl?$AAi?$AAz?$AAe?$AA?5?$AAt@ 00000001800681b0     LIBCMTD:crt0msg.obj
 0002:00004280       ??_C@_1GG@GOPILAJP@?$AAR?$AA6?$AA0?$AA3?$AA2?$AA?$AN?$AA?6?$AA?9?$AA?5?$AAn?$AAo?$AAt?$AA?5?$AAe?$AAn?$AAo?$AAu?$AAg?$AAh?$AA?5?$AAs?$AAp?$AAa?$AAc?$AAe?$AA?5?$AAf?$AAo?$AAr?$AA?5?$AAl?$AAo@ 0000000180068280     LIBCMTD:crt0msg.obj
 0002:000042f0       ??_C@_1BOO@KGEDBGAJ@?$AAR?$AA6?$AA0?$AA3?$AA3?$AA?$AN?$AA?6?$AA?9?$AA?5?$AAA?$AAt?$AAt?$AAe?$AAm?$AAp?$AAt?$AA?5?$AAt?$AAo?$AA?5?$AAu?$AAs?$AAe?$AA?5?$AAM?$AAS?$AAI?$AAL?$AA?5?$AAc?$AAo?$AAd@ 00000001800682f0     LIBCMTD:crt0msg.obj
 0002:000044e0       ??_C@_1GG@MKFPEKFO@?$AAR?$AA6?$AA0?$AA3?$AA4?$AA?$AN?$AA?6?$AA?9?$AA?5?$AAi?$AAn?$AAc?$AAo?$AAn?$AAs?$AAi?$AAs?$AAt?$AAe?$AAn?$AAt?$AA?5?$AAo?$AAn?$AAe?$AAx?$AAi?$AAt?$AA?5?$AAb?$AAe?$AAg@ 00000001800684e0     LIBCMTD:crt0msg.obj
 0002:00004548       ??_C@_1BO@BFCDCGC@?$AAD?$AAO?$AAM?$AAA?$AAI?$AAN?$AA?5?$AAe?$AAr?$AAr?$AAo?$AAr?$AA?$AN?$AA?6?$AA?$AA@ 0000000180068548     LIBCMTD:crt0msg.obj
 0002:00004568       ??_C@_1BK@KMOMNAAI@?$AAS?$AAI?$AAN?$AAG?$AA?5?$AAe?$AAr?$AAr?$AAo?$AAr?$AA?$AN?$AA?6?$AA?$AA@ 0000000180068568     LIBCMTD:crt0msg.obj
 0002:00004588       ??_C@_1BM@JBBEPPHI@?$AAT?$AAL?$AAO?$AAS?$AAS?$AA?5?$AAe?$AAr?$AAr?$AAo?$AAr?$AA?$AN?$AA?6?$AA?$AA@ 0000000180068588     LIBCMTD:crt0msg.obj
 0002:000045a4       ??_C@_15JNBOKNOG@?$AA?$AN?$AA?6?$AA?$AA@ 00000001800685a4     LIBCMTD:crt0msg.obj
 0002:000045b0       ??_C@_1BO@BKOMIGKJ@?$AAr?$AAu?$AAn?$AAt?$AAi?$AAm?$AAe?$AA?5?$AAe?$AAr?$AAr?$AAo?$AAr?$AA?5?$AA?$AA@ 00000001800685b0     LIBCMTD:crt0msg.obj
 0002:000045d0       ??_C@_1FG@ILOHEEMG@?$AAf?$AA?3?$AA?2?$AAd?$AAd?$AA?2?$AAv?$AAc?$AAt?$AAo?$AAo?$AAl?$AAs?$AA?2?$AAc?$AAr?$AAt?$AA?2?$AAc?$AAr?$AAt?$AAw?$AA3?$AA2?$AA?2?$AAs?$AAt?$AAa?$AAr?$AAt?$AAu?$AAp@ 00000001800685d0     LIBCMTD:crt0msg.obj
 0002:00004628       ??_C@_1BI@EAHMBMEC@?$AA_?$AAN?$AAM?$AAS?$AAG?$AA_?$AAW?$AAR?$AAI?$AAT?$AAE?$AA?$AA@ 0000000180068628     LIBCMTD:crt0msg.obj
 0002:00004640       ??_C@_1KO@BKLCKNFL@?$AAw?$AAc?$AAs?$AAc?$AAp?$AAy?$AA_?$AAs?$AA?$CI?$AAo?$AAu?$AAt?$AAm?$AAs?$AAg?$AA?0?$AA?5?$AA?$CI?$AAs?$AAi?$AAz?$AAe?$AAo?$AAf?$AA?$CI?$AAo?$AAu?$AAt?$AAm?$AAs?$AAg?$AA?$CJ@ 0000000180068640     LIBCMTD:crt0msg.obj
 0002:000046f0       ??_C@_1DE@JNGNBFGO@?$AAR?$AAu?$AAn?$AAt?$AAi?$AAm?$AAe?$AA?5?$AAE?$AAr?$AAr?$AAo?$AAr?$AA?$CB?$AA?6?$AA?6?$AAP?$AAr?$AAo?$AAg?$AAr?$AAa?$AAm?$AA?3?$AA?5?$AA?$AA@ 00000001800686f0     LIBCMTD:crt0msg.obj
 0002:00004730       ??_C@_1HK@FJJNAABO@?$AAw?$AAc?$AAs?$AAc?$AAp?$AAy?$AA_?$AAs?$AA?$CI?$AAp?$AAr?$AAo?$AAg?$AAn?$AAa?$AAm?$AAe?$AA?0?$AA?5?$AAp?$AAr?$AAo?$AAg?$AAn?$AAa?$AAm?$AAe?$AA_?$AAs?$AAi?$AAz?$AAe@ 0000000180068730     LIBCMTD:crt0msg.obj
 0002:000047b0       ??_C@_1HI@FLHKGEBE@?$AAw?$AAc?$AAs?$AAn?$AAc?$AAp?$AAy?$AA_?$AAs?$AA?$CI?$AAp?$AAc?$AAh?$AA?0?$AA?5?$AAp?$AAr?$AAo?$AAg?$AAn?$AAa?$AAm?$AAe?$AA_?$AAs?$AAi?$AAz?$AAe?$AA?5?$AA?9?$AA?5?$AA?$CI@ 00000001800687b0     LIBCMTD:crt0msg.obj
 0002:00004830       ??_C@_1IA@DCJGKHFO@?$AAw?$AAc?$AAs?$AAc?$AAa?$AAt?$AA_?$AAs?$AA?$CI?$AAo?$AAu?$AAt?$AAm?$AAs?$AAg?$AA?0?$AA?5?$AA?$CI?$AAs?$AAi?$AAz?$AAe?$AAo?$AAf?$AA?$CI?$AAo?$AAu?$AAt?$AAm?$AAs?$AAg?$AA?$CJ@ 0000000180068830     LIBCMTD:crt0msg.obj
 0002:000048b0       ??_C@_1IG@NMONDPP@?$AAw?$AAc?$AAs?$AAc?$AAa?$AAt?$AA_?$AAs?$AA?$CI?$AAo?$AAu?$AAt?$AAm?$AAs?$AAg?$AA?0?$AA?5?$AA?$CI?$AAs?$AAi?$AAz?$AAe?$AAo?$AAf?$AA?$CI?$AAo?$AAu?$AAt?$AAm?$AAs?$AAg?$AA?$CJ@ 00000001800688b0     LIBCMTD:crt0msg.obj
 0002:00004938       ??_C@_0CH@JPGODKFM@f?3?2dd?2vctools?2crt?2crtw32?2misc?2on@ 0000000180068938     LIBCMTD:onexit.obj
 0002:00004960       ??_C@_1BC@JLLICHIC@?$AAp?$AAn?$AAh?$AA?5?$AA?$DN?$AA?$DN?$AA?5?$AA0?$AA?$AA@ 0000000180068960     LIBCMTD:handler.obj
 0002:00004980       ??_C@_1FE@HELBPGKC@?$AAf?$AA?3?$AA?2?$AAd?$AAd?$AA?2?$AAv?$AAc?$AAt?$AAo?$AAo?$AAl?$AAs?$AA?2?$AAc?$AAr?$AAt?$AA?2?$AAc?$AAr?$AAt?$AAw?$AA3?$AA2?$AA?2?$AAh?$AAe?$AAa?$AAp?$AA?2?$AAh?$AAa@ 0000000180068980     LIBCMTD:handler.obj
 0002:000049d8       ??_C@_0CJ@PLENACMA@f?3?2dd?2vctools?2crt?2crtw32?2misc?2in@ 00000001800689d8     LIBCMTD:inithelp.obj
 0002:00004a10       ??_C@_1FC@PPCAPEFB@?$AAf?$AA?3?$AA?2?$AAd?$AAd?$AA?2?$AAv?$AAc?$AAt?$AAo?$AAo?$AAl?$AAs?$AA?2?$AAc?$AAr?$AAt?$AA?2?$AAc?$AAr?$AAt?$AAw?$AA3?$AA2?$AA?2?$AAm?$AAi?$AAs?$AAc?$AA?2?$AAi?$AAn@ 0000000180068a10     LIBCMTD:inithelp.obj
 0002:00004a68       ??_C@_1CA@KHHCPEI@?$AA_?$AA_?$AAg?$AAe?$AAt?$AAl?$AAo?$AAc?$AAa?$AAl?$AAe?$AAi?$AAn?$AAf?$AAo?$AA?$AA@ 0000000180068a68     LIBCMTD:inithelp.obj
 0002:00004a90       ??_C@_1GO@NGIGJNHH@?$AAs?$AAt?$AAr?$AAn?$AAc?$AAp?$AAy?$AA_?$AAs?$AA?$CI?$AA?$CK?$AAs?$AAt?$AAr?$AAa?$AAd?$AAd?$AAr?$AAe?$AAs?$AAs?$AA?0?$AA?5?$AAo?$AAu?$AAt?$AAs?$AAi?$AAz?$AAe?$AA?0?$AA?5@ 0000000180068a90     LIBCMTD:inithelp.obj
 0002:00004b00       ??_C@_0CH@KINPIPGE@f?3?2dd?2vctools?2crt?2crtw32?2misc?2wi@ 0000000180068b00     LIBCMTD:winsig.obj
 0002:00004b28       ??_C@_1DO@MLNEDKGB@?$AA?$CI?$AA?$CC?$AAI?$AAn?$AAv?$AAa?$AAl?$AAi?$AAd?$AA?5?$AAs?$AAi?$AAg?$AAn?$AAa?$AAl?$AA?5?$AAo?$AAr?$AA?5?$AAe?$AAr?$AAr?$AAo?$AAr?$AA?$CC?$AA?0?$AA?5?$AA0?$AA?$CJ?$AA?$AA@ 0000000180068b28     LIBCMTD:winsig.obj
 0002:00004b70       ??_C@_1EO@BCKLPCCI@?$AAf?$AA?3?$AA?2?$AAd?$AAd?$AA?2?$AAv?$AAc?$AAt?$AAo?$AAo?$AAl?$AAs?$AA?2?$AAc?$AAr?$AAt?$AA?2?$AAc?$AAr?$AAt?$AAw?$AA3?$AA2?$AA?2?$AAm?$AAi?$AAs?$AAc?$AA?2?$AAw?$AAi@ 0000000180068b70     LIBCMTD:winsig.obj
 0002:00004bc0       ??_C@_1O@EJLDHPPL@?$AAs?$AAi?$AAg?$AAn?$AAa?$AAl?$AA?$AA@ 0000000180068bc0     LIBCMTD:winsig.obj
 0002:00004bd0       ??_C@_1M@DMJEIKHL@?$AAr?$AAa?$AAi?$AAs?$AAe?$AA?$AA@ 0000000180068bd0     LIBCMTD:winsig.obj
 0002:00004be0       ??_C@_1CK@GFDNDKK@?$AA_?$AAR?$AAa?$AAn?$AAd?$AAo?$AAm?$AAV?$AAa?$AAl?$AAu?$AAe?$AA?5?$AA?$CB?$AA?$DN?$AA?5?$AAN?$AAU?$AAL?$AAL?$AA?$AA@ 0000000180068be0     LIBCMTD:rand_s.obj
 0002:00004c10       ??_C@_1EO@GANOMFFN@?$AAf?$AA?3?$AA?2?$AAd?$AAd?$AA?2?$AAv?$AAc?$AAt?$AAo?$AAo?$AAl?$AAs?$AA?2?$AAc?$AAr?$AAt?$AA?2?$AAc?$AAr?$AAt?$AAw?$AA3?$AA2?$AA?2?$AAm?$AAi?$AAs?$AAc?$AA?2?$AAr?$AAa@ 0000000180068c10     LIBCMTD:rand_s.obj
 0002:00004c60       ??_C@_1O@IJGPPOGF@?$AAr?$AAa?$AAn?$AAd?$AA_?$AAs?$AA?$AA@ 0000000180068c60     LIBCMTD:rand_s.obj
 0002:00004c70       ??_C@_1BK@GAEMIDIL@?$AAA?$AAD?$AAV?$AAA?$AAP?$AAI?$AA3?$AA2?$AA?4?$AAD?$AAL?$AAL?$AA?$AA@ 0000000180068c70     LIBCMTD:rand_s.obj
 0002:00004c90       ??_C@_1GA@EBEDGGGB@?$AA?$CI?$AA?$CC?$AAr?$AAa?$AAn?$AAd?$AA_?$AAs?$AA?5?$AAi?$AAs?$AA?5?$AAn?$AAo?$AAt?$AA?5?$AAa?$AAv?$AAa?$AAi?$AAl?$AAa?$AAb?$AAl?$AAe?$AA?5?$AAo?$AAn?$AA?5?$AAt?$AAh?$AAi@ 0000000180068c90     LIBCMTD:rand_s.obj
 0002:00004cf0       ??_C@_0BC@JEAENNKH@SystemFunction036?$AA@ 0000000180068cf0     LIBCMTD:rand_s.obj
 0002:00004d08       ??_C@_1BI@MFCLPIBM@?$AAs?$AAt?$AAr?$AA?5?$AA?$CB?$AA?$DN?$AA?5?$AAN?$AAU?$AAL?$AAL?$AA?$AA@ 0000000180068d08     LIBCMTD:_sftbuf.obj
 0002:00004d20       ??_C@_1FC@LKGACDMH@?$AAf?$AA?3?$AA?2?$AAd?$AAd?$AA?2?$AAv?$AAc?$AAt?$AAo?$AAo?$AAl?$AAs?$AA?2?$AAc?$AAr?$AAt?$AA?2?$AAc?$AAr?$AAt?$AAw?$AA3?$AA2?$AA?2?$AAs?$AAt?$AAd?$AAi?$AAo?$AA?2?$AA_@ 0000000180068d20     LIBCMTD:_sftbuf.obj
 0002:00004d78       ??_C@_0CJ@KDJGPIJL@f?3?2dd?2vctools?2crt?2crtw32?2stdio?2_@ 0000000180068d78     LIBCMTD:_sftbuf.obj
 0002:00004da8       ??_C@_1CO@KCKAACMI@?$AAf?$AAl?$AAa?$AAg?$AA?5?$AA?$DN?$AA?$DN?$AA?5?$AA0?$AA?5?$AA?$HM?$AA?$HM?$AA?5?$AAf?$AAl?$AAa?$AAg?$AA?5?$AA?$DN?$AA?$DN?$AA?5?$AA1?$AA?$AA@ 0000000180068da8     LIBCMTD:_sftbuf.obj
 0002:00004dd8       ??_C@_0CH@FPHLCLAF@f?3?2dd?2vctools?2crt?2crtw32?2stdio?2_@ 0000000180068dd8     LIBCMTD:_file.obj
 0002:00004e28       ??_C@_1CI@JELMFMDH@?$AAc?$AA?5?$AA?$DO?$AA?$DN?$AA?5?$AA?9?$AA1?$AA?5?$AA?$CG?$AA?$CG?$AA?5?$AAc?$AA?5?$AA?$DM?$AA?$DN?$AA?5?$AA2?$AA5?$AA5?$AA?$AA@ 0000000180068e28     LIBCMTD:isctype.obj
 0002:00004e50       ??_C@_1FG@IBFIOCOE@?$AAf?$AA?3?$AA?2?$AAd?$AAd?$AA?2?$AAv?$AAc?$AAt?$AAo?$AAo?$AAl?$AAs?$AA?2?$AAc?$AAr?$AAt?$AA?2?$AAc?$AAr?$AAt?$AAw?$AA3?$AA2?$AA?2?$AAc?$AAo?$AAn?$AAv?$AAe?$AAr?$AAt@ 0000000180068e50     LIBCMTD:isctype.obj
 0002:00004ea8       ??_C@_1BO@KFIJIAEA@?$AAp?$AAB?$AAl?$AAo?$AAc?$AAk?$AA?5?$AA?$CB?$AA?$DN?$AA?5?$AAN?$AAU?$AAL?$AAL?$AA?$AA@ 0000000180068ea8     LIBCMTD:expand.obj
 0002:00004ed0       ??_C@_1EO@BOMKIKJB@?$AAf?$AA?3?$AA?2?$AAd?$AAd?$AA?2?$AAv?$AAc?$AAt?$AAo?$AAo?$AAl?$AAs?$AA?2?$AAc?$AAr?$AAt?$AA?2?$AAc?$AAr?$AAt?$AAw?$AA3?$AA2?$AA?2?$AAh?$AAe?$AAa?$AAp?$AA?2?$AAe?$AAx@ 0000000180068ed0     LIBCMTD:expand.obj
 0002:00004f20       ??_C@_1BK@JMCGJOCC@?$AA_?$AAe?$AAx?$AAp?$AAa?$AAn?$AAd?$AA_?$AAb?$AAa?$AAs?$AAe?$AA?$AA@ 0000000180068f20     LIBCMTD:expand.obj
 0002:00004f58       ??_C@_03KHICJKCI@?4?4?4?$AA@ 0000000180068f58     LIBCMTD:dbgrpt.obj
 0002:00004f60       ??_C@_1CG@GNMJDMIO@?$AA_?$AAC?$AAr?$AAt?$AAS?$AAe?$AAt?$AAR?$AAe?$AAp?$AAo?$AAr?$AAt?$AAH?$AAo?$AAo?$AAk?$AA2?$AA?$AA@ 0000000180068f60     LIBCMTD:dbgrpt.obj
 0002:00004f88       ??_C@_1CI@IDOKFLAJ@?$AA_?$AA_?$AAc?$AAr?$AAt?$AAM?$AAe?$AAs?$AAs?$AAa?$AAg?$AAe?$AAW?$AAi?$AAn?$AAd?$AAo?$AAw?$AAA?$AA?$AA@ 0000000180068f88     LIBCMTD:dbgrpt.obj
 0002:00004fb0       ??_C@_1GG@DLDHOIGE@?$AAs?$AAt?$AAr?$AAc?$AAp?$AAy?$AA_?$AAs?$AA?$CI?$AAs?$AAz?$AAE?$AAx?$AAe?$AAN?$AAa?$AAm?$AAe?$AA?0?$AA?5?$AA2?$AA6?$AA0?$AA?0?$AA?5?$AA?$CC?$AA?$DM?$AAp?$AAr?$AAo?$AAg?$AAr@ 0000000180068fb0     LIBCMTD:dbgrpt.obj
 0002:00005018       ??_C@_0BH@DNAGHKFM@?$DMprogram?5name?5unknown?$DO?$AA@ 0000000180069018     LIBCMTD:dbgrpt.obj
 0002:0000502f       ??_C@_00CNPNBAHC@?$AA@     000000018006902f     LIBCMTD:dbgrpt.obj
 0002:00005030       ??_C@_1LG@BEHAHJLI@?$AAD?$AAe?$AAb?$AAu?$AAg?$AA?5?$AA?$CF?$AAs?$AA?$CB?$AA?6?$AA?6?$AAP?$AAr?$AAo?$AAg?$AAr?$AAa?$AAm?$AA?3?$AA?5?$AA?$CF?$AAh?$AAs?$AA?$CF?$AAs?$AA?$CF?$AAs?$AA?$CF?$AAh?$AAs?$AA?$CF?$AAs@ 0000000180069030     LIBCMTD:dbgrpt.obj
 0002:000050e8       ??_C@_1CC@MGIEJOME@?$AA?$CI?$AAf?$AAo?$AAr?$AAm?$AAa?$AAt?$AA?5?$AA?$CB?$AA?$DN?$AA?5?$AAN?$AAU?$AAL?$AAL?$AA?$CJ?$AA?$AA@ 00000001800690e8     LIBCMTD:sprintf.obj
 0002:00005110       ??_C@_1FC@JALKILNE@?$AAf?$AA?3?$AA?2?$AAd?$AAd?$AA?2?$AAv?$AAc?$AAt?$AAo?$AAo?$AAl?$AAs?$AA?2?$AAc?$AAr?$AAt?$AA?2?$AAc?$AAr?$AAt?$AAw?$AA3?$AA2?$AA?2?$AAs?$AAt?$AAd?$AAi?$AAo?$AA?2?$AAs@ 0000000180069110     LIBCMTD:sprintf.obj
 0002:00005168       ??_C@_1BA@KBJJGFFE@?$AAs?$AAp?$AAr?$AAi?$AAn?$AAt?$AAf?$AA?$AA@ 0000000180069168     LIBCMTD:sprintf.obj
 0002:00005178       ??_C@_1CC@OLIJCKA@?$AA?$CI?$AAs?$AAt?$AAr?$AAi?$AAn?$AAg?$AA?5?$AA?$CB?$AA?$DN?$AA?5?$AAN?$AAU?$AAL?$AAL?$AA?$CJ?$AA?$AA@ 0000000180069178     LIBCMTD:sprintf.obj
 0002:000051a0       ??_C@_0CI@NOHEOGNG@f?3?2dd?2vctools?2crt?2crtw32?2misc?2in@ 00000001800691a0     LIBCMTD:initmon.obj
 0002:000051c8       ??_C@_1DM@GKAPAMDO@?$AAp?$AAl?$AAo?$AAc?$AAi?$AA?9?$AA?$DO?$AAl?$AAc?$AAo?$AAn?$AAv?$AA_?$AAm?$AAo?$AAn?$AA_?$AAr?$AAe?$AAf?$AAc?$AAo?$AAu?$AAn?$AAt?$AA?5?$AA?$DO?$AA?5?$AA0?$AA?$AA@ 00000001800691c8     LIBCMTD:initmon.obj
 0002:00005210       ??_C@_1FA@CNNDGPJL@?$AAf?$AA?3?$AA?2?$AAd?$AAd?$AA?2?$AAv?$AAc?$AAt?$AAo?$AAo?$AAl?$AAs?$AA?2?$AAc?$AAr?$AAt?$AA?2?$AAc?$AAr?$AAt?$AAw?$AA3?$AA2?$AA?2?$AAm?$AAi?$AAs?$AAc?$AA?2?$AAi?$AAn@ 0000000180069210     LIBCMTD:initmon.obj
 0002:00005260       ??_C@_0CI@GAAFLELF@f?3?2dd?2vctools?2crt?2crtw32?2misc?2in@ 0000000180069260     LIBCMTD:initnum.obj
 0002:00005288       ??_C@_1DM@IFKAINNE@?$AAp?$AAl?$AAo?$AAc?$AAi?$AA?9?$AA?$DO?$AAl?$AAc?$AAo?$AAn?$AAv?$AA_?$AAn?$AAu?$AAm?$AA_?$AAr?$AAe?$AAf?$AAc?$AAo?$AAu?$AAn?$AAt?$AA?5?$AA?$DO?$AA?5?$AA0?$AA?$AA@ 0000000180069288     LIBCMTD:initnum.obj
 0002:000052d0       ??_C@_1FA@OEEOKLKJ@?$AAf?$AA?3?$AA?2?$AAd?$AAd?$AA?2?$AAv?$AAc?$AAt?$AAo?$AAo?$AAl?$AAs?$AA?2?$AAc?$AAr?$AAt?$AA?2?$AAc?$AAr?$AAt?$AAw?$AA3?$AA2?$AA?2?$AAm?$AAi?$AAs?$AAc?$AA?2?$AAi?$AAn@ 00000001800692d0     LIBCMTD:initnum.obj
 0002:00005320       ??_C@_0CJ@HGFGLKBM@f?3?2dd?2vctools?2crt?2crtw32?2misc?2in@ 0000000180069320     LIBCMTD:inittime.obj
 0002:00005350       ??_C@_1EE@FDHCFDHN@?$AAp?$AAl?$AAo?$AAc?$AAi?$AA?9?$AA?$DO?$AAl?$AAc?$AA_?$AAt?$AAi?$AAm?$AAe?$AA_?$AAc?$AAu?$AAr?$AAr?$AA?9?$AA?$DO?$AAr?$AAe?$AAf?$AAc?$AAo?$AAu?$AAn?$AAt?$AA?5?$AA?$DO?$AA?5@ 0000000180069350     LIBCMTD:inittime.obj
 0002:000053a0       ??_C@_1FC@GNPEEAOA@?$AAf?$AA?3?$AA?2?$AAd?$AAd?$AA?2?$AAv?$AAc?$AAt?$AAo?$AAo?$AAl?$AAs?$AA?2?$AAc?$AAr?$AAt?$AA?2?$AAc?$AAr?$AAt?$AAw?$AA3?$AA2?$AA?2?$AAm?$AAi?$AAs?$AAc?$AA?2?$AAi?$AAn@ 00000001800693a0     LIBCMTD:inittime.obj
 0002:00005400       __newctype                 0000000180069400     LIBCMTD:ctype.obj
 0002:00005700       _wctype                    0000000180069700     LIBCMTD:ctype.obj
 0002:00005910       __newclmap                 0000000180069910     LIBCMTD:ctype.obj
 0002:00005a90       __newcumap                 0000000180069a90     LIBCMTD:ctype.obj
 0002:00005c10       ??_C@_1FE@KNPCCODH@?$AA?$CI?$AA?$CC?$AAC?$AAo?$AAr?$AAr?$AAu?$AAp?$AAt?$AAe?$AAd?$AA?5?$AAp?$AAo?$AAi?$AAn?$AAt?$AAe?$AAr?$AA?5?$AAp?$AAa?$AAs?$AAs?$AAe?$AAd?$AA?5?$AAt?$AAo?$AA?5?$AA_?$AAf@ 0000000180069c10     LIBCMTD:a_map.obj
 0002:00005c70       ??_C@_1EI@DKDOCKPJ@?$AAf?$AA?3?$AA?2?$AAd?$AAd?$AA?2?$AAv?$AAc?$AAt?$AAo?$AAo?$AAl?$AAs?$AA?2?$AAc?$AAr?$AAt?$AA?2?$AAc?$AAr?$AAt?$AAw?$AA3?$AA2?$AA?2?$AAh?$AA?2?$AAm?$AAa?$AAl?$AAl?$AAo@ 0000000180069c70     LIBCMTD:a_map.obj
 0002:00005d70       __lc_category              0000000180069d70     LIBCMTD:wsetloca.obj
 0002:00005e00       ??_C@_1O@GIFLHMA@?$AAL?$AAC?$AA_?$AAA?$AAL?$AAL?$AA?$AA@ 0000000180069e00     LIBCMTD:wsetloca.obj
 0002:00005e10       ??_C@_1BG@PPOMIBNJ@?$AAL?$AAC?$AA_?$AAC?$AAO?$AAL?$AAL?$AAA?$AAT?$AAE?$AA?$AA@ 0000000180069e10     LIBCMTD:wsetloca.obj
 0002:00005e28       ??_C@_1BC@FFJGAPJM@?$AAL?$AAC?$AA_?$AAC?$AAT?$AAY?$AAP?$AAE?$AA?$AA@ 0000000180069e28     LIBCMTD:wsetloca.obj
 0002:00005e40       ??_C@_1BI@PCKFNJFB@?$AAL?$AAC?$AA_?$AAM?$AAO?$AAN?$AAE?$AAT?$AAA?$AAR?$AAY?$AA?$AA@ 0000000180069e40     LIBCMTD:wsetloca.obj
 0002:00005e58       ??_C@_1BG@ENIEDKID@?$AAL?$AAC?$AA_?$AAN?$AAU?$AAM?$AAE?$AAR?$AAI?$AAC?$AA?$AA@ 0000000180069e58     LIBCMTD:wsetloca.obj
 0002:00005e70       ??_C@_1BA@HAAOMIIG@?$AAL?$AAC?$AA_?$AAT?$AAI?$AAM?$AAE?$AA?$AA@ 0000000180069e70     LIBCMTD:wsetloca.obj
 0002:00005f00       ??_C@_1GA@LDEGDKD@?$AA?$CI?$AA?$CC?$AAI?$AAn?$AAv?$AAa?$AAl?$AAi?$AAd?$AA?5?$AAp?$AAa?$AAr?$AAa?$AAm?$AAe?$AAt?$AAe?$AAr?$AA?5?$AAf?$AAo?$AAr?$AA?5?$AA_?$AAc?$AAo?$AAn?$AAf?$AAi?$AAg?$AAt@ 0000000180069f00     LIBCMTD:wsetloca.obj
 0002:00005f60       ??_C@_1FC@GFIKBLFA@?$AAf?$AA?3?$AA?2?$AAd?$AAd?$AA?2?$AAv?$AAc?$AAt?$AAo?$AAo?$AAl?$AAs?$AA?2?$AAc?$AAr?$AAt?$AA?2?$AAc?$AAr?$AAt?$AAw?$AA3?$AA2?$AA?2?$AAm?$AAi?$AAs?$AAc?$AA?2?$AAw?$AAs@ 0000000180069f60     LIBCMTD:wsetloca.obj
 0002:00005fb8       ??_C@_1CI@FGIONOJM@?$AA_?$AAc?$AAo?$AAn?$AAf?$AAi?$AAg?$AAt?$AAh?$AAr?$AAe?$AAa?$AAd?$AAl?$AAo?$AAc?$AAa?$AAl?$AAe?$AA?$AA@ 0000000180069fb8     LIBCMTD:wsetloca.obj
 0002:00005fe0       ??_C@_0CJ@MIILEBP@f?3?2dd?2vctools?2crt?2crtw32?2misc?2ws@ 0000000180069fe0     LIBCMTD:wsetloca.obj
 0002:00006010       ??_C@_1FG@OHLFEKMC@?$AAL?$AAC?$AA_?$AAM?$AAI?$AAN?$AA?5?$AA?$DM?$AA?$DN?$AA?5?$AA_?$AAc?$AAa?$AAt?$AAe?$AAg?$AAo?$AAr?$AAy?$AA?5?$AA?$CG?$AA?$CG?$AA?5?$AA_?$AAc?$AAa?$AAt?$AAe?$AAg?$AAo?$AAr?$AAy@ 000000018006a010     LIBCMTD:wsetloca.obj
 0002:00006068       ??_C@_1BI@KJNPAEHL@?$AA_?$AAw?$AAs?$AAe?$AAt?$AAl?$AAo?$AAc?$AAa?$AAl?$AAe?$AA?$AA@ 000000018006a068     LIBCMTD:wsetloca.obj
 0002:00006080       ??_C@_15NBPDDFIP@?$AA?$DN?$AA?$DL?$AA?$AA@ 000000018006a080     LIBCMTD:wsetloca.obj
 0002:00006088       ??_C@_13PJJBFPED@?$AA?$DL?$AA?$AA@ 000000018006a088     LIBCMTD:wsetloca.obj
 0002:00006090       ??_C@_1CG@DKJCBBPP@?$AA_?$AAw?$AAs?$AAe?$AAt?$AAl?$AAo?$AAc?$AAa?$AAl?$AAe?$AA_?$AAn?$AAo?$AAl?$AAo?$AAc?$AAk?$AA?$AA@ 000000018006a090     LIBCMTD:wsetloca.obj
 0002:000060c0       ??_C@_1IA@DGCOPCLP@?$AAw?$AAc?$AAs?$AAn?$AAc?$AAp?$AAy?$AA_?$AAs?$AA?$CI?$AAl?$AAc?$AAt?$AAe?$AAm?$AAp?$AA?0?$AA?5?$AA?$CI?$AAs?$AAi?$AAz?$AAe?$AAo?$AAf?$AA?$CI?$AAl?$AAc?$AAt?$AAe?$AAm?$AAp@ 000000018006a0c0     LIBCMTD:wsetloca.obj
 0002:00006140       ??_C@_1CI@ODOPEMNJ@?$AA_?$AAw?$AAs?$AAe?$AAt?$AAl?$AAo?$AAc?$AAa?$AAl?$AAe?$AA_?$AAs?$AAe?$AAt?$AA_?$AAc?$AAa?$AAt?$AA?$AA@ 000000018006a140     LIBCMTD:wsetloca.obj
 0002:00006170       ??_C@_1EM@MHOCNIAA@?$AAw?$AAc?$AAs?$AAc?$AAp?$AAy?$AA_?$AAs?$AA?$CI?$AAp?$AAc?$AAh?$AA_?$AAc?$AAa?$AAt?$AA_?$AAl?$AAo?$AAc?$AAa?$AAl?$AAe?$AA?0?$AA?5?$AAc?$AAc?$AAh?$AA?0?$AA?5?$AAl?$AAc@ 000000018006a170     LIBCMTD:wsetloca.obj
 0002:000061bc       ??_C@_13NMPKAAJP@?$AA?$DN?$AA?$AA@ 000000018006a1bc     LIBCMTD:wsetloca.obj
 0002:000061c0       ??_C@_1CI@LKOPFFBD@?$AA_?$AAw?$AAs?$AAe?$AAt?$AAl?$AAo?$AAc?$AAa?$AAl?$AAe?$AA_?$AAg?$AAe?$AAt?$AA_?$AAa?$AAl?$AAl?$AA?$AA@ 000000018006a1c0     LIBCMTD:wsetloca.obj
 0002:000061e8       ??_C@_1DC@HMLJMODP@?$AAw?$AAc?$AAs?$AAc?$AAa?$AAt?$AA_?$AAs?$AA?$CI?$AAp?$AAc?$AAh?$AA?0?$AA?5?$AAc?$AAc?$AAh?$AA?0?$AA?5?$AAL?$AA?$CC?$AA?$DL?$AA?$CC?$AA?$CJ?$AA?$AA@ 000000018006a1e8     LIBCMTD:wsetloca.obj
 0002:00006220       ??_C@_1BM@OIIBLEFG@?$AA_?$AAe?$AAx?$AAp?$AAa?$AAn?$AAd?$AAl?$AAo?$AAc?$AAa?$AAl?$AAe?$AA?$AA@ 000000018006a220     LIBCMTD:wsetloca.obj
 0002:00006240       ??_C@_1BFG@FHLOBJGM@?$AAw?$AAc?$AAs?$AAn?$AAc?$AAp?$AAy?$AA_?$AAs?$AA?$CI?$AAl?$AAo?$AAc?$AAa?$AAl?$AAe?$AAN?$AAa?$AAm?$AAe?$AAO?$AAu?$AAt?$AAp?$AAu?$AAt?$AA?0?$AA?5?$AAl?$AAo?$AAc?$AAa@ 000000018006a240     LIBCMTD:wsetloca.obj
 0002:000063a0       ??_C@_1EI@OCINLCHN@?$AAw?$AAc?$AAs?$AAc?$AAp?$AAy?$AA_?$AAs?$AA?$CI?$AAo?$AAu?$AAt?$AAp?$AAu?$AAt?$AA?0?$AA?5?$AAs?$AAi?$AAz?$AAe?$AAI?$AAn?$AAC?$AAh?$AAa?$AAr?$AAs?$AA?0?$AA?5?$AAL?$AA?$CC@ 000000018006a3a0     LIBCMTD:wsetloca.obj
 0002:000063e8       ??_C@_13FHBKNHDA@?$AAC?$AA?$AA@ 000000018006a3e8     LIBCMTD:wsetloca.obj
 0002:000063f0       ??_C@_1MO@NNCNEOAP@?$AAw?$AAc?$AAs?$AAn?$AAc?$AAp?$AAy?$AA_?$AAs?$AA?$CI?$AAl?$AAo?$AAc?$AAa?$AAl?$AAe?$AAN?$AAa?$AAm?$AAe?$AAO?$AAu?$AAt?$AAp?$AAu?$AAt?$AA?0?$AA?5?$AAl?$AAo?$AAc?$AAa@ 000000018006a3f0     LIBCMTD:wsetloca.obj
 0002:000064c0       ??_C@_1IG@MKDIEKFD@?$AAw?$AAc?$AAs?$AAn?$AAc?$AAp?$AAy?$AA_?$AAs?$AA?$CI?$AAc?$AAa?$AAc?$AAh?$AAe?$AAo?$AAu?$AAt?$AA?0?$AA?5?$AAc?$AAa?$AAc?$AAh?$AAe?$AAo?$AAu?$AAt?$AAL?$AAe?$AAn?$AA?0@ 000000018006a4c0     LIBCMTD:wsetloca.obj
 0002:00006550       ??_C@_1KK@KMIFPBBC@?$AAw?$AAc?$AAs?$AAn?$AAc?$AAp?$AAy?$AA_?$AAs?$AA?$CI?$AAl?$AAo?$AAc?$AAa?$AAl?$AAe?$AAN?$AAa?$AAm?$AAe?$AAO?$AAu?$AAt?$AAp?$AAu?$AAt?$AA?0?$AA?5?$AAl?$AAo?$AAc?$AAa@ 000000018006a550     LIBCMTD:wsetloca.obj
 0002:00006600       ??_C@_1BEK@OJDMMIMP@?$AAw?$AAc?$AAs?$AAn?$AAc?$AAp?$AAy?$AA_?$AAs?$AA?$CI?$AA_?$AAp?$AAs?$AAe?$AAt?$AAl?$AAo?$AAc?$AA_?$AAd?$AAa?$AAt?$AAa?$AA?9?$AA?$DO?$AA_?$AAc?$AAa?$AAc?$AAh?$AAe?$AAL@ 000000018006a600     LIBCMTD:wsetloca.obj
 0002:00006750       ??_C@_1BGG@FCLLNAOE@?$AAw?$AAc?$AAs?$AAn?$AAc?$AAp?$AAy?$AA_?$AAs?$AA?$CI?$AA_?$AAp?$AAs?$AAe?$AAt?$AAl?$AAo?$AAc?$AA_?$AAd?$AAa?$AAt?$AAa?$AA?9?$AA?$DO?$AA_?$AAc?$AAa?$AAc?$AAh?$AAe?$AAL@ 000000018006a750     LIBCMTD:wsetloca.obj
 0002:000068c0       ??_C@_1IC@FCCDBGLL@?$AAw?$AAc?$AAs?$AAn?$AAc?$AAp?$AAy?$AA_?$AAs?$AA?$CI?$AAc?$AAa?$AAc?$AAh?$AAe?$AAi?$AAn?$AA?0?$AA?5?$AAc?$AAa?$AAc?$AAh?$AAe?$AAi?$AAn?$AAL?$AAe?$AAn?$AA?0?$AA?5?$AAe@ 000000018006a8c0     LIBCMTD:wsetloca.obj
 0002:00006950       ??_C@_1FA@HOOAAHFF@?$AAw?$AAc?$AAs?$AAc?$AAp?$AAy?$AA_?$AAs?$AA?$CI?$AAo?$AAu?$AAt?$AAp?$AAu?$AAt?$AA?0?$AA?5?$AAs?$AAi?$AAz?$AAe?$AAI?$AAn?$AAC?$AAh?$AAa?$AAr?$AAs?$AA?0?$AA?5?$AAc?$AAa@ 000000018006a950     LIBCMTD:wsetloca.obj
 0002:000069a0       ??_C@_1BC@LEOKFFML@?$AA_?$AAw?$AAc?$AAs?$AAc?$AAa?$AAt?$AAs?$AA?$AA@ 000000018006a9a0     LIBCMTD:wsetloca.obj
 0002:000069c0       ??_C@_1CCE@OOPDKDD@?$AAw?$AAc?$AAs?$AAc?$AAa?$AAt?$AA_?$AAs?$AA?$CI?$AAo?$AAu?$AAt?$AAs?$AAt?$AAr?$AA?0?$AA?5?$AAn?$AAu?$AAm?$AAb?$AAe?$AAr?$AAO?$AAf?$AAE?$AAl?$AAe?$AAm?$AAe?$AAn?$AAt@ 000000018006a9c0     LIBCMTD:wsetloca.obj
 0002:00006be8       ??_C@_1BK@GNCHCGCN@?$AA_?$AA_?$AAl?$AAc?$AA_?$AAw?$AAc?$AAs?$AAt?$AAo?$AAl?$AAc?$AA?$AA@ 000000018006abe8     LIBCMTD:wsetloca.obj
 0002:00006c10       ??_C@_1NI@NELJHJBO@?$AAw?$AAc?$AAs?$AAn?$AAc?$AAp?$AAy?$AA_?$AAs?$AA?$CI?$AAn?$AAa?$AAm?$AAe?$AAs?$AA?9?$AA?$DO?$AAs?$AAz?$AAC?$AAo?$AAd?$AAe?$AAP?$AAa?$AAg?$AAe?$AA?0?$AA?5?$AA?$CI?$AAs?$AAi@ 000000018006ac10     LIBCMTD:wsetloca.obj
 0002:00006ce8       ??_C@_17MBJJLFDM@?$AA_?$AA?4?$AA?0?$AA?$AA@ 000000018006ace8     LIBCMTD:wsetloca.obj
 0002:00006cf0       ??_C@_1MO@PBGOIBFL@?$AAw?$AAc?$AAs?$AAn?$AAc?$AAp?$AAy?$AA_?$AAs?$AA?$CI?$AAn?$AAa?$AAm?$AAe?$AAs?$AA?9?$AA?$DO?$AAs?$AAz?$AAL?$AAa?$AAn?$AAg?$AAu?$AAa?$AAg?$AAe?$AA?0?$AA?5?$AA?$CI?$AAs?$AAi@ 000000018006acf0     LIBCMTD:wsetloca.obj
 0002:00006dc0       ??_C@_1MI@CLMFNAAJ@?$AAw?$AAc?$AAs?$AAn?$AAc?$AAp?$AAy?$AA_?$AAs?$AA?$CI?$AAn?$AAa?$AAm?$AAe?$AAs?$AA?9?$AA?$DO?$AAs?$AAz?$AAC?$AAo?$AAu?$AAn?$AAt?$AAr?$AAy?$AA?0?$AA?5?$AA?$CI?$AAs?$AAi?$AAz@ 000000018006adc0     LIBCMTD:wsetloca.obj
 0002:00006e90       ??_C@_1MO@NBFBMKCB@?$AAw?$AAc?$AAs?$AAn?$AAc?$AAp?$AAy?$AA_?$AAs?$AA?$CI?$AAn?$AAa?$AAm?$AAe?$AAs?$AA?9?$AA?$DO?$AAs?$AAz?$AAC?$AAo?$AAd?$AAe?$AAP?$AAa?$AAg?$AAe?$AA?0?$AA?5?$AA?$CI?$AAs?$AAi@ 000000018006ae90     LIBCMTD:wsetloca.obj
 0002:00006f60       ??_C@_1BK@HEBMGPEK@?$AA_?$AA_?$AAl?$AAc?$AA_?$AAl?$AAc?$AAt?$AAo?$AAw?$AAc?$AAs?$AA?$AA@ 000000018006af60     LIBCMTD:wsetloca.obj
 0002:00006f80       ??_C@_1GM@FOFMGOEK@?$AAw?$AAc?$AAs?$AAc?$AAp?$AAy?$AA_?$AAs?$AA?$CI?$AAl?$AAo?$AAc?$AAa?$AAl?$AAe?$AA?0?$AA?5?$AAn?$AAu?$AAm?$AAb?$AAe?$AAr?$AAO?$AAf?$AAE?$AAl?$AAe?$AAm?$AAe?$AAn?$AAt@ 000000018006af80     LIBCMTD:wsetloca.obj
 0002:00006fec       ??_C@_13ENNFDPBH@?$AA_?$AA?$AA@ 000000018006afec     LIBCMTD:wsetloca.obj
 0002:00006ff0       ??_C@_13JOFGPIOO@?$AA?4?$AA?$AA@ 000000018006aff0     LIBCMTD:wsetloca.obj
 0002:00006ff8       ??_C@_1CG@HCGEAFEA@?$AA_?$AA_?$AAc?$AAo?$AAp?$AAy?$AA_?$AAl?$AAo?$AAc?$AAa?$AAl?$AAe?$AA_?$AAn?$AAa?$AAm?$AAe?$AA?$AA@ 000000018006aff8     LIBCMTD:wsetloca.obj
 0002:00007020       ??_C@_1GI@HBNMCKGD@?$AAw?$AAc?$AAs?$AAn?$AAc?$AAp?$AAy?$AA_?$AAs?$AA?$CI?$AAl?$AAo?$AAc?$AAa?$AAl?$AAe?$AAN?$AAa?$AAm?$AAe?$AAC?$AAo?$AAp?$AAy?$AA?0?$AA?5?$AAc?$AAc?$AAh?$AA?$CL?$AA1?$AA?0@ 000000018006b020     LIBCMTD:wsetloca.obj
 0002:00007088       ??_C@_1CA@MBDBOHIB@?$AA_?$AAL?$AAo?$AAc?$AAa?$AAl?$AAe?$AA?5?$AA?$CB?$AA?$DN?$AA?5?$AAN?$AAU?$AAL?$AAL?$AA?$AA@ 000000018006b088     LIBCMTD:strgtold.obj
 0002:000070b0       ??_C@_1FO@OFJNJPKB@?$AAf?$AA?3?$AA?2?$AAd?$AAd?$AA?2?$AAv?$AAc?$AAt?$AAo?$AAo?$AAl?$AAs?$AA?2?$AAc?$AAr?$AAt?$AA?2?$AAf?$AAp?$AAw?$AA3?$AA2?$AA?2?$AAi?$AAn?$AAc?$AAl?$AAu?$AAd?$AAe?$AA?2@ 000000018006b0b0     LIBCMTD:strgtold.obj
 0002:00007110       ??_C@_1BO@IHLJHOPI@?$AA_?$AA_?$AAs?$AAt?$AAr?$AAg?$AAt?$AAo?$AAl?$AAd?$AA1?$AA2?$AA_?$AAl?$AA?$AA@ 000000018006b110     LIBCMTD:strgtold.obj
 0002:00007130       ??_C@_1EO@IKHIJFCK@?$AAf?$AA?3?$AA?2?$AAd?$AAd?$AA?2?$AAv?$AAc?$AAt?$AAo?$AAo?$AAl?$AAs?$AA?2?$AAc?$AAr?$AAt?$AA?2?$AAf?$AAp?$AAw?$AA3?$AA2?$AA?2?$AAc?$AAo?$AAn?$AAv?$AA?2?$AAx?$AA1?$AA0@ 000000018006b130     LIBCMTD:x10fout.obj
 0002:00007180       ??_C@_1BI@ELMAAFLN@?$AA$?$AAI?$AA1?$AA0?$AA_?$AAO?$AAU?$AAT?$AAP?$AAU?$AAT?$AA?$AA@ 000000018006b180     LIBCMTD:x10fout.obj
 0002:000071a0       ??_C@_1EG@CDDBFNOB@?$AAs?$AAt?$AAr?$AAc?$AAp?$AAy?$AA_?$AAs?$AA?$CI?$AAf?$AAo?$AAs?$AA?9?$AA?$DO?$AAm?$AAa?$AAn?$AA?0?$AA?5?$AA2?$AA1?$AA?$CL?$AA1?$AA?0?$AA?5?$AA?$CC?$AA1?$AA?$CD?$AAS?$AAN?$AAA?$AAN@ 000000018006b1a0     LIBCMTD:x10fout.obj
 0002:000071e8       ??_C@_06PGGFOGJG@1?$CDSNAN?$AA@ 000000018006b1e8     LIBCMTD:x10fout.obj
 0002:000071f0       ??_C@_1EE@MADEBIHF@?$AAs?$AAt?$AAr?$AAc?$AAp?$AAy?$AA_?$AAs?$AA?$CI?$AAf?$AAo?$AAs?$AA?9?$AA?$DO?$AAm?$AAa?$AAn?$AA?0?$AA?5?$AA2?$AA1?$AA?$CL?$AA1?$AA?0?$AA?5?$AA?$CC?$AA1?$AA?$CD?$AAI?$AAN?$AAD?$AA?$CC@ 000000018006b1f0     LIBCMTD:x10fout.obj
 0002:00007234       ??_C@_05PHHOCPM@1?$CDIND?$AA@ 000000018006b234     LIBCMTD:x10fout.obj
 0002:00007240       ??_C@_1EE@ICBBBPAI@?$AAs?$AAt?$AAr?$AAc?$AAp?$AAy?$AA_?$AAs?$AA?$CI?$AAf?$AAo?$AAs?$AA?9?$AA?$DO?$AAm?$AAa?$AAn?$AA?0?$AA?5?$AA2?$AA1?$AA?$CL?$AA1?$AA?0?$AA?5?$AA?$CC?$AA1?$AA?$CD?$AAI?$AAN?$AAF?$AA?$CC@ 000000018006b240     LIBCMTD:x10fout.obj
 0002:00007284       ??_C@_05DNEBIAHO@1?$CDINF?$AA@ 000000018006b284     LIBCMTD:x10fout.obj
 0002:00007290       ??_C@_1EG@MCFPJJEM@?$AAs?$AAt?$AAr?$AAc?$AAp?$AAy?$AA_?$AAs?$AA?$CI?$AAf?$AAo?$AAs?$AA?9?$AA?$DO?$AAm?$AAa?$AAn?$AA?0?$AA?5?$AA2?$AA1?$AA?$CL?$AA1?$AA?0?$AA?5?$AA?$CC?$AA1?$AA?$CD?$AAQ?$AAN?$AAA?$AAN@ 000000018006b290     LIBCMTD:x10fout.obj
 0002:000072d8       ??_C@_06IMKFLFPG@1?$CDQNAN?$AA@ 000000018006b2d8     LIBCMTD:x10fout.obj
 0002:000072e0       ??_C@_1BI@GKKCBDMD@?$AAd?$AAs?$AAt?$AA?5?$AA?$CB?$AA?$DN?$AA?5?$AAN?$AAU?$AAL?$AAL?$AA?$AA@ 000000018006b2e0     LIBCMTD:memcpy_s.obj
 0002:00007300       ??_C@_1FG@COJCEIPE@?$AAf?$AA?3?$AA?2?$AAd?$AAd?$AA?2?$AAv?$AAc?$AAt?$AAo?$AAo?$AAl?$AAs?$AA?2?$AAc?$AAr?$AAt?$AA?2?$AAc?$AAr?$AAt?$AAw?$AA3?$AA2?$AA?2?$AAs?$AAt?$AAr?$AAi?$AAn?$AAg?$AA?2@ 000000018006b300     LIBCMTD:memcpy_s.obj
 0002:00007358       ??_C@_1BC@GKHDJMGB@?$AAm?$AAe?$AAm?$AAc?$AAp?$AAy?$AA_?$AAs?$AA?$AA@ 000000018006b358     LIBCMTD:memcpy_s.obj
 0002:00007370       ??_C@_1BI@DCHLDCPP@?$AAs?$AAr?$AAc?$AA?5?$AA?$CB?$AA?$DN?$AA?5?$AAN?$AAU?$AAL?$AAL?$AA?$AA@ 000000018006b370     LIBCMTD:memcpy_s.obj
 0002:00007388       ??_C@_1CK@DDKKOLAN@?$AAs?$AAi?$AAz?$AAe?$AAI?$AAn?$AAB?$AAy?$AAt?$AAe?$AAs?$AA?5?$AA?$DO?$AA?$DN?$AA?5?$AAc?$AAo?$AAu?$AAn?$AAt?$AA?$AA@ 000000018006b388     LIBCMTD:memcpy_s.obj
 0002:000073c0       ??_C@_1FC@PFMLEHKI@?$AA?$CI?$AA?$CI?$AA_?$AAD?$AAs?$AAt?$AA?$CJ?$AA?$CJ?$AA?5?$AA?$CB?$AA?$DN?$AA?5?$AAN?$AAU?$AAL?$AAL?$AA?5?$AA?$CG?$AA?$CG?$AA?5?$AA?$CI?$AA?$CI?$AA_?$AAS?$AAi?$AAz?$AAe?$AAI?$AAn?$AAW?$AAo?$AAr@ 000000018006b3c0     LIBCMTD:wcscpy_s.obj
 0002:00007418       ??_C@_1BC@KIONAFPO@?$AAw?$AAc?$AAs?$AAc?$AAp?$AAy?$AA_?$AAs?$AA?$AA@ 000000018006b418     LIBCMTD:wcscpy_s.obj
 0002:00007430       ??_C@_1FE@HMGHELF@?$AAf?$AA?3?$AA?2?$AAd?$AAd?$AA?2?$AAv?$AAc?$AAt?$AAo?$AAo?$AAl?$AAs?$AA?2?$AAc?$AAr?$AAt?$AA?2?$AAc?$AAr?$AAt?$AAw?$AA3?$AA2?$AA?2?$AAs?$AAt?$AAd?$AAi?$AAo?$AA?2?$AAs@ 000000018006b430     LIBCMTD:swprintf.obj
 0002:00007488       ??_C@_1BE@BMIJMLDD@?$AA_?$AAs?$AAw?$AAp?$AAr?$AAi?$AAn?$AAt?$AAf?$AA?$AA@ 000000018006b488     LIBCMTD:swprintf.obj
 0002:000074a0       ??_C@_1BG@GOEBHBDC@?$AAU?$AAS?$AAE?$AAR?$AA3?$AA2?$AA?4?$AAD?$AAL?$AAL?$AA?$AA@ 000000018006b4a0     LIBCMTD:crtmboxw.obj
 0002:000074b8       ??_C@_0M@DLDCCGNP@MessageBoxW?$AA@ 000000018006b4b8     LIBCMTD:crtmboxw.obj
 0002:000074c8       ??_C@_0BA@HNOPNCHB@GetActiveWindow?$AA@ 000000018006b4c8     LIBCMTD:crtmboxw.obj
 0002:000074d8       ??_C@_0BD@HHGDFDBJ@GetLastActivePopup?$AA@ 000000018006b4d8     LIBCMTD:crtmboxw.obj
 0002:000074f0       ??_C@_0BK@DEKFELLI@GetUserObjectInformationW?$AA@ 000000018006b4f0     LIBCMTD:crtmboxw.obj
 0002:00007510       ??_C@_0BI@DFKBFLJE@GetProcessWindowStation?$AA@ 000000018006b510     LIBCMTD:crtmboxw.obj
 0002:00007530       ??_C@_1FA@IFFFOLDJ@?$AAn?$AAR?$AAp?$AAt?$AAT?$AAy?$AAp?$AAe?$AA?5?$AA?$DO?$AA?$DN?$AA?5?$AA0?$AA?5?$AA?$CG?$AA?$CG?$AA?5?$AAn?$AAR?$AAp?$AAt?$AAT?$AAy?$AAp?$AAe?$AA?5?$AA?$DM?$AA?5?$AA_?$AAC?$AAR?$AAT@ 000000018006b530     LIBCMTD:dbgrptt.obj
 0002:00007580       ??_C@_1FA@PPLJBGMP@?$AAf?$AA?3?$AA?2?$AAd?$AAd?$AA?2?$AAv?$AAc?$AAt?$AAo?$AAo?$AAl?$AAs?$AA?2?$AAc?$AAr?$AAt?$AA?2?$AAc?$AAr?$AAt?$AAw?$AA3?$AA2?$AA?2?$AAm?$AAi?$AAs?$AAc?$AA?2?$AAd?$AAb@ 000000018006b580     LIBCMTD:dbgrptt.obj
 0002:000075d0       ??_C@_1CE@FIHIECNJ@?$AA_?$AAC?$AAr?$AAt?$AAS?$AAe?$AAt?$AAR?$AAe?$AAp?$AAo?$AAr?$AAt?$AAM?$AAo?$AAd?$AAe?$AA?$AA@ 000000018006b5d0     LIBCMTD:dbgrptt.obj
 0002:00007600       ??_C@_1NK@LOFHIHFC@?$AAf?$AAM?$AAo?$AAd?$AAe?$AA?5?$AA?$DN?$AA?$DN?$AA?5?$AA_?$AAC?$AAR?$AAT?$AAD?$AAB?$AAG?$AA_?$AAR?$AAE?$AAP?$AAO?$AAR?$AAT?$AA_?$AAM?$AAO?$AAD?$AAE?$AA?5?$AA?$HM?$AA?$HM?$AA?5@ 000000018006b600     LIBCMTD:dbgrptt.obj
 0002:000076e0       ??_C@_1CE@IKKEDCME@?$AA_?$AAC?$AAr?$AAt?$AAS?$AAe?$AAt?$AAR?$AAe?$AAp?$AAo?$AAr?$AAt?$AAF?$AAi?$AAl?$AAe?$AA?$AA@ 000000018006b6e0     LIBCMTD:dbgrptt.obj
 0002:00007708       ??_C@_1CA@KHJHLKA@?$AA_?$AAV?$AAC?$AAr?$AAt?$AAD?$AAb?$AAg?$AAR?$AAe?$AAp?$AAo?$AAr?$AAt?$AAA?$AA?$AA@ 000000018006b708     LIBCMTD:dbgrptt.obj
 0002:00007730       ??_C@_1FA@JPHJBHEM@?$AA_?$AAi?$AAt?$AAo?$AAa?$AA_?$AAs?$AA?$CI?$AAn?$AAL?$AAi?$AAn?$AAe?$AA?0?$AA?5?$AAs?$AAz?$AAL?$AAi?$AAn?$AAe?$AAM?$AAe?$AAs?$AAs?$AAa?$AAg?$AAe?$AA?0?$AA?5?$AA4?$AA0@ 000000018006b730     LIBCMTD:dbgrptt.obj
 0002:00007780       ??_C@_0CG@BNGLOCEO@Second?5Chance?5Assertion?5Failed?3?5@ 000000018006b780     LIBCMTD:dbgrptt.obj
 0002:000077a8       ??_C@_0P@DFJNDPOP@?$DMfile?5unknown?$DO?$AA@ 000000018006b7a8     LIBCMTD:dbgrptt.obj
 0002:000077b8       ??_C@_07BHGABMGB@?0?5Line?5?$AA@ 000000018006b7b8     LIBCMTD:dbgrptt.obj
 0002:000077c0       ??_C@_01EEMJAFIK@?6?$AA@   000000018006b7c0     LIBCMTD:dbgrptt.obj
 0002:000077d0       ??_C@_1JI@GAALPGBM@?$AAs?$AAt?$AAr?$AAc?$AAp?$AAy?$AA_?$AAs?$AA?$CI?$AAs?$AAz?$AAU?$AAs?$AAe?$AAr?$AAM?$AAe?$AAs?$AAs?$AAa?$AAg?$AAe?$AA?0?$AA?5?$AA4?$AA0?$AA9?$AA6?$AA?0?$AA?5?$AA?$CC?$AA_@ 000000018006b7d0     LIBCMTD:dbgrptt.obj
 0002:00007868       ??_C@_0CL@EACFGMNB@_CrtDbgReport?3?5String?5too?5long?5o@ 000000018006b868     LIBCMTD:dbgrptt.obj
 0002:000078a0       ??_C@_1KK@GIGAEDMO@?$AAs?$AAt?$AAr?$AAc?$AAp?$AAy?$AA_?$AAs?$AA?$CI?$AAs?$AAz?$AAL?$AAi?$AAn?$AAe?$AAM?$AAe?$AAs?$AAs?$AAa?$AAg?$AAe?$AA?0?$AA?5?$AA4?$AA0?$AA9?$AA6?$AA?0?$AA?5?$AAs?$AAz@ 000000018006b8a0     LIBCMTD:dbgrptt.obj
 0002:00007950       ??_C@_0BD@CAENFOHP@Assertion?5failed?3?5?$AA@ 000000018006b950     LIBCMTD:dbgrptt.obj
 0002:00007968       ??_C@_0BC@LAIDCHCH@Assertion?5failed?$CB?$AA@ 000000018006b968     LIBCMTD:dbgrptt.obj
 0002:00007980       ??_C@_1FK@NPGBPOFO@?$AAs?$AAt?$AAr?$AAc?$AAa?$AAt?$AA_?$AAs?$AA?$CI?$AAs?$AAz?$AAL?$AAi?$AAn?$AAe?$AAM?$AAe?$AAs?$AAs?$AAa?$AAg?$AAe?$AA?0?$AA?5?$AA4?$AA0?$AA9?$AA6?$AA?0?$AA?5?$AAs?$AAz@ 000000018006b980     LIBCMTD:dbgrptt.obj
 0002:000079e0       ??_C@_1EI@CACDLAFK@?$AAs?$AAt?$AAr?$AAc?$AAa?$AAt?$AA_?$AAs?$AA?$CI?$AAs?$AAz?$AAL?$AAi?$AAn?$AAe?$AAM?$AAe?$AAs?$AAs?$AAa?$AAg?$AAe?$AA?0?$AA?5?$AA4?$AA0?$AA9?$AA6?$AA?0?$AA?5?$AA?$CC?$AA?2@ 000000018006b9e0     LIBCMTD:dbgrptt.obj
 0002:00007a28       ??_C@_01LIIJDEN@?$AN?$AA@  000000018006ba28     LIBCMTD:dbgrptt.obj
 0002:00007a30       ??_C@_1EI@LDHJEDO@?$AAs?$AAt?$AAr?$AAc?$AAa?$AAt?$AA_?$AAs?$AA?$CI?$AAs?$AAz?$AAL?$AAi?$AAn?$AAe?$AAM?$AAe?$AAs?$AAs?$AAa?$AAg?$AAe?$AA?0?$AA?5?$AA4?$AA0?$AA9?$AA6?$AA?0?$AA?5?$AA?$CC?$AA?2@ 000000018006ba30     LIBCMTD:dbgrptt.obj
 0002:00007a78       ??_C@_0M@IPILFDFN@?$CFs?$CI?$CFd?$CJ?5?3?5?$CFs?$AA@ 000000018006ba78     LIBCMTD:dbgrptt.obj
 0002:00007a90       ??_C@_1JG@CPKCIOEE@?$AAs?$AAt?$AAr?$AAc?$AAp?$AAy?$AA_?$AAs?$AA?$CI?$AAs?$AAz?$AAO?$AAu?$AAt?$AAM?$AAe?$AAs?$AAs?$AAa?$AAg?$AAe?$AA?0?$AA?5?$AA4?$AA0?$AA9?$AA6?$AA?0?$AA?5?$AA?$CC?$AA_?$AAC@ 000000018006ba90     LIBCMTD:dbgrptt.obj
 0002:00007b30       ??_C@_1FI@IBIOIHEG@?$AAs?$AAt?$AAr?$AAc?$AAp?$AAy?$AA_?$AAs?$AA?$CI?$AAs?$AAz?$AAO?$AAu?$AAt?$AAM?$AAe?$AAs?$AAs?$AAa?$AAg?$AAe?$AA?0?$AA?5?$AA4?$AA0?$AA9?$AA6?$AA?0?$AA?5?$AAs?$AAz?$AAL@ 000000018006bb30     LIBCMTD:dbgrptt.obj
 0002:00007b90       ??_C@_1IM@OOKIFKOH@?$AAe?$AA?5?$AA?$DN?$AA?5?$AAm?$AAb?$AAs?$AAt?$AAo?$AAw?$AAc?$AAs?$AA_?$AAs?$AA?$CI?$AA?$CG?$AAr?$AAe?$AAt?$AA?0?$AA?5?$AAs?$AAz?$AAO?$AAu?$AAt?$AAM?$AAe?$AAs?$AAs?$AAa?$AAg@ 000000018006bb90     LIBCMTD:dbgrptt.obj
 0002:00007c20       ??_C@_1MC@IGEECMDB@?$AAw?$AAc?$AAs?$AAc?$AAp?$AAy?$AA_?$AAs?$AA?$CI?$AAs?$AAz?$AAO?$AAu?$AAt?$AAM?$AAe?$AAs?$AAs?$AAa?$AAg?$AAe?$AA2?$AA?0?$AA?5?$AA4?$AA0?$AA9?$AA6?$AA?0?$AA?5?$AAL?$AA?$CC@ 000000018006bc20     LIBCMTD:dbgrptt.obj
 0002:00007cf0       ??_C@_1HO@PJOFIKFE@?$AA_?$AAC?$AAr?$AAt?$AAD?$AAb?$AAg?$AAR?$AAe?$AAp?$AAo?$AAr?$AAt?$AA?3?$AA?5?$AAS?$AAt?$AAr?$AAi?$AAn?$AAg?$AA?5?$AAt?$AAo?$AAo?$AA?5?$AAl?$AAo?$AAn?$AAg?$AA?5?$AAo@ 000000018006bcf0     LIBCMTD:dbgrptt.obj
 0002:00007d70       ??_C@_1CA@HPALHDOD@?$AA_?$AAV?$AAC?$AAr?$AAt?$AAD?$AAb?$AAg?$AAR?$AAe?$AAp?$AAo?$AAr?$AAt?$AAW?$AA?$AA@ 000000018006bd70     LIBCMTD:dbgrptt.obj
 0002:00007d90       ??_C@_1FA@CNLLOMHI@?$AA_?$AAi?$AAt?$AAo?$AAw?$AA_?$AAs?$AA?$CI?$AAn?$AAL?$AAi?$AAn?$AAe?$AA?0?$AA?5?$AAs?$AAz?$AAL?$AAi?$AAn?$AAe?$AAM?$AAe?$AAs?$AAs?$AAa?$AAg?$AAe?$AA?0?$AA?5?$AA4?$AA0@ 000000018006bd90     LIBCMTD:dbgrptt.obj
 0002:00007de0       ??_C@_1EM@MJFLEDMB@?$AAS?$AAe?$AAc?$AAo?$AAn?$AAd?$AA?5?$AAC?$AAh?$AAa?$AAn?$AAc?$AAe?$AA?5?$AAA?$AAs?$AAs?$AAe?$AAr?$AAt?$AAi?$AAo?$AAn?$AA?5?$AAF?$AAa?$AAi?$AAl?$AAe?$AAd?$AA?3?$AA?5@ 000000018006bde0     LIBCMTD:dbgrptt.obj
 0002:00007e30       ??_C@_1BO@OCHMLCAG@?$AA?$DM?$AAf?$AAi?$AAl?$AAe?$AA?5?$AAu?$AAn?$AAk?$AAn?$AAo?$AAw?$AAn?$AA?$DO?$AA?$AA@ 000000018006be30     LIBCMTD:dbgrptt.obj
 0002:00007e50       ??_C@_1BA@ELMMDCFC@?$AA?0?$AA?5?$AAL?$AAi?$AAn?$AAe?$AA?5?$AA?$AA@ 000000018006be50     LIBCMTD:dbgrptt.obj
 0002:00007e60       ??_C@_13LBAGMAIH@?$AA?6?$AA?$AA@ 000000018006be60     LIBCMTD:dbgrptt.obj
 0002:00007e70       ??_C@_1JK@KHFABAEO@?$AAw?$AAc?$AAs?$AAc?$AAp?$AAy?$AA_?$AAs?$AA?$CI?$AAs?$AAz?$AAU?$AAs?$AAe?$AAr?$AAM?$AAe?$AAs?$AAs?$AAa?$AAg?$AAe?$AA?0?$AA?5?$AA4?$AA0?$AA9?$AA6?$AA?0?$AA?5?$AAL?$AA?$CC@ 000000018006be70     LIBCMTD:dbgrptt.obj
 0002:00007f10       ??_C@_1KO@DGAHENCH@?$AAw?$AAc?$AAs?$AAc?$AAp?$AAy?$AA_?$AAs?$AA?$CI?$AAs?$AAz?$AAL?$AAi?$AAn?$AAe?$AAM?$AAe?$AAs?$AAs?$AAa?$AAg?$AAe?$AA?0?$AA?5?$AA4?$AA0?$AA9?$AA6?$AA?0?$AA?5?$AAs?$AAz@ 000000018006bf10     LIBCMTD:dbgrptt.obj
 0002:00007fc0       ??_C@_1CG@FFFGGODN@?$AAA?$AAs?$AAs?$AAe?$AAr?$AAt?$AAi?$AAo?$AAn?$AA?5?$AAf?$AAa?$AAi?$AAl?$AAe?$AAd?$AA?3?$AA?5?$AA?$AA@ 000000018006bfc0     LIBCMTD:dbgrptt.obj
 0002:00007fe8       ??_C@_1CE@OJBNHDMO@?$AAA?$AAs?$AAs?$AAe?$AAr?$AAt?$AAi?$AAo?$AAn?$AA?5?$AAf?$AAa?$AAi?$AAl?$AAe?$AAd?$AA?$CB?$AA?$AA@ 000000018006bfe8     LIBCMTD:dbgrptt.obj
 0002:00008010       ??_C@_1FK@HPADHBBD@?$AAw?$AAc?$AAs?$AAc?$AAa?$AAt?$AA_?$AAs?$AA?$CI?$AAs?$AAz?$AAL?$AAi?$AAn?$AAe?$AAM?$AAe?$AAs?$AAs?$AAa?$AAg?$AAe?$AA?0?$AA?5?$AA4?$AA0?$AA9?$AA6?$AA?0?$AA?5?$AAs?$AAz@ 000000018006c010     LIBCMTD:dbgrptt.obj
 0002:00008070       ??_C@_1EK@NMDFGHMF@?$AAw?$AAc?$AAs?$AAc?$AAa?$AAt?$AA_?$AAs?$AA?$CI?$AAs?$AAz?$AAL?$AAi?$AAn?$AAe?$AAM?$AAe?$AAs?$AAs?$AAa?$AAg?$AAe?$AA?0?$AA?5?$AA4?$AA0?$AA9?$AA6?$AA?0?$AA?5?$AAL?$AA?$CC@ 000000018006c070     LIBCMTD:dbgrptt.obj
 0002:000080bc       ??_C@_13CMNBPIDO@?$AA?$AN?$AA?$AA@ 000000018006c0bc     LIBCMTD:dbgrptt.obj
 0002:000080c0       ??_C@_1EK@PHCBEDKB@?$AAw?$AAc?$AAs?$AAc?$AAa?$AAt?$AA_?$AAs?$AA?$CI?$AAs?$AAz?$AAL?$AAi?$AAn?$AAe?$AAM?$AAe?$AAs?$AAs?$AAa?$AAg?$AAe?$AA?0?$AA?5?$AA4?$AA0?$AA9?$AA6?$AA?0?$AA?5?$AAL?$AA?$CC@ 000000018006c0c0     LIBCMTD:dbgrptt.obj
 0002:00008110       ??_C@_1BI@JIDBEPIG@?$AA?$CF?$AAs?$AA?$CI?$AA?$CF?$AAd?$AA?$CJ?$AA?5?$AA?3?$AA?5?$AA?$CF?$AAs?$AA?$AA@ 000000018006c110     LIBCMTD:dbgrptt.obj
 0002:00008130       ??_C@_1FI@DBAIJPJE@?$AAw?$AAc?$AAs?$AAc?$AAp?$AAy?$AA_?$AAs?$AA?$CI?$AAs?$AAz?$AAO?$AAu?$AAt?$AAM?$AAe?$AAs?$AAs?$AAa?$AAg?$AAe?$AA?0?$AA?5?$AA4?$AA0?$AA9?$AA6?$AA?0?$AA?5?$AAs?$AAz?$AAL@ 000000018006c130     LIBCMTD:dbgrptt.obj
 0002:00008190       ??_C@_1JC@EOAPFDLN@?$AAw?$AAc?$AAs?$AAt?$AAo?$AAm?$AAb?$AAs?$AA_?$AAs?$AA?$CI?$AA?$CI?$AA?$CI?$AAv?$AAo?$AAi?$AAd?$AA?5?$AA?$CK?$AA?$CJ?$AA0?$AA?$CJ?$AA?0?$AA?5?$AAs?$AAz?$AAO?$AAu?$AAt?$AAM?$AAe?$AAs@ 000000018006c190     LIBCMTD:dbgrptt.obj
 0002:00008230       ??_C@_1MA@LBAMNNOB@?$AAs?$AAt?$AAr?$AAc?$AAp?$AAy?$AA_?$AAs?$AA?$CI?$AAs?$AAz?$AAO?$AAu?$AAt?$AAM?$AAe?$AAs?$AAs?$AAa?$AAg?$AAe?$AA2?$AA?0?$AA?5?$AA4?$AA0?$AA9?$AA6?$AA?0?$AA?5?$AA?$CC?$AA_@ 000000018006c230     LIBCMTD:dbgrptt.obj
 0002:000082f0       ??_C@_0DP@GNPEPHJD@_CrtDbgReport?3?5String?5too?5long?5o@ 000000018006c2f0     LIBCMTD:dbgrptt.obj
 0002:00008330       ??_C@_1IE@CPGKIAGP@?$AAw?$AAc?$AAs?$AAt?$AAo?$AAm?$AAb?$AAs?$AA_?$AAs?$AA?$CI?$AA?$CG?$AAr?$AAe?$AAt?$AA?0?$AA?5?$AAs?$AAz?$AAa?$AAO?$AAu?$AAt?$AAM?$AAe?$AAs?$AAs?$AAa?$AAg?$AAe?$AA?0?$AA?5@ 000000018006c330     LIBCMTD:dbgrptt.obj
 0002:000083c0       ??_C@_1FA@EDIAPAPE@?$AAf?$AA?3?$AA?2?$AAd?$AAd?$AA?2?$AAv?$AAc?$AAt?$AAo?$AAo?$AAl?$AAs?$AA?2?$AAc?$AAr?$AAt?$AA?2?$AAc?$AAr?$AAt?$AAw?$AA3?$AA2?$AA?2?$AAh?$AA?2?$AAt?$AAc?$AAs?$AAc?$AAa@ 000000018006c3c0     LIBCMTD:wcscat_s.obj
 0002:00008410       ??_C@_1BC@PLIEPKPJ@?$AAw?$AAc?$AAs?$AAc?$AAa?$AAt?$AA_?$AAs?$AA?$AA@ 000000018006c410     LIBCMTD:wcscat_s.obj
 0002:00008428       ??_C@_1DM@FHLMIEG@?$AAS?$AAt?$AAr?$AAi?$AAn?$AAg?$AA?5?$AAi?$AAs?$AA?5?$AAn?$AAo?$AAt?$AA?5?$AAn?$AAu?$AAl?$AAl?$AA?5?$AAt?$AAe?$AAr?$AAm?$AAi?$AAn?$AAa?$AAt?$AAe?$AAd?$AA?$AA@ 000000018006c428     LIBCMTD:wcscat_s.obj
 0002:00008470       ??_C@_1FA@MJKDNFFB@?$AA?$CI?$AAL?$AA?$CC?$AAS?$AAt?$AAr?$AAi?$AAn?$AAg?$AA?5?$AAi?$AAs?$AA?5?$AAn?$AAo?$AAt?$AA?5?$AAn?$AAu?$AAl?$AAl?$AA?5?$AAt?$AAe?$AAr?$AAm?$AAi?$AAn?$AAa?$AAt?$AAe?$AAd@ 000000018006c470     LIBCMTD:wcscat_s.obj
 0002:000084c0       ??_C@_1FC@LFLBLJJB@?$AAf?$AA?3?$AA?2?$AAd?$AAd?$AA?2?$AAv?$AAc?$AAt?$AAo?$AAo?$AAl?$AAs?$AA?2?$AAc?$AAr?$AAt?$AA?2?$AAc?$AAr?$AAt?$AAw?$AA3?$AA2?$AA?2?$AAh?$AA?2?$AAt?$AAc?$AAs?$AAn?$AAc@ 000000018006c4c0     LIBCMTD:wcsncpy_s.obj
 0002:00008518       ??_C@_1BE@PMMBFFCC@?$AAw?$AAc?$AAs?$AAn?$AAc?$AAp?$AAy?$AA_?$AAs?$AA?$AA@ 000000018006c518     LIBCMTD:wcsncpy_s.obj
 0002:00008530       ??_C@_1DE@BCNCAIK@?$AA?$CI?$AA?$CC?$AAI?$AAn?$AAv?$AAa?$AAl?$AAi?$AAd?$AA?5?$AAe?$AAr?$AAr?$AAo?$AAr?$AA_?$AAm?$AAo?$AAd?$AAe?$AA?$CC?$AA?0?$AA?5?$AA0?$AA?$CJ?$AA?$AA@ 000000018006c530     LIBCMTD:errmode.obj
 0002:00008570       ??_C@_1FA@PBBGNIFD@?$AAf?$AA?3?$AA?2?$AAd?$AAd?$AA?2?$AAv?$AAc?$AAt?$AAo?$AAo?$AAl?$AAs?$AA?2?$AAc?$AAr?$AAt?$AA?2?$AAc?$AAr?$AAt?$AAw?$AA3?$AA2?$AA?2?$AAm?$AAi?$AAs?$AAc?$AA?2?$AAe?$AAr@ 000000018006c570     LIBCMTD:errmode.obj
 0002:000085c0       ??_C@_1CA@LFDHAMEM@?$AA_?$AAs?$AAe?$AAt?$AA_?$AAe?$AAr?$AAr?$AAo?$AAr?$AA_?$AAm?$AAo?$AAd?$AAe?$AA?$AA@ 000000018006c5c0     LIBCMTD:errmode.obj
 0002:000085e0       ??_C@_1BE@NDMJHJJG@?$AAs?$AAt?$AAr?$AAn?$AAc?$AAp?$AAy?$AA_?$AAs?$AA?$AA@ 000000018006c5e0     LIBCMTD:strncpy_s.obj
 0002:00008600       LcidToLocaleNameTable      000000018006c600     LIBCMTD:winapinls.obj
 0002:00009440       LocaleNameToIndexTable     000000018006d440     LIBCMTD:winapinls.obj
 0002:0000a280       ??_C@_15EMKDOKLE@?$AAa?$AAr?$AA?$AA@ 000000018006e280     LIBCMTD:winapinls.obj
 0002:0000a288       ??_C@_15KNPADPLH@?$AAb?$AAg?$AA?$AA@ 000000018006e288     LIBCMTD:winapinls.obj
 0002:0000a290       ??_C@_15EDMHLDMO@?$AAc?$AAa?$AA?$AA@ 000000018006e290     LIBCMTD:winapinls.obj
 0002:0000a298       ??_C@_1O@BPEAJADD@?$AAz?$AAh?$AA?9?$AAC?$AAH?$AAS?$AA?$AA@ 000000018006e298     LIBCMTD:winapinls.obj
 0002:0000a2a8       ??_C@_15LJNHCMNK@?$AAc?$AAs?$AA?$AA@ 000000018006e2a8     LIBCMTD:winapinls.obj
 0002:0000a2b0       ??_C@_15FOMCIDHG@?$AAd?$AAa?$AA?$AA@ 000000018006e2b0     LIBCMTD:winapinls.obj
 0002:0000a2b8       ??_C@_15NBKABECB@?$AAd?$AAe?$AA?$AA@ 000000018006e2b8     LIBCMTD:winapinls.obj
 0002:0000a2c0       ??_C@_15GHPEIIAO@?$AAe?$AAl?$AA?$AA@ 000000018006e2c0     LIBCMTD:winapinls.obj
 0002:0000a2c8       ??_C@_15MNPNEAIF@?$AAe?$AAn?$AA?$AA@ 000000018006e2c8     LIBCMTD:winapinls.obj
 0002:0000a2d0       ??_C@_15GPIOMPMH@?$AAe?$AAs?$AA?$AA@ 000000018006e2d0     LIBCMTD:winapinls.obj
 0002:0000a2d8       ??_C@_15NGLOAKJC@?$AAf?$AAi?$AA?$AA@ 000000018006e2d8     LIBCMTD:winapinls.obj
 0002:0000a2e0       ??_C@_15FBKGNKAM@?$AAf?$AAr?$AA?$AA@ 000000018006e2e0     LIBCMTD:winapinls.obj
 0002:0000a2e8       ??_C@_15KGGCNEFK@?$AAh?$AAe?$AA?$AA@ 000000018006e2e8     LIBCMTD:winapinls.obj
 0002:0000a2f0       ??_C@_15PGHLIDMF@?$AAh?$AAu?$AA?$AA@ 000000018006e2f0     LIBCMTD:winapinls.obj
 0002:0000a2f8       ??_C@_15BIEMAPLM@?$AAi?$AAs?$AA?$AA@ 000000018006e2f8     LIBCMTD:winapinls.obj
 0002:0000a300       ??_C@_15IFJLDHAF@?$AAi?$AAt?$AA?$AA@ 000000018006e300     LIBCMTD:winapinls.obj
 0002:0000a308       ??_C@_15GEMIOCAG@?$AAj?$AAa?$AA?$AA@ 000000018006e308     LIBCMTD:winapinls.obj
 0002:0000a310       ??_C@_15EPELEGJA@?$AAk?$AAo?$AA?$AA@ 000000018006e310     LIBCMTD:winapinls.obj
 0002:0000a318       ??_C@_15NDDHIMN@?$AAn?$AAl?$AA?$AA@ 000000018006e318     LIBCMTD:winapinls.obj
 0002:0000a320       ??_C@_15BPIGNHCD@?$AAn?$AAo?$AA?$AA@ 000000018006e320     LIBCMTD:winapinls.obj
 0002:0000a328       ??_C@_15DEOPBLCG@?$AAp?$AAl?$AA?$AA@ 000000018006e328     LIBCMTD:winapinls.obj
 0002:0000a330       ??_C@_15KBECGEFG@?$AAp?$AAt?$AA?$AA@ 000000018006e330     LIBCMTD:winapinls.obj
 0002:0000a338       ??_C@_15GLJCBFMD@?$AAr?$AAo?$AA?$AA@ 000000018006e338     LIBCMTD:winapinls.obj
 0002:0000a340       ??_C@_15FEDGKCDI@?$AAr?$AAu?$AA?$AA@ 000000018006e340     LIBCMTD:winapinls.obj
 0002:0000a348       ??_C@_15GLKMLLHM@?$AAh?$AAr?$AA?$AA@ 000000018006e348     LIBCMTD:winapinls.obj
 0002:0000a350       ??_C@_15CPKMFBDB@?$AAs?$AAk?$AA?$AA@ 000000018006e350     LIBCMTD:winapinls.obj
 0002:0000a358       ??_C@_15BAAIOGMK@?$AAs?$AAq?$AA?$AA@ 000000018006e358     LIBCMTD:winapinls.obj
 0002:0000a360       ??_C@_15INNPNOHD@?$AAs?$AAv?$AA?$AA@ 000000018006e360     LIBCMTD:winapinls.obj
 0002:0000a368       ??_C@_15CABMMOGH@?$AAt?$AAh?$AA?$AA@ 000000018006e368     LIBCMTD:winapinls.obj
 0002:0000a370       ??_C@_15BPLIHJJM@?$AAt?$AAr?$AA?$AA@ 000000018006e370     LIBCMTD:winapinls.obj
 0002:0000a378       ??_C@_15NEOEKKDJ@?$AAu?$AAr?$AA?$AA@ 000000018006e378     LIBCMTD:winapinls.obj
 0002:0000a380       ??_C@_15NFICGAJK@?$AAi?$AAd?$AA?$AA@ 000000018006e380     LIBCMTD:winapinls.obj
 0002:0000a388       ??_C@_15PJPFLCCM@?$AAu?$AAk?$AA?$AA@ 000000018006e388     LIBCMTD:winapinls.obj
 0002:0000a390       ??_C@_15HPJPHDM@?$AAb?$AAe?$AA?$AA@ 000000018006e390     LIBCMTD:winapinls.obj
 0002:0000a398       ??_C@_15LCHLGJII@?$AAs?$AAl?$AA?$AA@ 000000018006e398     LIBCMTD:winapinls.obj
 0002:0000a3a0       ??_C@_15PCFJPHHO@?$AAe?$AAt?$AA?$AA@ 000000018006e3a0     LIBCMTD:winapinls.obj
 0002:0000a3a8       ??_C@_15HPFPGODN@?$AAl?$AAv?$AA?$AA@ 000000018006e3a8     LIBCMTD:winapinls.obj
 0002:0000a3b0       ??_C@_15NFFGKGLG@?$AAl?$AAt?$AA?$AA@ 000000018006e3b0     LIBCMTD:winapinls.obj
 0002:0000a3b8       ??_C@_15BDAKCCHN@?$AAf?$AAa?$AA?$AA@ 000000018006e3b8     LIBCMTD:winapinls.obj
 0002:0000a3c0       ??_C@_15NFGIAIAJ@?$AAv?$AAi?$AA?$AA@ 000000018006e3c0     LIBCMTD:winapinls.obj
 0002:0000a3c8       ??_C@_15LMKNDMHN@?$AAh?$AAy?$AA?$AA@ 000000018006e3c8     LIBCMTD:winapinls.obj
 0002:0000a3d0       ??_C@_15IJBHMCFL@?$AAa?$AAz?$AA?$AA@ 000000018006e3d0     LIBCMTD:winapinls.obj
 0002:0000a3d8       ??_C@_15EKOFJABL@?$AAe?$AAu?$AA?$AA@ 000000018006e3d8     LIBCMTD:winapinls.obj
 0002:0000a3e0       ??_C@_15BGHADCNK@?$AAm?$AAk?$AA?$AA@ 000000018006e3e0     LIBCMTD:winapinls.obj
 0002:0000a3e8       ??_C@_15JDNICKHM@?$AAa?$AAf?$AA?$AA@ 000000018006e3e8     LIBCMTD:winapinls.obj
 0002:0000a3f0       ??_C@_15KPJEDBKD@?$AAk?$AAa?$AA?$AA@ 000000018006e3f0     LIBCMTD:winapinls.obj
 0002:0000a3f8       ??_C@_15PDNFFFEO@?$AAf?$AAo?$AA?$AA@ 000000018006e3f8     LIBCMTD:winapinls.obj
 0002:0000a400       ??_C@_15OMLEGLOC@?$AAh?$AAi?$AA?$AA@ 000000018006e400     LIBCMTD:winapinls.obj
 0002:0000a408       ??_C@_15IDNNENKK@?$AAm?$AAs?$AA?$AA@ 000000018006e408     LIBCMTD:winapinls.obj
 0002:0000a410       ??_C@_15MACJNBMH@?$AAk?$AAk?$AA?$AA@ 000000018006e410     LIBCMTD:winapinls.obj
 0002:0000a418       ??_C@_15DKDJEOND@?$AAk?$AAy?$AA?$AA@ 000000018006e418     LIBCMTD:winapinls.obj
 0002:0000a420       ??_C@_15DFGDLJBG@?$AAs?$AAw?$AA?$AA@ 000000018006e420     LIBCMTD:winapinls.obj
 0002:0000a428       ??_C@_15BBFAICNG@?$AAu?$AAz?$AA?$AA@ 000000018006e428     LIBCMTD:winapinls.obj
 0002:0000a430       ??_C@_15DKNDCGEA@?$AAt?$AAt?$AA?$AA@ 000000018006e430     LIBCMTD:winapinls.obj
 0002:0000a438       ??_C@_15MGIFMDPL@?$AAp?$AAa?$AA?$AA@ 000000018006e438     LIBCMTD:winapinls.obj
 0002:0000a440       ??_C@_15HCNDBBA@?$AAg?$AAu?$AA?$AA@ 000000018006e440     LIBCMTD:winapinls.obj
 0002:0000a448       ??_C@_15FNBEIBON@?$AAt?$AAa?$AA?$AA@ 000000018006e448     LIBCMTD:winapinls.obj
 0002:0000a450       ??_C@_15NCHGBGLK@?$AAt?$AAe?$AA?$AA@ 000000018006e450     LIBCMTD:winapinls.obj
 0002:0000a458       ??_C@_15PHPHCBPF@?$AAk?$AAn?$AA?$AA@ 000000018006e458     LIBCMTD:winapinls.obj
 0002:0000a460       ??_C@_15DLGBCKMP@?$AAm?$AAr?$AA?$AA@ 000000018006e460     LIBCMTD:winapinls.obj
 0002:0000a468       ??_C@_15EABBLBFF@?$AAs?$AAa?$AA?$AA@ 000000018006e468     LIBCMTD:winapinls.obj
 0002:0000a470       ??_C@_15CBKOMCOI@?$AAm?$AAn?$AA?$AA@ 000000018006e470     LIBCMTD:winapinls.obj
 0002:0000a478       ??_C@_15CKDMCJAF@?$AAg?$AAl?$AA?$AA@ 000000018006e478     LIBCMTD:winapinls.obj
 0002:0000a480       ??_C@_17CNJFBPG@?$AAk?$AAo?$AAk?$AA?$AA@ 000000018006e480     LIBCMTD:winapinls.obj
 0002:0000a488       ??_C@_17FFBJICPL@?$AAs?$AAy?$AAr?$AA?$AA@ 000000018006e488     LIBCMTD:winapinls.obj
 0002:0000a490       ??_C@_17KPNDCPAF@?$AAd?$AAi?$AAv?$AA?$AA@ 000000018006e490     LIBCMTD:winapinls.obj
 0002:0000a498       ??_C@_1M@OKAHONE@?$AAa?$AAr?$AA?9?$AAS?$AAA?$AA?$AA@ 000000018006e498     LIBCMTD:winapinls.obj
 0002:0000a4a8       ??_C@_1M@FFFIGIGK@?$AAb?$AAg?$AA?9?$AAB?$AAG?$AA?$AA@ 000000018006e4a8     LIBCMTD:winapinls.obj
 0002:0000a4b8       ??_C@_1M@BJNKEDC@?$AAc?$AAa?$AA?9?$AAE?$AAS?$AA?$AA@ 000000018006e4b8     LIBCMTD:winapinls.obj
 0002:0000a4c8       ??_C@_1M@IJJHFJHA@?$AAc?$AAs?$AA?9?$AAC?$AAZ?$AA?$AA@ 000000018006e4c8     LIBCMTD:winapinls.obj
 0002:0000a4d8       ??_C@_1M@CLPEOBGI@?$AAd?$AAa?$AA?9?$AAD?$AAK?$AA?$AA@ 000000018006e4d8     LIBCMTD:winapinls.obj
 0002:0000a4e8       ??_C@_1M@MCMADGCB@?$AAd?$AAe?$AA?9?$AAD?$AAE?$AA?$AA@ 000000018006e4e8     LIBCMTD:winapinls.obj
 0002:0000a4f8       ??_C@_1M@OOCKEMAM@?$AAe?$AAl?$AA?9?$AAG?$AAR?$AA?$AA@ 000000018006e4f8     LIBCMTD:winapinls.obj
 0002:0000a508       ??_C@_1M@DDNJFGID@?$AAf?$AAi?$AA?9?$AAF?$AAI?$AA?$AA@ 000000018006e508     LIBCMTD:winapinls.obj
 0002:0000a518       ??_C@_1M@GLIPPMAC@?$AAf?$AAr?$AA?9?$AAF?$AAR?$AA?$AA@ 000000018006e518     LIBCMTD:winapinls.obj
 0002:0000a528       ??_C@_1M@GFMCHPE@?$AAh?$AAe?$AA?9?$AAI?$AAL?$AA?$AA@ 000000018006e528     LIBCMTD:winapinls.obj
 0002:0000a538       ??_C@_1M@MHLPGNKM@?$AAh?$AAu?$AA?9?$AAH?$AAU?$AA?$AA@ 000000018006e538     LIBCMTD:winapinls.obj
 0002:0000a548       ??_C@_1M@LPDDNNPN@?$AAi?$AAs?$AA?9?$AAI?$AAS?$AA?$AA@ 000000018006e548     LIBCMTD:winapinls.obj
 0002:0000a558       ??_C@_1M@MADIPODN@?$AAi?$AAt?$AA?9?$AAI?$AAT?$AA?$AA@ 000000018006e558     LIBCMTD:winapinls.obj
 0002:0000a568       ??_C@_1M@IHBJJGG@?$AAn?$AAl?$AA?9?$AAN?$AAL?$AA?$AA@ 000000018006e568     LIBCMTD:winapinls.obj
 0002:0000a578       ??_C@_1M@EANAGDL@?$AAn?$AAb?$AA?9?$AAN?$AAO?$AA?$AA@ 000000018006e578     LIBCMTD:winapinls.obj
 0002:0000a588       ??_C@_1M@NEIEMEGP@?$AAp?$AAl?$AA?9?$AAP?$AAL?$AA?$AA@ 000000018006e588     LIBCMTD:winapinls.obj
 0002:0000a598       ??_C@_1M@BOCFIGEP@?$AAp?$AAt?$AA?9?$AAB?$AAR?$AA?$AA@ 000000018006e598     LIBCMTD:winapinls.obj
 0002:0000a5a8       ??_C@_1M@IMPFOPBG@?$AAr?$AAo?$AA?9?$AAR?$AAO?$AA?$AA@ 000000018006e5a8     LIBCMTD:winapinls.obj
 0002:0000a5b8       ??_C@_1M@IDNNEJMM@?$AAr?$AAu?$AA?9?$AAR?$AAU?$AA?$AA@ 000000018006e5b8     LIBCMTD:winapinls.obj
 0002:0000a5c8       ??_C@_1M@LILEEOGM@?$AAh?$AAr?$AA?9?$AAH?$AAR?$AA?$AA@ 000000018006e5c8     LIBCMTD:winapinls.obj
 0002:0000a5d8       ??_C@_1M@FKIFEHPB@?$AAs?$AAk?$AA?9?$AAS?$AAK?$AA?$AA@ 000000018006e5d8     LIBCMTD:winapinls.obj
 0002:0000a5e8       ??_C@_1M@LJMAMNPJ@?$AAs?$AAq?$AA?9?$AAA?$AAL?$AA?$AA@ 000000018006e5e8     LIBCMTD:winapinls.obj
 0002:0000a5f8       ??_C@_1M@GIAKDKJK@?$AAs?$AAv?$AA?9?$AAS?$AAE?$AA?$AA@ 000000018006e5f8     LIBCMTD:winapinls.obj
 0002:0000a608       ??_C@_1M@MKJKIKCL@?$AAt?$AAh?$AA?9?$AAT?$AAH?$AA?$AA@ 000000018006e608     LIBCMTD:winapinls.obj
 0002:0000a618       ??_C@_1M@MFLCCMPB@?$AAt?$AAr?$AA?9?$AAT?$AAR?$AA?$AA@ 000000018006e618     LIBCMTD:winapinls.obj
 0002:0000a628       ??_C@_1M@OIJHDKJN@?$AAu?$AAr?$AA?9?$AAP?$AAK?$AA?$AA@ 000000018006e628     LIBCMTD:winapinls.obj
 0002:0000a638       ??_C@_1M@LHIPCIEK@?$AAi?$AAd?$AA?9?$AAI?$AAD?$AA?$AA@ 000000018006e638     LIBCMTD:winapinls.obj
 0002:0000a648       ??_C@_1M@MFMOBGI@?$AAu?$AAk?$AA?9?$AAU?$AAA?$AA?$AA@ 000000018006e648     LIBCMTD:winapinls.obj
 0002:0000a658       ??_C@_1M@OBGLJIPL@?$AAb?$AAe?$AA?9?$AAB?$AAY?$AA?$AA@ 000000018006e658     LIBCMTD:winapinls.obj
 0002:0000a668       ??_C@_1M@BCFAJEAD@?$AAs?$AAl?$AA?9?$AAS?$AAI?$AA?$AA@ 000000018006e668     LIBCMTD:winapinls.obj
 0002:0000a678       ??_C@_1M@FKFFEDDN@?$AAe?$AAt?$AA?9?$AAE?$AAE?$AA?$AA@ 000000018006e678     LIBCMTD:winapinls.obj
 0002:0000a688       ??_C@_1M@KGKKAACI@?$AAl?$AAv?$AA?9?$AAL?$AAV?$AA?$AA@ 000000018006e688     LIBCMTD:winapinls.obj
 0002:0000a698       ??_C@_1M@IFGBIJO@?$AAl?$AAt?$AA?9?$AAL?$AAT?$AA?$AA@ 000000018006e698     LIBCMTD:winapinls.obj
 0002:0000a6a8       ??_C@_1M@FGEAHEDM@?$AAf?$AAa?$AA?9?$AAI?$AAR?$AA?$AA@ 000000018006e6a8     LIBCMTD:winapinls.obj
 0002:0000a6b8       ??_C@_1M@KBMAIBFN@?$AAv?$AAi?$AA?9?$AAV?$AAN?$AA?$AA@ 000000018006e6b8     LIBCMTD:winapinls.obj
 0002:0000a6c8       ??_C@_1M@GPCBKDJK@?$AAh?$AAy?$AA?9?$AAA?$AAM?$AA?$AA@ 000000018006e6c8     LIBCMTD:winapinls.obj
 0002:0000a6d8       ??_C@_1BG@BECMDDJB@?$AAa?$AAz?$AA?9?$AAA?$AAZ?$AA?9?$AAL?$AAa?$AAt?$AAn?$AA?$AA@ 000000018006e6d8     LIBCMTD:winapinls.obj
 0002:0000a6f0       ??_C@_1M@MAOFCAEA@?$AAe?$AAu?$AA?9?$AAE?$AAS?$AA?$AA@ 000000018006e6f0     LIBCMTD:winapinls.obj
 0002:0000a700       ??_C@_1M@IGHABKPI@?$AAm?$AAk?$AA?9?$AAM?$AAK?$AA?$AA@ 000000018006e700     LIBCMTD:winapinls.obj
 0002:0000a710       ??_C@_1M@IAIGNEJG@?$AAt?$AAn?$AA?9?$AAZ?$AAA?$AA?$AA@ 000000018006e710     LIBCMTD:winapinls.obj
 0002:0000a720       ??_C@_1M@IIJCOJFA@?$AAx?$AAh?$AA?9?$AAZ?$AAA?$AA?$AA@ 000000018006e720     LIBCMTD:winapinls.obj
 0002:0000a730       ??_C@_1M@LGPJHNJH@?$AAz?$AAu?$AA?9?$AAZ?$AAA?$AA?$AA@ 000000018006e730     LIBCMTD:winapinls.obj
 0002:0000a740       ??_C@_1M@HOKAOIO@?$AAa?$AAf?$AA?9?$AAZ?$AAA?$AA?$AA@ 000000018006e740     LIBCMTD:winapinls.obj
 0002:0000a750       ??_C@_1M@DPCLHLIE@?$AAk?$AAa?$AA?9?$AAG?$AAE?$AA?$AA@ 000000018006e750     LIBCMTD:winapinls.obj
 0002:0000a760       ??_C@_1M@BLKMHJBI@?$AAf?$AAo?$AA?9?$AAF?$AAO?$AA?$AA@ 000000018006e760     LIBCMTD:winapinls.obj
 0002:0000a770       ??_C@_1M@LGGJAPPB@?$AAh?$AAi?$AA?9?$AAI?$AAN?$AA?$AA@ 000000018006e770     LIBCMTD:winapinls.obj
 0002:0000a780       ??_C@_1M@FIKPIHFE@?$AAm?$AAt?$AA?9?$AAM?$AAT?$AA?$AA@ 000000018006e780     LIBCMTD:winapinls.obj
 0002:0000a790       ??_C@_1M@HEGGPBFA@?$AAs?$AAe?$AA?9?$AAN?$AAO?$AA?$AA@ 000000018006e790     LIBCMTD:winapinls.obj
 0002:0000a7a0       ??_C@_1M@EIBJEEPA@?$AAm?$AAs?$AA?9?$AAM?$AAY?$AA?$AA@ 000000018006e7a0     LIBCMTD:winapinls.obj
 0002:0000a7b0       ??_C@_1M@FHLBGMPP@?$AAk?$AAk?$AA?9?$AAK?$AAZ?$AA?$AA@ 000000018006e7b0     LIBCMTD:winapinls.obj
 0002:0000a7c0       ??_C@_1M@NGJJLCGI@?$AAk?$AAy?$AA?9?$AAK?$AAG?$AA?$AA@ 000000018006e7c0     LIBCMTD:winapinls.obj
 0002:0000a7d0       ??_C@_1M@GIENNBFC@?$AAs?$AAw?$AA?9?$AAK?$AAE?$AA?$AA@ 000000018006e7d0     LIBCMTD:winapinls.obj
 0002:0000a7e0       ??_C@_1BG@NDGMJIMJ@?$AAu?$AAz?$AA?9?$AAU?$AAZ?$AA?9?$AAL?$AAa?$AAt?$AAn?$AA?$AA@ 000000018006e7e0     LIBCMTD:winapinls.obj
 0002:0000a7f8       ??_C@_1M@IDCCIHBC@?$AAt?$AAt?$AA?9?$AAR?$AAU?$AA?$AA@ 000000018006e7f8     LIBCMTD:winapinls.obj
 0002:0000a808       ??_C@_1M@LOICPMOJ@?$AAb?$AAn?$AA?9?$AAI?$AAN?$AA?$AA@ 000000018006e808     LIBCMTD:winapinls.obj
 0002:0000a818       ??_C@_1M@KPKKNEAH@?$AAp?$AAa?$AA?9?$AAI?$AAN?$AA?$AA@ 000000018006e818     LIBCMTD:winapinls.obj
 0002:0000a828       ??_C@_1M@PJGPPBOG@?$AAg?$AAu?$AA?9?$AAI?$AAN?$AA?$AA@ 000000018006e828     LIBCMTD:winapinls.obj
 0002:0000a838       ??_C@_1M@KMKMOPHI@?$AAt?$AAa?$AA?9?$AAI?$AAN?$AA?$AA@ 000000018006e838     LIBCMTD:winapinls.obj
 0002:0000a848       ??_C@_1M@KFEHEPAC@?$AAt?$AAe?$AA?9?$AAI?$AAN?$AA?$AA@ 000000018006e848     LIBCMTD:winapinls.obj
 0002:0000a858       ??_C@_1M@CDCLMGHI@?$AAk?$AAn?$AA?9?$AAI?$AAN?$AA?$AA@ 000000018006e858     LIBCMTD:winapinls.obj
 0002:0000a868       ??_C@_1M@MIODLDKF@?$AAm?$AAl?$AA?9?$AAI?$AAN?$AA?$AA@ 000000018006e868     LIBCMTD:winapinls.obj
 0002:0000a878       ??_C@_1M@PBIEACPO@?$AAm?$AAr?$AA?9?$AAI?$AAN?$AA?$AA@ 000000018006e878     LIBCMTD:winapinls.obj
 0002:0000a888       ??_C@_1M@NIDEAGPH@?$AAs?$AAa?$AA?9?$AAI?$AAN?$AA?$AA@ 000000018006e888     LIBCMTD:winapinls.obj
 0002:0000a898       ??_C@_1M@FHIHCBIO@?$AAm?$AAn?$AA?9?$AAM?$AAN?$AA?$AA@ 000000018006e898     LIBCMTD:winapinls.obj
 0002:0000a8a8       ??_C@_1M@JAIJPENP@?$AAc?$AAy?$AA?9?$AAG?$AAB?$AA?$AA@ 000000018006e8a8     LIBCMTD:winapinls.obj
 0002:0000a8b8       ??_C@_1M@PHGFBEPN@?$AAg?$AAl?$AA?9?$AAE?$AAS?$AA?$AA@ 000000018006e8b8     LIBCMTD:winapinls.obj
 0002:0000a8c8       ??_C@_1O@KPIPDNCP@?$AAk?$AAo?$AAk?$AA?9?$AAI?$AAN?$AA?$AA@ 000000018006e8c8     LIBCMTD:winapinls.obj
 0002:0000a8d8       ??_C@_1O@KNHJLDJA@?$AAs?$AAy?$AAr?$AA?9?$AAS?$AAY?$AA?$AA@ 000000018006e8d8     LIBCMTD:winapinls.obj
 0002:0000a8e8       ??_C@_1O@MKEKBLAH@?$AAd?$AAi?$AAv?$AA?9?$AAM?$AAV?$AA?$AA@ 000000018006e8e8     LIBCMTD:winapinls.obj
 0002:0000a8f8       ??_C@_1O@OHDCKDDF@?$AAq?$AAu?$AAz?$AA?9?$AAB?$AAO?$AA?$AA@ 000000018006e8f8     LIBCMTD:winapinls.obj
 0002:0000a908       ??_C@_1M@LEPJNLFD@?$AAn?$AAs?$AA?9?$AAZ?$AAA?$AA?$AA@ 000000018006e908     LIBCMTD:winapinls.obj
 0002:0000a918       ??_C@_1M@OMLEIIJB@?$AAm?$AAi?$AA?9?$AAN?$AAZ?$AA?$AA@ 000000018006e918     LIBCMTD:winapinls.obj
 0002:0000a928       ??_C@_1M@PMPEAILG@?$AAa?$AAr?$AA?9?$AAI?$AAQ?$AA?$AA@ 000000018006e928     LIBCMTD:winapinls.obj
 0002:0000a938       ??_C@_1M@CNKPNOEE@?$AAd?$AAe?$AA?9?$AAC?$AAH?$AA?$AA@ 000000018006e938     LIBCMTD:winapinls.obj
 0002:0000a948       ??_C@_1M@LKMGMLKO@?$AAe?$AAn?$AA?9?$AAG?$AAB?$AA?$AA@ 000000018006e948     LIBCMTD:winapinls.obj
 0002:0000a958       ??_C@_1M@PGKJFFGL@?$AAe?$AAs?$AA?9?$AAM?$AAX?$AA?$AA@ 000000018006e958     LIBCMTD:winapinls.obj
 0002:0000a968       ??_C@_1M@DNNANBDC@?$AAf?$AAr?$AA?9?$AAB?$AAE?$AA?$AA@ 000000018006e968     LIBCMTD:winapinls.obj
 0002:0000a978       ??_C@_1M@HLGMDFHM@?$AAi?$AAt?$AA?9?$AAC?$AAH?$AA?$AA@ 000000018006e978     LIBCMTD:winapinls.obj
 0002:0000a988       ??_C@_1M@CLLBGJH@?$AAn?$AAl?$AA?9?$AAB?$AAE?$AA?$AA@ 000000018006e988     LIBCMTD:winapinls.obj
 0002:0000a998       ??_C@_1M@BODBOGLF@?$AAn?$AAn?$AA?9?$AAN?$AAO?$AA?$AA@ 000000018006e998     LIBCMTD:winapinls.obj
 0002:0000a9a8       ??_C@_1M@HFFAHKAD@?$AAp?$AAt?$AA?9?$AAP?$AAT?$AA?$AA@ 000000018006e9a8     LIBCMTD:winapinls.obj
 0002:0000a9b8       ??_C@_1BG@LNOAKHIE@?$AAs?$AAr?$AA?9?$AAS?$AAP?$AA?9?$AAL?$AAa?$AAt?$AAn?$AA?$AA@ 000000018006e9b8     LIBCMTD:winapinls.obj
 0002:0000a9d0       ??_C@_1M@HBMHBGAK@?$AAs?$AAv?$AA?9?$AAF?$AAI?$AA?$AA@ 000000018006e9d0     LIBCMTD:winapinls.obj
 0002:0000a9e0       ??_C@_1BG@DGCJGJBE@?$AAa?$AAz?$AA?9?$AAA?$AAZ?$AA?9?$AAC?$AAy?$AAr?$AAl?$AA?$AA@ 000000018006e9e0     LIBCMTD:winapinls.obj
 0002:0000a9f8       ??_C@_1M@KEJDAAHB@?$AAs?$AAe?$AA?9?$AAS?$AAE?$AA?$AA@ 000000018006e9f8     LIBCMTD:winapinls.obj
 0002:0000aa08       ??_C@_1M@HEIBJJAD@?$AAm?$AAs?$AA?9?$AAB?$AAN?$AA?$AA@ 000000018006ea08     LIBCMTD:winapinls.obj
 0002:0000aa18       ??_C@_1BG@PBGJMCEM@?$AAu?$AAz?$AA?9?$AAU?$AAZ?$AA?9?$AAC?$AAy?$AAr?$AAl?$AA?$AA@ 000000018006ea18     LIBCMTD:winapinls.obj
 0002:0000aa30       ??_C@_1O@LAOBCMDF@?$AAq?$AAu?$AAz?$AA?9?$AAE?$AAC?$AA?$AA@ 000000018006ea30     LIBCMTD:winapinls.obj
 0002:0000aa40       ??_C@_1M@POEEMAIO@?$AAa?$AAr?$AA?9?$AAE?$AAG?$AA?$AA@ 000000018006ea40     LIBCMTD:winapinls.obj
 0002:0000aa50       ??_C@_1M@EFAKDEDL@?$AAz?$AAh?$AA?9?$AAH?$AAK?$AA?$AA@ 000000018006ea50     LIBCMTD:winapinls.obj
 0002:0000aa60       ??_C@_1M@HKKIJHGI@?$AAd?$AAe?$AA?9?$AAA?$AAT?$AA?$AA@ 000000018006ea60     LIBCMTD:winapinls.obj
 0002:0000aa70       ??_C@_1M@KBFBEHJF@?$AAe?$AAn?$AA?9?$AAA?$AAU?$AA?$AA@ 000000018006ea70     LIBCMTD:winapinls.obj
 0002:0000aa80       ??_C@_1M@MNPLFAAH@?$AAe?$AAs?$AA?9?$AAE?$AAS?$AA?$AA@ 000000018006ea80     LIBCMTD:winapinls.obj
 0002:0000aa90       ??_C@_1M@HJOOJFMA@?$AAf?$AAr?$AA?9?$AAC?$AAA?$AA?$AA@ 000000018006ea90     LIBCMTD:winapinls.obj
 0002:0000aaa0       ??_C@_1BG@JPOFPNAB@?$AAs?$AAr?$AA?9?$AAS?$AAP?$AA?9?$AAC?$AAy?$AAr?$AAl?$AA?$AA@ 000000018006eaa0     LIBCMTD:winapinls.obj
 0002:0000aab8       ??_C@_1M@LNFOCMOB@?$AAs?$AAe?$AA?9?$AAF?$AAI?$AA?$AA@ 000000018006eab8     LIBCMTD:winapinls.obj
 0002:0000aac8       ??_C@_1O@MGJBOAMB@?$AAq?$AAu?$AAz?$AA?9?$AAP?$AAE?$AA?$AA@ 000000018006eac8     LIBCMTD:winapinls.obj
 0002:0000aad8       ??_C@_1M@GJINLBOK@?$AAa?$AAr?$AA?9?$AAL?$AAY?$AA?$AA@ 000000018006ead8     LIBCMTD:winapinls.obj
 0002:0000aae8       ??_C@_1M@GGMNHJNL@?$AAz?$AAh?$AA?9?$AAS?$AAG?$AA?$AA@ 000000018006eae8     LIBCMTD:winapinls.obj
 0002:0000aaf8       ??_C@_1M@HOIKODND@?$AAd?$AAe?$AA?9?$AAL?$AAU?$AA?$AA@ 000000018006eaf8     LIBCMTD:winapinls.obj
 0002:0000ab08       ??_C@_1M@DDOCCGFG@?$AAe?$AAn?$AA?9?$AAC?$AAA?$AA?$AA@ 000000018006eb08     LIBCMTD:winapinls.obj
 0002:0000ab18       ??_C@_1M@BNOEMJLF@?$AAe?$AAs?$AA?9?$AAG?$AAT?$AA?$AA@ 000000018006eb18     LIBCMTD:winapinls.obj
 0002:0000ab28       ??_C@_1M@EOGNKEK@?$AAf?$AAr?$AA?9?$AAC?$AAH?$AA?$AA@ 000000018006eb28     LIBCMTD:winapinls.obj
 0002:0000ab38       ??_C@_1M@FLIDJFHL@?$AAh?$AAr?$AA?9?$AAB?$AAA?$AA?$AA@ 000000018006eb38     LIBCMTD:winapinls.obj
 0002:0000ab48       ??_C@_1O@FMCELNAJ@?$AAs?$AAm?$AAj?$AA?9?$AAN?$AAO?$AA?$AA@ 000000018006eb48     LIBCMTD:winapinls.obj
 0002:0000ab58       ??_C@_1M@JHGLJMGJ@?$AAa?$AAr?$AA?9?$AAD?$AAZ?$AA?$AA@ 000000018006eb58     LIBCMTD:winapinls.obj
 0002:0000ab68       ??_C@_1M@JKKFDCNP@?$AAz?$AAh?$AA?9?$AAM?$AAO?$AA?$AA@ 000000018006eb68     LIBCMTD:winapinls.obj
 0002:0000ab78       ??_C@_1M@GEEFALPE@?$AAd?$AAe?$AA?9?$AAL?$AAI?$AA?$AA@ 000000018006eb78     LIBCMTD:winapinls.obj
 0002:0000ab88       ??_C@_1M@IGEOFBG@?$AAe?$AAn?$AA?9?$AAN?$AAZ?$AA?$AA@ 000000018006eb88     LIBCMTD:winapinls.obj
 0002:0000ab98       ??_C@_1M@KDBONEHP@?$AAe?$AAs?$AA?9?$AAC?$AAR?$AA?$AA@ 000000018006eb98     LIBCMTD:winapinls.obj
 0002:0000aba8       ??_C@_1M@FHMDOHNN@?$AAf?$AAr?$AA?9?$AAL?$AAU?$AA?$AA@ 000000018006eba8     LIBCMTD:winapinls.obj
 0002:0000abb8       ??_C@_1BG@NFKKMAFG@?$AAb?$AAs?$AA?9?$AAB?$AAA?$AA?9?$AAL?$AAa?$AAt?$AAn?$AA?$AA@ 000000018006ebb8     LIBCMTD:winapinls.obj
 0002:0000abd0       ??_C@_1O@IMNBEMCI@?$AAs?$AAm?$AAj?$AA?9?$AAS?$AAE?$AA?$AA@ 000000018006ebd0     LIBCMTD:winapinls.obj
 0002:0000abe0       ??_C@_1M@DHHMBNDP@?$AAa?$AAr?$AA?9?$AAM?$AAA?$AA?$AA@ 000000018006ebe0     LIBCMTD:winapinls.obj
 0002:0000abf0       ??_C@_1M@BNBLJCGH@?$AAe?$AAn?$AA?9?$AAI?$AAE?$AA?$AA@ 000000018006ebf0     LIBCMTD:winapinls.obj
 0002:0000ac00       ??_C@_1M@GEPAFMDL@?$AAe?$AAs?$AA?9?$AAP?$AAA?$AA?$AA@ 000000018006ec00     LIBCMTD:winapinls.obj
 0002:0000ac10       ??_C@_1M@OJONDMDL@?$AAf?$AAr?$AA?9?$AAM?$AAC?$AA?$AA@ 000000018006ec10     LIBCMTD:winapinls.obj
 0002:0000ac20       ??_C@_1BG@OBCNFJB@?$AAs?$AAr?$AA?9?$AAB?$AAA?$AA?9?$AAL?$AAa?$AAt?$AAn?$AA?$AA@ 000000018006ec20     LIBCMTD:winapinls.obj
 0002:0000ac38       ??_C@_1O@KEMEEGPO@?$AAs?$AAm?$AAa?$AA?9?$AAN?$AAO?$AA?$AA@ 000000018006ec38     LIBCMTD:winapinls.obj
 0002:0000ac48       ??_C@_1M@ELMGFODK@?$AAa?$AAr?$AA?9?$AAT?$AAN?$AA?$AA@ 000000018006ec48     LIBCMTD:winapinls.obj
 0002:0000ac58       ??_C@_1M@BHDLHFAF@?$AAe?$AAn?$AA?9?$AAZ?$AAA?$AA?$AA@ 000000018006ec58     LIBCMTD:winapinls.obj
 0002:0000ac68       ??_C@_1M@BMGIGLIF@?$AAe?$AAs?$AA?9?$AAD?$AAO?$AA?$AA@ 000000018006ec68     LIBCMTD:winapinls.obj
 0002:0000ac78       ??_C@_1BG@CMBHIPBE@?$AAs?$AAr?$AA?9?$AAB?$AAA?$AA?9?$AAC?$AAy?$AAr?$AAl?$AA?$AA@ 000000018006ec78     LIBCMTD:winapinls.obj
 0002:0000ac90       ??_C@_1O@HEDBLHNP@?$AAs?$AAm?$AAa?$AA?9?$AAS?$AAE?$AA?$AA@ 000000018006ec90     LIBCMTD:winapinls.obj
 0002:0000aca0       ??_C@_1M@DAGCADIM@?$AAa?$AAr?$AA?9?$AAO?$AAM?$AA?$AA@ 000000018006eca0     LIBCMTD:winapinls.obj
 0002:0000acb0       ??_C@_1M@FODLMICG@?$AAe?$AAn?$AA?9?$AAJ?$AAM?$AA?$AA@ 000000018006ecb0     LIBCMTD:winapinls.obj
 0002:0000acc0       ??_C@_1M@DNMLCIHB@?$AAe?$AAs?$AA?9?$AAV?$AAE?$AA?$AA@ 000000018006ecc0     LIBCMTD:winapinls.obj
 0002:0000acd0       ??_C@_1O@EOKHMKJK@?$AAs?$AAm?$AAs?$AA?9?$AAF?$AAI?$AA?$AA@ 000000018006ecd0     LIBCMTD:winapinls.obj
 0002:0000ace0       ??_C@_1M@CAFJMKOF@?$AAa?$AAr?$AA?9?$AAY?$AAE?$AA?$AA@ 000000018006ece0     LIBCMTD:winapinls.obj
 0002:0000acf0       ??_C@_1M@CBFHIJLI@?$AAe?$AAn?$AA?9?$AAC?$AAB?$AA?$AA@ 000000018006ecf0     LIBCMTD:winapinls.obj
 0002:0000ad00       ??_C@_1M@BGNFLDN@?$AAe?$AAs?$AA?9?$AAC?$AAO?$AA?$AA@ 000000018006ed00     LIBCMTD:winapinls.obj
 0002:0000ad10       ??_C@_1O@JMPHMAMC@?$AAs?$AAm?$AAn?$AA?9?$AAF?$AAI?$AA?$AA@ 000000018006ed10     LIBCMTD:winapinls.obj
 0002:0000ad20       ??_C@_1M@JLANABKE@?$AAa?$AAr?$AA?9?$AAS?$AAY?$AA?$AA@ 000000018006ed20     LIBCMTD:winapinls.obj
 0002:0000ad30       ??_C@_1M@HPKGCFGN@?$AAe?$AAn?$AA?9?$AAB?$AAZ?$AA?$AA@ 000000018006ed30     LIBCMTD:winapinls.obj
 0002:0000ad40       ??_C@_1M@OLJCMLGM@?$AAe?$AAs?$AA?9?$AAP?$AAE?$AA?$AA@ 000000018006ed40     LIBCMTD:winapinls.obj
 0002:0000ad50       ??_C@_1M@MKKGFKLE@?$AAa?$AAr?$AA?9?$AAJ?$AAO?$AA?$AA@ 000000018006ed50     LIBCMTD:winapinls.obj
 0002:0000ad60       ??_C@_1M@EKPGLDNI@?$AAe?$AAn?$AA?9?$AAT?$AAT?$AA?$AA@ 000000018006ed60     LIBCMTD:winapinls.obj
 0002:0000ad70       ??_C@_1M@OONGHFHE@?$AAe?$AAs?$AA?9?$AAA?$AAR?$AA?$AA@ 000000018006ed70     LIBCMTD:winapinls.obj
 0002:0000ad80       ??_C@_1M@OOJFGBHE@?$AAa?$AAr?$AA?9?$AAL?$AAB?$AA?$AA@ 000000018006ed80     LIBCMTD:winapinls.obj
 0002:0000ad90       ??_C@_1M@GCEJHNEG@?$AAe?$AAn?$AA?9?$AAZ?$AAW?$AA?$AA@ 000000018006ed90     LIBCMTD:winapinls.obj
 0002:0000ada0       ??_C@_1M@JNOCAHJI@?$AAe?$AAs?$AA?9?$AAE?$AAC?$AA?$AA@ 000000018006eda0     LIBCMTD:winapinls.obj
 0002:0000adb0       ??_C@_1M@JEFHPGGB@?$AAa?$AAr?$AA?9?$AAK?$AAW?$AA?$AA@ 000000018006edb0     LIBCMTD:winapinls.obj
 0002:0000adc0       ??_C@_1M@MLKIBJOJ@?$AAe?$AAn?$AA?9?$AAP?$AAH?$AA?$AA@ 000000018006edc0     LIBCMTD:winapinls.obj
 0002:0000add0       ??_C@_1M@BDNIPEND@?$AAe?$AAs?$AA?9?$AAC?$AAL?$AA?$AA@ 000000018006edd0     LIBCMTD:winapinls.obj
 0002:0000ade0       ??_C@_1M@MPNMEKBD@?$AAa?$AAr?$AA?9?$AAA?$AAE?$AA?$AA@ 000000018006ede0     LIBCMTD:winapinls.obj
 0002:0000adf0       ??_C@_1M@KBJALCPI@?$AAe?$AAs?$AA?9?$AAU?$AAY?$AA?$AA@ 000000018006edf0     LIBCMTD:winapinls.obj
 0002:0000ae00       ??_C@_1M@LLCCOAGA@?$AAa?$AAr?$AA?9?$AAB?$AAH?$AA?$AA@ 000000018006ee00     LIBCMTD:winapinls.obj
 0002:0000ae10       ??_C@_1M@PBFNCDEL@?$AAe?$AAs?$AA?9?$AAP?$AAY?$AA?$AA@ 000000018006ee10     LIBCMTD:winapinls.obj
 0002:0000ae20       ??_C@_1M@EDGINPNP@?$AAa?$AAr?$AA?9?$AAQ?$AAA?$AA?$AA@ 000000018006ee20     LIBCMTD:winapinls.obj
 0002:0000ae30       ??_C@_1M@MKDBIIJI@?$AAe?$AAs?$AA?9?$AAB?$AAO?$AA?$AA@ 000000018006ee30     LIBCMTD:winapinls.obj
 0002:0000ae40       ??_C@_1M@CPKKEBLD@?$AAe?$AAs?$AA?9?$AAS?$AAV?$AA?$AA@ 000000018006ee40     LIBCMTD:winapinls.obj
 0002:0000ae50       ??_C@_1M@NDBGMMJL@?$AAe?$AAs?$AA?9?$AAH?$AAN?$AA?$AA@ 000000018006ee50     LIBCMTD:winapinls.obj
 0002:0000ae60       ??_C@_1M@JIJIBHDP@?$AAe?$AAs?$AA?9?$AAN?$AAI?$AA?$AA@ 000000018006ee60     LIBCMTD:winapinls.obj
 0002:0000ae70       ??_C@_1M@CGFMKEEK@?$AAe?$AAs?$AA?9?$AAP?$AAR?$AA?$AA@ 000000018006ee70     LIBCMTD:winapinls.obj
 0002:0000ae80       ??_C@_1O@ICJHKIIK@?$AAz?$AAh?$AA?9?$AAC?$AAH?$AAT?$AA?$AA@ 000000018006ee80     LIBCMTD:winapinls.obj
 0002:0000ae90       ??_C@_15CLNEJCE@?$AAs?$AAr?$AA?$AA@ 000000018006ee90     LIBCMTD:winapinls.obj
 0002:0000ae98       ??_C@_1M@KAHEKEIG@?$AAa?$AAf?$AA?9?$AAz?$AAa?$AA?$AA@ 000000018006ee98     LIBCMTD:winapinls.obj
 0002:0000aea8       ??_C@_1M@GIECOABL@?$AAa?$AAr?$AA?9?$AAa?$AAe?$AA?$AA@ 000000018006eea8     LIBCMTD:winapinls.obj
 0002:0000aeb8       ??_C@_1M@BMLMEKGI@?$AAa?$AAr?$AA?9?$AAb?$AAh?$AA?$AA@ 000000018006eeb8     LIBCMTD:winapinls.obj
 0002:0000aec8       ??_C@_1M@DAPFDGGB@?$AAa?$AAr?$AA?9?$AAd?$AAz?$AA?$AA@ 000000018006eec8     LIBCMTD:winapinls.obj
 0002:0000aed8       ??_C@_1M@FJNKGKIG@?$AAa?$AAr?$AA?9?$AAe?$AAg?$AA?$AA@ 000000018006eed8     LIBCMTD:winapinls.obj
 0002:0000aee8       ??_C@_1M@FLGKKCLO@?$AAa?$AAr?$AA?9?$AAi?$AAq?$AA?$AA@ 000000018006eee8     LIBCMTD:winapinls.obj
 0002:0000aef8       ??_C@_1M@GNDIPALM@?$AAa?$AAr?$AA?9?$AAj?$AAo?$AA?$AA@ 000000018006eef8     LIBCMTD:winapinls.obj
 0002:0000af08       ??_C@_1M@DDMJFMGJ@?$AAa?$AAr?$AA?9?$AAk?$AAw?$AA?$AA@ 000000018006ef08     LIBCMTD:winapinls.obj
 0002:0000af18       ??_C@_1M@EJALMLHM@?$AAa?$AAr?$AA?9?$AAl?$AAb?$AA?$AA@ 000000018006ef18     LIBCMTD:winapinls.obj
 0002:0000af28       ??_C@_1M@MOBDBLOC@?$AAa?$AAr?$AA?9?$AAl?$AAy?$AA?$AA@ 000000018006ef28     LIBCMTD:winapinls.obj
 0002:0000af38       ??_C@_1M@JAOCLHDH@?$AAa?$AAr?$AA?9?$AAm?$AAa?$AA?$AA@ 000000018006ef38     LIBCMTD:winapinls.obj
 0002:0000af48       ??_C@_1M@JHPMKJIE@?$AAa?$AAr?$AA?9?$AAo?$AAm?$AA?$AA@ 000000018006ef48     LIBCMTD:winapinls.obj
 0002:0000af58       ??_C@_1M@OEPGHFNH@?$AAa?$AAr?$AA?9?$AAq?$AAa?$AA?$AA@ 000000018006ef58     LIBCMTD:winapinls.obj
 0002:0000af68       ??_C@_1M@KJDONENM@?$AAa?$AAr?$AA?9?$AAs?$AAa?$AA?$AA@ 000000018006ef68     LIBCMTD:winapinls.obj
 0002:0000af78       ??_C@_1M@DMJDKLKM@?$AAa?$AAr?$AA?9?$AAs?$AAy?$AA?$AA@ 000000018006ef78     LIBCMTD:winapinls.obj
 0002:0000af88       ??_C@_1M@OMFIPEDC@?$AAa?$AAr?$AA?9?$AAt?$AAn?$AA?$AA@ 000000018006ef88     LIBCMTD:winapinls.obj
 0002:0000af98       ??_C@_1M@IHMHGAON@?$AAa?$AAr?$AA?9?$AAy?$AAe?$AA?$AA@ 000000018006ef98     LIBCMTD:winapinls.obj
 0002:0000afa8       ??_C@_1BG@KDCPGJGB@?$AAa?$AAz?$AA?9?$AAa?$AAz?$AA?9?$AAc?$AAy?$AAr?$AAl?$AA?$AA@ 000000018006efa8     LIBCMTD:winapinls.obj
 0002:0000afc0       ??_C@_1BG@IBCKDDOE@?$AAa?$AAz?$AA?9?$AAa?$AAz?$AA?9?$AAl?$AAa?$AAt?$AAn?$AA?$AA@ 000000018006efc0     LIBCMTD:winapinls.obj
 0002:0000afd8       ??_C@_1M@EGPFDCPD@?$AAb?$AAe?$AA?9?$AAb?$AAy?$AA?$AA@ 000000018006efd8     LIBCMTD:winapinls.obj
 0002:0000afe8       ??_C@_1M@PCMGMCGC@?$AAb?$AAg?$AA?9?$AAb?$AAg?$AA?$AA@ 000000018006efe8     LIBCMTD:winapinls.obj
 0002:0000aff8       ??_C@_1M@BJBMFGOB@?$AAb?$AAn?$AA?9?$AAi?$AAn?$AA?$AA@ 000000018006eff8     LIBCMTD:winapinls.obj
 0002:0000b008       ??_C@_1BG@EAKMMACD@?$AAb?$AAs?$AA?9?$AAb?$AAa?$AA?9?$AAl?$AAa?$AAt?$AAn?$AA?$AA@ 000000018006f008     LIBCMTD:winapinls.obj
 0002:0000b020       ??_C@_1M@KGADAODK@?$AAc?$AAa?$AA?9?$AAe?$AAs?$AA?$AA@ 000000018006f020     LIBCMTD:winapinls.obj
 0002:0000b030       ??_C@_1M@COAJPDHI@?$AAc?$AAs?$AA?9?$AAc?$AAz?$AA?$AA@ 000000018006f030     LIBCMTD:winapinls.obj
 0002:0000b040       ??_C@_1M@DHBHFONH@?$AAc?$AAy?$AA?9?$AAg?$AAb?$AA?$AA@ 000000018006f040     LIBCMTD:winapinls.obj
 0002:0000b050       ??_C@_1M@IMGKELGA@?$AAd?$AAa?$AA?9?$AAd?$AAk?$AA?$AA@ 000000018006f050     LIBCMTD:winapinls.obj
 0002:0000b060       ??_C@_1M@NNDGDNGA@?$AAd?$AAe?$AA?9?$AAa?$AAt?$AA?$AA@ 000000018006f060     LIBCMTD:winapinls.obj
 0002:0000b070       ??_C@_1M@IKDBHEEM@?$AAd?$AAe?$AA?9?$AAc?$AAh?$AA?$AA@ 000000018006f070     LIBCMTD:winapinls.obj
 0002:0000b080       ??_C@_1M@GFFOJMCJ@?$AAd?$AAe?$AA?9?$AAd?$AAe?$AA?$AA@ 000000018006f080     LIBCMTD:winapinls.obj
 0002:0000b090       ??_C@_1M@MDNLKBPM@?$AAd?$AAe?$AA?9?$AAl?$AAi?$AA?$AA@ 000000018006f090     LIBCMTD:winapinls.obj
 0002:0000b0a0       ??_C@_1M@NJBEEJNL@?$AAd?$AAe?$AA?9?$AAl?$AAu?$AA?$AA@ 000000018006f0a0     LIBCMTD:winapinls.obj
 0002:0000b0b0       ??_C@_1O@GNNELBAP@?$AAd?$AAi?$AAv?$AA?9?$AAm?$AAv?$AA?$AA@ 000000018006f0b0     LIBCMTD:winapinls.obj
 0002:0000b0c0       ??_C@_1M@EJLEOGAE@?$AAe?$AAl?$AA?9?$AAg?$AAr?$AA?$AA@ 000000018006f0c0     LIBCMTD:winapinls.obj
 0002:0000b0d0       ??_C@_1M@GMPONJN@?$AAe?$AAn?$AA?9?$AAa?$AAu?$AA?$AA@ 000000018006f0d0     LIBCMTD:winapinls.obj
 0002:0000b0e0       ??_C@_1M@NIDIIPGF@?$AAe?$AAn?$AA?9?$AAb?$AAz?$AA?$AA@ 000000018006f0e0     LIBCMTD:winapinls.obj
 0002:0000b0f0       ??_C@_1M@JEHMIMFO@?$AAe?$AAn?$AA?9?$AAc?$AAa?$AA?$AA@ 000000018006f0f0     LIBCMTD:winapinls.obj
 0002:0000b100       ??_C@_1M@IGMJCDLA@?$AAe?$AAn?$AA?9?$AAc?$AAb?$AA?$AA@ 000000018006f100     LIBCMTD:winapinls.obj
 0002:0000b110       ??_C@_1M@BNFIGBKG@?$AAe?$AAn?$AA?9?$AAg?$AAb?$AA?$AA@ 000000018006f110     LIBCMTD:winapinls.obj
 0002:0000b120       ??_C@_1M@LKIFDIGP@?$AAe?$AAn?$AA?9?$AAi?$AAe?$AA?$AA@ 000000018006f120     LIBCMTD:winapinls.obj
 0002:0000b130       ??_C@_1M@PJKFGCCO@?$AAe?$AAn?$AA?9?$AAj?$AAm?$AA?$AA@ 000000018006f130     LIBCMTD:winapinls.obj
 0002:0000b140       ??_C@_1M@KPPKEPBO@?$AAe?$AAn?$AA?9?$AAn?$AAz?$AA?$AA@ 000000018006f140     LIBCMTD:winapinls.obj
 0002:0000b150       ??_C@_1M@GMDGLDOB@?$AAe?$AAn?$AA?9?$AAp?$AAh?$AA?$AA@ 000000018006f150     LIBCMTD:winapinls.obj
 0002:0000b160       ??_C@_1M@ONGIBJNA@?$AAe?$AAn?$AA?9?$AAt?$AAt?$AA?$AA@ 000000018006f160     LIBCMTD:winapinls.obj
 0002:0000b170       ??_C@_1M@LLODPCMM@?$AAe?$AAn?$AA?9?$AAu?$AAs?$AA?$AA@ 000000018006f170     LIBCMTD:winapinls.obj
 0002:0000b180       ??_C@_1M@LAKFNPAN@?$AAe?$AAn?$AA?9?$AAz?$AAa?$AA?$AA@ 000000018006f180     LIBCMTD:winapinls.obj
 0002:0000b190       ??_C@_1M@MFNHNHEO@?$AAe?$AAn?$AA?9?$AAz?$AAw?$AA?$AA@ 000000018006f190     LIBCMTD:winapinls.obj
 0002:0000b1a0       ??_C@_1M@EJEINPHM@?$AAe?$AAs?$AA?9?$AAa?$AAr?$AA?$AA@ 000000018006f1a0     LIBCMTD:winapinls.obj
 0002:0000b1b0       ??_C@_1M@GNKPCCJA@?$AAe?$AAs?$AA?9?$AAb?$AAo?$AA?$AA@ 000000018006f1b0     LIBCMTD:winapinls.obj
 0002:0000b1c0       ??_C@_1M@LEEGFONL@?$AAe?$AAs?$AA?9?$AAc?$AAl?$AA?$AA@ 000000018006f1c0     LIBCMTD:winapinls.obj
 0002:0000b1d0       ??_C@_1M@KGPDPBDF@?$AAe?$AAs?$AA?9?$AAc?$AAo?$AA?$AA@ 000000018006f1d0     LIBCMTD:winapinls.obj
 0002:0000b1e0       ??_C@_1M@EIAHOHH@?$AAe?$AAs?$AA?9?$AAc?$AAr?$AA?$AA@ 000000018006f1e0     LIBCMTD:winapinls.obj
 0002:0000b1f0       ??_C@_1M@LLPGMBIN@?$AAe?$AAs?$AA?9?$AAd?$AAo?$AA?$AA@ 000000018006f1f0     LIBCMTD:winapinls.obj
 0002:0000b200       ??_C@_1M@DKHMKNJA@?$AAe?$AAs?$AA?9?$AAe?$AAc?$AA?$AA@ 000000018006f200     LIBCMTD:winapinls.obj
 0002:0000b210       ??_C@_1M@GKGFPKAP@?$AAe?$AAs?$AA?9?$AAe?$AAs?$AA?$AA@ 000000018006f210     LIBCMTD:winapinls.obj
 0002:0000b220       ??_C@_1M@LKHKGDLN@?$AAe?$AAs?$AA?9?$AAg?$AAt?$AA?$AA@ 000000018006f220     LIBCMTD:winapinls.obj
 0002:0000b230       ??_C@_1M@HEIIGGJD@?$AAe?$AAs?$AA?9?$AAh?$AAn?$AA?$AA@ 000000018006f230     LIBCMTD:winapinls.obj
 0002:0000b240       ??_C@_1M@FBDHPPGD@?$AAe?$AAs?$AA?9?$AAm?$AAx?$AA?$AA@ 000000018006f240     LIBCMTD:winapinls.obj
 0002:0000b250       ??_C@_1M@DPAGLNDH@?$AAe?$AAs?$AA?9?$AAn?$AAi?$AA?$AA@ 000000018006f250     LIBCMTD:winapinls.obj
 0002:0000b260       ??_C@_1M@MDGOPGDD@?$AAe?$AAs?$AA?9?$AAp?$AAa?$AA?$AA@ 000000018006f260     LIBCMTD:winapinls.obj
 0002:0000b270       ??_C@_1M@EMAMGBGE@?$AAe?$AAs?$AA?9?$AAp?$AAe?$AA?$AA@ 000000018006f270     LIBCMTD:winapinls.obj
 0002:0000b280       ??_C@_1M@IBMCAOEC@?$AAe?$AAs?$AA?9?$AAp?$AAr?$AA?$AA@ 000000018006f280     LIBCMTD:winapinls.obj
 0002:0000b290       ??_C@_1M@FGMDIJED@?$AAe?$AAs?$AA?9?$AAp?$AAy?$AA?$AA@ 000000018006f290     LIBCMTD:winapinls.obj
 0002:0000b2a0       ??_C@_1M@IIDEOLLL@?$AAe?$AAs?$AA?9?$AAs?$AAv?$AA?$AA@ 000000018006f2a0     LIBCMTD:winapinls.obj
 0002:0000b2b0       ??_C@_1M@GAOBIPA@?$AAe?$AAs?$AA?9?$AAu?$AAy?$AA?$AA@ 000000018006f2b0     LIBCMTD:winapinls.obj
 0002:0000b2c0       ??_C@_1M@JKFFICHJ@?$AAe?$AAs?$AA?9?$AAv?$AAe?$AA?$AA@ 000000018006f2c0     LIBCMTD:winapinls.obj
 0002:0000b2d0       ??_C@_1M@PNMLOJDF@?$AAe?$AAt?$AA?9?$AAe?$AAe?$AA?$AA@ 000000018006f2d0     LIBCMTD:winapinls.obj
 0002:0000b2e0       ??_C@_1M@GHHLIKEI@?$AAe?$AAu?$AA?9?$AAe?$AAs?$AA?$AA@ 000000018006f2e0     LIBCMTD:winapinls.obj
 0002:0000b2f0       ??_C@_1M@PBNONODE@?$AAf?$AAa?$AA?9?$AAi?$AAr?$AA?$AA@ 000000018006f2f0     LIBCMTD:winapinls.obj
 0002:0000b300       ??_C@_1M@JEEHPMIL@?$AAf?$AAi?$AA?9?$AAf?$AAi?$AA?$AA@ 000000018006f300     LIBCMTD:winapinls.obj
 0002:0000b310       ??_C@_1M@LMDCNDBA@?$AAf?$AAo?$AA?9?$AAf?$AAo?$AA?$AA@ 000000018006f310     LIBCMTD:winapinls.obj
 0002:0000b320       ??_C@_1M@JKEOHLDK@?$AAf?$AAr?$AA?9?$AAb?$AAe?$AA?$AA@ 000000018006f320     LIBCMTD:winapinls.obj
 0002:0000b330       ??_C@_1M@NOHADPMI@?$AAf?$AAr?$AA?9?$AAc?$AAa?$AA?$AA@ 000000018006f330     LIBCMTD:winapinls.obj
 0002:0000b340       ??_C@_1M@KDHIHAEC@?$AAf?$AAr?$AA?9?$AAc?$AAh?$AA?$AA@ 000000018006f340     LIBCMTD:winapinls.obj
 0002:0000b350       ??_C@_1M@MMBBFGAK@?$AAf?$AAr?$AA?9?$AAf?$AAr?$AA?$AA@ 000000018006f350     LIBCMTD:winapinls.obj
 0002:0000b360       ??_C@_1M@PAFNENNF@?$AAf?$AAr?$AA?9?$AAl?$AAu?$AA?$AA@ 000000018006f360     LIBCMTD:winapinls.obj
 0002:0000b370       ??_C@_1M@EOHDJGDD@?$AAf?$AAr?$AA?9?$AAm?$AAc?$AA?$AA@ 000000018006f370     LIBCMTD:winapinls.obj
 0002:0000b380       ??_C@_1M@FAPLLOPF@?$AAg?$AAl?$AA?9?$AAe?$AAs?$AA?$AA@ 000000018006f380     LIBCMTD:winapinls.obj
 0002:0000b390       ??_C@_1M@FOPBFLOO@?$AAg?$AAu?$AA?9?$AAi?$AAn?$AA?$AA@ 000000018006f390     LIBCMTD:winapinls.obj
 0002:0000b3a0       ??_C@_1M@KBMCINPM@?$AAh?$AAe?$AA?9?$AAi?$AAl?$AA?$AA@ 000000018006f3a0     LIBCMTD:winapinls.obj
 0002:0000b3b0       ??_C@_1M@BBPHKFPJ@?$AAh?$AAi?$AA?9?$AAi?$AAn?$AA?$AA@ 000000018006f3b0     LIBCMTD:winapinls.obj
 0002:0000b3c0       ??_C@_1M@PMBNDPHD@?$AAh?$AAr?$AA?9?$AAb?$AAa?$AA?$AA@ 000000018006f3c0     LIBCMTD:winapinls.obj
 0002:0000b3d0       ??_C@_1M@BPCKOEGE@?$AAh?$AAr?$AA?9?$AAh?$AAr?$AA?$AA@ 000000018006f3d0     LIBCMTD:winapinls.obj
 0002:0000b3e0       ??_C@_1M@GACBMHKE@?$AAh?$AAu?$AA?9?$AAh?$AAu?$AA?$AA@ 000000018006f3e0     LIBCMTD:winapinls.obj
 0002:0000b3f0       ??_C@_1M@MILPAJJC@?$AAh?$AAy?$AA?9?$AAa?$AAm?$AA?$AA@ 000000018006f3f0     LIBCMTD:winapinls.obj
 0002:0000b400       ??_C@_1M@BABBICEC@?$AAi?$AAd?$AA?9?$AAi?$AAd?$AA?$AA@ 000000018006f400     LIBCMTD:winapinls.obj
 0002:0000b410       ??_C@_1M@BIKNHHPF@?$AAi?$AAs?$AA?9?$AAi?$AAs?$AA?$AA@ 000000018006f410     LIBCMTD:winapinls.obj
 0002:0000b420       ??_C@_1M@NMPCJPHE@?$AAi?$AAt?$AA?9?$AAc?$AAh?$AA?$AA@ 000000018006f420     LIBCMTD:winapinls.obj
 0002:0000b430       ??_C@_1M@GHKGFEDF@?$AAi?$AAt?$AA?9?$AAi?$AAt?$AA?$AA@ 000000018006f430     LIBCMTD:winapinls.obj
 0002:0000b440       ??_C@_1M@NIEJCJJA@?$AAj?$AAa?$AA?9?$AAj?$AAp?$AA?$AA@ 000000018006f440     LIBCMTD:winapinls.obj
 0002:0000b450       ??_C@_1M@JILFNBIM@?$AAk?$AAa?$AA?9?$AAg?$AAe?$AA?$AA@ 000000018006f450     LIBCMTD:winapinls.obj
 0002:0000b460       ??_C@_1M@PACPMGPH@?$AAk?$AAk?$AA?9?$AAk?$AAz?$AA?$AA@ 000000018006f460     LIBCMTD:winapinls.obj
 0002:0000b470       ??_C@_1M@IELFGMHA@?$AAk?$AAn?$AA?9?$AAi?$AAn?$AA?$AA@ 000000018006f470     LIBCMTD:winapinls.obj
 0002:0000b480       ??_C@_1O@IBBJHCH@?$AAk?$AAo?$AAk?$AA?9?$AAi?$AAn?$AA?$AA@ 000000018006f480     LIBCMTD:winapinls.obj
 0002:0000b490       ??_C@_1M@DMHAEOGC@?$AAk?$AAo?$AA?9?$AAk?$AAr?$AA?$AA@ 000000018006f490     LIBCMTD:winapinls.obj
 0002:0000b4a0       ??_C@_1M@HBAHBIGA@?$AAk?$AAy?$AA?9?$AAk?$AAg?$AA?$AA@ 000000018006f4a0     LIBCMTD:winapinls.obj
 0002:0000b4b0       ??_C@_1M@KPMILCJG@?$AAl?$AAt?$AA?9?$AAl?$AAt?$AA?$AA@ 000000018006f4b0     LIBCMTD:winapinls.obj
 0002:0000b4c0       ??_C@_1M@BDEKKCA@?$AAl?$AAv?$AA?9?$AAl?$AAv?$AA?$AA@ 000000018006f4c0     LIBCMTD:winapinls.obj
 0002:0000b4d0       ??_C@_1M@ELCKCCJJ@?$AAm?$AAi?$AA?9?$AAn?$AAz?$AA?$AA@ 000000018006f4d0     LIBCMTD:winapinls.obj
 0002:0000b4e0       ??_C@_1M@CBOOLAPA@?$AAm?$AAk?$AA?9?$AAm?$AAk?$AA?$AA@ 000000018006f4e0     LIBCMTD:winapinls.obj
 0002:0000b4f0       ??_C@_1M@GPHNBJKN@?$AAm?$AAl?$AA?9?$AAi?$AAn?$AA?$AA@ 000000018006f4f0     LIBCMTD:winapinls.obj
 0002:0000b500       ??_C@_1M@PABJILIG@?$AAm?$AAn?$AA?9?$AAm?$AAn?$AA?$AA@ 000000018006f500     LIBCMTD:winapinls.obj
 0002:0000b510       ??_C@_1M@FGBKKIPG@?$AAm?$AAr?$AA?9?$AAi?$AAn?$AA?$AA@ 000000018006f510     LIBCMTD:winapinls.obj
 0002:0000b520       ??_C@_1M@NDBPDDAL@?$AAm?$AAs?$AA?9?$AAb?$AAn?$AA?$AA@ 000000018006f520     LIBCMTD:winapinls.obj
 0002:0000b530       ??_C@_1M@OPIHOOPI@?$AAm?$AAs?$AA?9?$AAm?$AAy?$AA?$AA@ 000000018006f530     LIBCMTD:winapinls.obj
 0002:0000b540       ??_C@_1M@PPDBCNFM@?$AAm?$AAt?$AA?9?$AAm?$AAt?$AA?$AA@ 000000018006f540     LIBCMTD:winapinls.obj
 0002:0000b550       ??_C@_1M@KDJDKMDD@?$AAn?$AAb?$AA?9?$AAn?$AAo?$AA?$AA@ 000000018006f550     LIBCMTD:winapinls.obj
 0002:0000b560       ??_C@_1M@KFCFLMJP@?$AAn?$AAl?$AA?9?$AAb?$AAe?$AA?$AA@ 000000018006f560     LIBCMTD:winapinls.obj
 0002:0000b570       ??_C@_1M@KPOPDDGO@?$AAn?$AAl?$AA?9?$AAn?$AAl?$AA?$AA@ 000000018006f570     LIBCMTD:winapinls.obj
 0002:0000b580       ??_C@_1M@LJKPEMLN@?$AAn?$AAn?$AA?9?$AAn?$AAo?$AA?$AA@ 000000018006f580     LIBCMTD:winapinls.obj
 0002:0000b590       ??_C@_1M@BDGHHBFL@?$AAn?$AAs?$AA?9?$AAz?$AAa?$AA?$AA@ 000000018006f590     LIBCMTD:winapinls.obj
 0002:0000b5a0       ??_C@_1M@IDEHOAP@?$AAp?$AAa?$AA?9?$AAi?$AAn?$AA?$AA@ 000000018006f5a0     LIBCMTD:winapinls.obj
 0002:0000b5b0       ??_C@_1M@HDBKGOGH@?$AAp?$AAl?$AA?9?$AAp?$AAl?$AA?$AA@ 000000018006f5b0     LIBCMTD:winapinls.obj
 0002:0000b5c0       ??_C@_1M@LJLLCMEH@?$AAp?$AAt?$AA?9?$AAb?$AAr?$AA?$AA@ 000000018006f5c0     LIBCMTD:winapinls.obj
 0002:0000b5d0       ??_C@_1M@NCMONAAL@?$AAp?$AAt?$AA?9?$AAp?$AAt?$AA?$AA@ 000000018006f5d0     LIBCMTD:winapinls.obj
 0002:0000b5e0       ??_C@_1O@EAKMAJDN@?$AAq?$AAu?$AAz?$AA?9?$AAb?$AAo?$AA?$AA@ 000000018006f5e0     LIBCMTD:winapinls.obj
 0002:0000b5f0       ??_C@_1O@BHHPIGDN@?$AAq?$AAu?$AAz?$AA?9?$AAe?$AAc?$AA?$AA@ 000000018006f5f0     LIBCMTD:winapinls.obj
 0002:0000b600       ??_C@_1O@GBAPEKMJ@?$AAq?$AAu?$AAz?$AA?9?$AAp?$AAe?$AA?$AA@ 000000018006f600     LIBCMTD:winapinls.obj
 0002:0000b610       ??_C@_1M@CLGLEFBO@?$AAr?$AAo?$AA?9?$AAr?$AAo?$AA?$AA@ 000000018006f610     LIBCMTD:winapinls.obj
 0002:0000b620       ??_C@_1M@CEEDODME@?$AAr?$AAu?$AA?9?$AAr?$AAu?$AA?$AA@ 000000018006f620     LIBCMTD:winapinls.obj
 0002:0000b630       ??_C@_1M@HPKKKMPP@?$AAs?$AAa?$AA?9?$AAi?$AAn?$AA?$AA@ 000000018006f630     LIBCMTD:winapinls.obj
 0002:0000b640       ??_C@_1M@BKMAIGOJ@?$AAs?$AAe?$AA?9?$AAf?$AAi?$AA?$AA@ 000000018006f640     LIBCMTD:winapinls.obj
 0002:0000b650       ??_C@_1M@NDPIFLFI@?$AAs?$AAe?$AA?9?$AAn?$AAo?$AA?$AA@ 000000018006f650     LIBCMTD:winapinls.obj
 0002:0000b660       ??_C@_1M@DANKKHJ@?$AAs?$AAe?$AA?9?$AAs?$AAe?$AA?$AA@ 000000018006f660     LIBCMTD:winapinls.obj
 0002:0000b670       ??_C@_1M@PNBLONPJ@?$AAs?$AAk?$AA?9?$AAs?$AAk?$AA?$AA@ 000000018006f670     LIBCMTD:winapinls.obj
 0002:0000b680       ??_C@_1M@LFMODOAL@?$AAs?$AAl?$AA?9?$AAs?$AAi?$AA?$AA@ 000000018006f680     LIBCMTD:winapinls.obj
 0002:0000b690       ??_C@_1O@DFKOMPG@?$AAs?$AAm?$AAa?$AA?9?$AAn?$AAo?$AA?$AA@ 000000018006f690     LIBCMTD:winapinls.obj
 0002:0000b6a0       ??_C@_1O@NDKPBNNH@?$AAs?$AAm?$AAa?$AA?9?$AAs?$AAe?$AA?$AA@ 000000018006f6a0     LIBCMTD:winapinls.obj
 0002:0000b6b0       ??_C@_1O@PLLKBHAB@?$AAs?$AAm?$AAj?$AA?9?$AAn?$AAo?$AA?$AA@ 000000018006f6b0     LIBCMTD:winapinls.obj
 0002:0000b6c0       ??_C@_1O@CLEPOGCA@?$AAs?$AAm?$AAj?$AA?9?$AAs?$AAe?$AA?$AA@ 000000018006f6c0     LIBCMTD:winapinls.obj
 0002:0000b6d0       ??_C@_1O@DLGJGKMK@?$AAs?$AAm?$AAn?$AA?9?$AAf?$AAi?$AA?$AA@ 000000018006f6d0     LIBCMTD:winapinls.obj
 0002:0000b6e0       ??_C@_1O@OJDJGAJC@?$AAs?$AAm?$AAs?$AA?9?$AAf?$AAi?$AA?$AA@ 000000018006f6e0     LIBCMTD:winapinls.obj
 0002:0000b6f0       ??_C@_1M@BOFOGHPB@?$AAs?$AAq?$AA?9?$AAa?$AAl?$AA?$AA@ 000000018006f6f0     LIBCMTD:winapinls.obj
 0002:0000b700       ??_C@_1BG@LJBBIPGB@?$AAs?$AAr?$AA?9?$AAb?$AAa?$AA?9?$AAc?$AAy?$AAr?$AAl?$AA?$AA@ 000000018006f700     LIBCMTD:winapinls.obj
 0002:0000b718       ??_C@_1BG@JLBENFOE@?$AAs?$AAr?$AA?9?$AAb?$AAa?$AA?9?$AAl?$AAa?$AAt?$AAn?$AA?$AA@ 000000018006f718     LIBCMTD:winapinls.obj
 0002:0000b730       ??_C@_1BG@KODPNHE@?$AAs?$AAr?$AA?9?$AAs?$AAp?$AA?9?$AAc?$AAy?$AAr?$AAl?$AA?$AA@ 000000018006f730     LIBCMTD:winapinls.obj
 0002:0000b748       ??_C@_1BG@CIOGKHPB@?$AAs?$AAr?$AA?9?$AAs?$AAp?$AA?9?$AAl?$AAa?$AAt?$AAn?$AA?$AA@ 000000018006f748     LIBCMTD:winapinls.obj
 0002:0000b760       ??_C@_1M@NGFJLMAC@?$AAs?$AAv?$AA?9?$AAf?$AAi?$AA?$AA@ 000000018006f760     LIBCMTD:winapinls.obj
 0002:0000b770       ??_C@_1M@MPJEJAJC@?$AAs?$AAv?$AA?9?$AAs?$AAe?$AA?$AA@ 000000018006f770     LIBCMTD:winapinls.obj
 0002:0000b780       ??_C@_1M@MPNDHLFK@?$AAs?$AAw?$AA?9?$AAk?$AAe?$AA?$AA@ 000000018006f780     LIBCMTD:winapinls.obj
 0002:0000b790       ??_C@_1O@KOHBJJI@?$AAs?$AAy?$AAr?$AA?9?$AAs?$AAy?$AA?$AA@ 000000018006f790     LIBCMTD:winapinls.obj
 0002:0000b7a0       ??_C@_1M@LDCEFHA@?$AAt?$AAa?$AA?9?$AAi?$AAn?$AA?$AA@ 000000018006f7a0     LIBCMTD:winapinls.obj
 0002:0000b7b0       ??_C@_1M@CNJOFAK@?$AAt?$AAe?$AA?9?$AAi?$AAn?$AA?$AA@ 000000018006f7b0     LIBCMTD:winapinls.obj
 0002:0000b7c0       ??_C@_1M@GNAECACD@?$AAt?$AAh?$AA?9?$AAt?$AAh?$AA?$AA@ 000000018006f7c0     LIBCMTD:winapinls.obj
 0002:0000b7d0       ??_C@_1M@CHBIHOJO@?$AAt?$AAn?$AA?9?$AAz?$AAa?$AA?$AA@ 000000018006f7d0     LIBCMTD:winapinls.obj
 0002:0000b7e0       ??_C@_1M@GCCMIGPJ@?$AAt?$AAr?$AA?9?$AAt?$AAr?$AA?$AA@ 000000018006f7e0     LIBCMTD:winapinls.obj
 0002:0000b7f0       ??_C@_1M@CELMCNBK@?$AAt?$AAt?$AA?9?$AAr?$AAu?$AA?$AA@ 000000018006f7f0     LIBCMTD:winapinls.obj
 0002:0000b800       ??_C@_1M@KLMCELGA@?$AAu?$AAk?$AA?9?$AAu?$AAa?$AA?$AA@ 000000018006f800     LIBCMTD:winapinls.obj
 0002:0000b810       ??_C@_1M@EPAJJAJF@?$AAu?$AAr?$AA?9?$AAp?$AAk?$AA?$AA@ 000000018006f810     LIBCMTD:winapinls.obj
 0002:0000b820       ??_C@_1BG@GEGPMCDJ@?$AAu?$AAz?$AA?9?$AAu?$AAz?$AA?9?$AAc?$AAy?$AAr?$AAl?$AA?$AA@ 000000018006f820     LIBCMTD:winapinls.obj
 0002:0000b838       ??_C@_1BG@EGGKJILM@?$AAu?$AAz?$AA?9?$AAu?$AAz?$AA?9?$AAl?$AAa?$AAt?$AAn?$AA?$AA@ 000000018006f838     LIBCMTD:winapinls.obj
 0002:0000b850       ??_C@_1M@GFOCLFF@?$AAv?$AAi?$AA?9?$AAv?$AAn?$AA?$AA@ 000000018006f850     LIBCMTD:winapinls.obj
 0002:0000b860       ??_C@_1M@CPAMEDFI@?$AAx?$AAh?$AA?9?$AAz?$AAa?$AA?$AA@ 000000018006f860     LIBCMTD:winapinls.obj
 0002:0000b870       ??_C@_1O@EBKIFIGN@?$AAz?$AAh?$AA?9?$AAc?$AAh?$AAs?$AA?$AA@ 000000018006f870     LIBCMTD:winapinls.obj
 0002:0000b880       ??_C@_1O@NMHPGANE@?$AAz?$AAh?$AA?9?$AAc?$AAh?$AAt?$AA?$AA@ 000000018006f880     LIBCMTD:winapinls.obj
 0002:0000b890       ??_C@_1M@LPINJOMC@?$AAz?$AAh?$AA?9?$AAc?$AAn?$AA?$AA@ 000000018006f890     LIBCMTD:winapinls.obj
 0002:0000b8a0       ??_C@_1M@OCJEJODD@?$AAz?$AAh?$AA?9?$AAh?$AAk?$AA?$AA@ 000000018006f8a0     LIBCMTD:winapinls.obj
 0002:0000b8b0       ??_C@_1M@DNDLJINH@?$AAz?$AAh?$AA?9?$AAm?$AAo?$AA?$AA@ 000000018006f8b0     LIBCMTD:winapinls.obj
 0002:0000b8c0       ??_C@_1M@MBFDNDND@?$AAz?$AAh?$AA?9?$AAs?$AAg?$AA?$AA@ 000000018006f8c0     LIBCMTD:winapinls.obj
 0002:0000b8d0       ??_C@_1M@IMEPLEPE@?$AAz?$AAh?$AA?9?$AAt?$AAw?$AA?$AA@ 000000018006f8d0     LIBCMTD:winapinls.obj
 0002:0000b8e0       ??_C@_1M@BBGHNHJP@?$AAz?$AAu?$AA?9?$AAz?$AAa?$AA?$AA@ 000000018006f8e0     LIBCMTD:winapinls.obj
 0002:0000b8f0       ??_C@_1FE@HAPBHJIC@?$AAf?$AA?3?$AA?2?$AAd?$AAd?$AA?2?$AAv?$AAc?$AAt?$AAo?$AAo?$AAl?$AAs?$AA?2?$AAc?$AAr?$AAt?$AA?2?$AAc?$AAr?$AAt?$AAw?$AA3?$AA2?$AA?2?$AAm?$AAi?$AAs?$AAc?$AA?2?$AAw?$AAi@ 000000018006f8f0     LIBCMTD:winapinls.obj
 0002:0000b948       ??_C@_1DO@MBHJDOGM@?$AA_?$AA_?$AAc?$AAr?$AAt?$AAD?$AAo?$AAw?$AAn?$AAl?$AAe?$AAv?$AAe?$AAl?$AAL?$AAC?$AAI?$AAD?$AAT?$AAo?$AAL?$AAo?$AAc?$AAa?$AAl?$AAe?$AAN?$AAa?$AAm?$AAe?$AA?$AA@ 000000018006f948     LIBCMTD:winapinls.obj
 0002:0000b990       ??_C@_1FO@LFACCMJH@?$AAw?$AAc?$AAs?$AAc?$AAp?$AAy?$AA_?$AAs?$AA?$CI?$AAo?$AAu?$AAt?$AAL?$AAo?$AAc?$AAa?$AAl?$AAe?$AAN?$AAa?$AAm?$AAe?$AA?0?$AA?5?$AAc?$AAc?$AAh?$AAL?$AAo?$AAc?$AAa?$AAl@ 000000018006f990     LIBCMTD:winapinls.obj
 0002:0000b9f0       ??_C@_1CC@FADMNIL@?$AA?$CI?$AAs?$AAt?$AAr?$AAe?$AAa?$AAm?$AA?5?$AA?$CB?$AA?$DN?$AA?5?$AAN?$AAU?$AAL?$AAL?$AA?$CJ?$AA?$AA@ 000000018006f9f0     LIBCMTD:fileno.obj
 0002:0000ba20       ??_C@_1FA@CKEACION@?$AAf?$AA?3?$AA?2?$AAd?$AAd?$AA?2?$AAv?$AAc?$AAt?$AAo?$AAo?$AAl?$AAs?$AA?2?$AAc?$AAr?$AAt?$AA?2?$AAc?$AAr?$AAt?$AAw?$AA3?$AA2?$AA?2?$AAs?$AAt?$AAd?$AAi?$AAo?$AA?2?$AAf@ 000000018006fa20     LIBCMTD:fileno.obj
 0002:0000ba70       ??_C@_1BA@JGHIEKKM@?$AA_?$AAf?$AAi?$AAl?$AAe?$AAn?$AAo?$AA?$AA@ 000000018006fa70     LIBCMTD:fileno.obj
 0002:0000ba80       ??_C@_1FO@LPCLHKGE@?$AA?$CI?$AAf?$AAh?$AA?5?$AA?$DO?$AA?$DN?$AA?5?$AA0?$AA?5?$AA?$CG?$AA?$CG?$AA?5?$AA?$CI?$AAu?$AAn?$AAs?$AAi?$AAg?$AAn?$AAe?$AAd?$AA?$CJ?$AAf?$AAh?$AA?5?$AA?$DM?$AA?5?$AA?$CI?$AAu?$AAn?$AAs?$AAi@ 000000018006fa80     LIBCMTD:isatty.obj
 0002:0000bae0       ??_C@_1FA@NFCHPDNG@?$AAf?$AA?3?$AA?2?$AAd?$AAd?$AA?2?$AAv?$AAc?$AAt?$AAo?$AAo?$AAl?$AAs?$AA?2?$AAc?$AAr?$AAt?$AA?2?$AAc?$AAr?$AAt?$AAw?$AA3?$AA2?$AA?2?$AAl?$AAo?$AAw?$AAi?$AAo?$AA?2?$AAi@ 000000018006fae0     LIBCMTD:isatty.obj
 0002:0000bb30       ??_C@_1BA@LEBDGIHM@?$AA_?$AAi?$AAs?$AAa?$AAt?$AAt?$AAy?$AA?$AA@ 000000018006fb30     LIBCMTD:isatty.obj
 0002:0000bb40       ??_C@_1FC@OBEHAONE@?$AAf?$AA?3?$AA?2?$AAd?$AAd?$AA?2?$AAv?$AAc?$AAt?$AAo?$AAo?$AAl?$AAs?$AA?2?$AAc?$AAr?$AAt?$AA?2?$AAc?$AAr?$AAt?$AAw?$AA3?$AA2?$AA?2?$AAs?$AAt?$AAd?$AAi?$AAo?$AA?2?$AA_@ 000000018006fb40     LIBCMTD:_flsbuf.obj
 0002:0000bba0       ??_C@_1HO@MLMGPAFH@?$AA?$CI?$AA?$CC?$AAi?$AAn?$AAc?$AAo?$AAn?$AAs?$AAi?$AAs?$AAt?$AAe?$AAn?$AAt?$AA?5?$AAI?$AAO?$AAB?$AA?5?$AAf?$AAi?$AAe?$AAl?$AAd?$AAs?$AA?$CC?$AA?0?$AA?5?$AAs?$AAt?$AAr?$AAe@ 000000018006fba0     LIBCMTD:_flsbuf.obj
 0002:0000bc20       ??_C@_1FE@CKCGICM@?$AAf?$AA?3?$AA?2?$AAd?$AAd?$AA?2?$AAv?$AAc?$AAt?$AAo?$AAo?$AAl?$AAs?$AA?2?$AAc?$AAr?$AAt?$AA?2?$AAc?$AAr?$AAt?$AAw?$AA3?$AA2?$AA?2?$AAs?$AAt?$AAd?$AAi?$AAo?$AA?2?$AAv@ 000000018006fc20     LIBCMTD:vsprintf.obj
 0002:0000bc78       ??_C@_1BI@IGILPKD@?$AA_?$AAv?$AAs?$AAp?$AAr?$AAi?$AAn?$AAt?$AAf?$AA_?$AAl?$AA?$AA@ 000000018006fc78     LIBCMTD:vsprintf.obj
 0002:0000bc90       ??_C@_1CE@HMKDJHB@?$AA_?$AAv?$AAs?$AAc?$AAp?$AAr?$AAi?$AAn?$AAt?$AAf?$AA_?$AAh?$AAe?$AAl?$AAp?$AAe?$AAr?$AA?$AA@ 000000018006fc90     LIBCMTD:vsprintf.obj
 0002:0000bcb8       ??_C@_1CE@PCFPEIFI@?$AA_?$AAv?$AAs?$AAn?$AAp?$AAr?$AAi?$AAn?$AAt?$AAf?$AA_?$AAh?$AAe?$AAl?$AAp?$AAe?$AAr?$AA?$AA@ 000000018006fcb8     LIBCMTD:vsnprnc.obj
 0002:0000bce0       ??_C@_1EC@FABAOFFO@?$AA?$CI?$AAc?$AAo?$AAu?$AAn?$AAt?$AA?5?$AA?$DN?$AA?$DN?$AA?5?$AA0?$AA?$CJ?$AA?5?$AA?$HM?$AA?$HM?$AA?5?$AA?$CI?$AAs?$AAt?$AAr?$AAi?$AAn?$AAg?$AA?5?$AA?$CB?$AA?$DN?$AA?5?$AAN?$AAU?$AAL?$AAL?$AA?$CJ@ 000000018006fce0     LIBCMTD:vsnprnc.obj
 0002:0000bd28       ??_C@_1BO@MLMCMBKN@?$AAf?$AAo?$AAr?$AAm?$AAa?$AAt?$AA?5?$AA?$CB?$AA?$DN?$AA?5?$AAN?$AAU?$AAL?$AAL?$AA?$AA@ 000000018006fd28     LIBCMTD:vsnprnc.obj
 0002:0000bd48       ??_C@_1BM@BLJALHEF@?$AA_?$AAv?$AAs?$AAp?$AAr?$AAi?$AAn?$AAt?$AAf?$AA_?$AAs?$AA_?$AAl?$AA?$AA@ 000000018006fd48     LIBCMTD:vsnprnc.obj
 0002:0000bd70       ??_C@_1EE@OKCKIGFK@?$AAs?$AAt?$AAr?$AAi?$AAn?$AAg?$AA?5?$AA?$CB?$AA?$DN?$AA?5?$AAN?$AAU?$AAL?$AAL?$AA?5?$AA?$CG?$AA?$CG?$AA?5?$AAs?$AAi?$AAz?$AAe?$AAI?$AAn?$AAB?$AAy?$AAt?$AAe?$AAs?$AA?5?$AA?$DO?$AA?5@ 000000018006fd70     LIBCMTD:vsnprnc.obj
 0002:0000bdb8       ??_C@_1DA@HPBFKMEB@?$AA?$CI?$AA?$CC?$AAB?$AAu?$AAf?$AAf?$AAe?$AAr?$AA?5?$AAt?$AAo?$AAo?$AA?5?$AAs?$AAm?$AAa?$AAl?$AAl?$AA?$CC?$AA?0?$AA?5?$AA0?$AA?$CJ?$AA?$AA@ 000000018006fdb8     LIBCMTD:vsnprnc.obj
 0002:0000bde8       ??_C@_1BO@MMPELNIM@?$AA_?$AAv?$AAs?$AAn?$AAp?$AAr?$AAi?$AAn?$AAt?$AAf?$AA_?$AAs?$AA_?$AAl?$AA?$AA@ 000000018006fde8     LIBCMTD:vsnprnc.obj
 0002:0000be08       ??_C@_06OJHGLDPL@?$CInull?$CJ?$AA@ 000000018006fe08     LIBCMTD:output.obj
 0002:0000be10       ??_C@_1O@CEDCILHN@?$AA?$CI?$AAn?$AAu?$AAl?$AAl?$AA?$CJ?$AA?$AA@ 000000018006fe10     LIBCMTD:output.obj
 0002:0000be20       __lookuptable              000000018006fe20     LIBCMTD:output.obj
 0002:0000be80       ??_C@_1FA@KMIJDCIC@?$AAf?$AA?3?$AA?2?$AAd?$AAd?$AA?2?$AAv?$AAc?$AAt?$AAo?$AAo?$AAl?$AAs?$AA?2?$AAc?$AAr?$AAt?$AA?2?$AAc?$AAr?$AAt?$AAw?$AA3?$AA2?$AA?2?$AAs?$AAt?$AAd?$AAi?$AAo?$AA?2?$AAo@ 000000018006fe80     LIBCMTD:output.obj
 0002:0000bed0       ??_C@_1BE@IONLIDNC@?$AA_?$AAo?$AAu?$AAt?$AAp?$AAu?$AAt?$AA_?$AAl?$AA?$AA@ 000000018006fed0     LIBCMTD:output.obj
 0002:0000bef0       ??_C@_1BAA@ODEGEDCK@?$AA?$CI?$AA?5?$AA?$CI?$AA_?$AAS?$AAt?$AAr?$AAe?$AAa?$AAm?$AA?9?$AA?$DO?$AA_?$AAf?$AAl?$AAa?$AAg?$AA?5?$AA?$CG?$AA?5?$AA_?$AAI?$AAO?$AAS?$AAT?$AAR?$AAG?$AA?$CJ?$AA?5?$AA?$HM?$AA?$HM?$AA?5@ 000000018006fef0     LIBCMTD:output.obj
 0002:0000bff0       ??_C@_1CC@IFFHEMNF@?$AA?$CI?$AAc?$AAh?$AA?5?$AA?$CB?$AA?$DN?$AA?5?$AA_?$AAT?$AA?$CI?$AA?8?$AA?2?$AA0?$AA?8?$AA?$CJ?$AA?$CJ?$AA?$AA@ 000000018006fff0     LIBCMTD:output.obj
 0002:0000c020       ??_C@_1EK@PNGFDECN@?$AA?$CI?$AA?$CC?$AA?8?$AAn?$AA?8?$AA?5?$AAf?$AAo?$AAr?$AAm?$AAa?$AAt?$AA?5?$AAs?$AAp?$AAe?$AAc?$AAi?$AAf?$AAi?$AAe?$AAr?$AA?5?$AAd?$AAi?$AAs?$AAa?$AAb?$AAl?$AAe?$AAd?$AA?$CC@ 0000000180070020     LIBCMTD:output.obj
 0002:0000c070       ??_C@_0CI@CMOPBIOD@f?3?2dd?2vctools?2crt?2crtw32?2stdio?2o@ 0000000180070070     LIBCMTD:output.obj
 0002:0000c0a0       ??_C@_1EK@PDBKILLM@?$AA?$CI?$AAm?$AAa?$AAs?$AAk?$AA?$CG?$AA?$HO?$AA?$CI?$AA_?$AAM?$AAC?$AAW?$AA_?$AAD?$AAN?$AA?$HM?$AA_?$AAM?$AAC?$AAW?$AA_?$AAE?$AAM?$AA?$HM?$AA_?$AAM?$AAC?$AAW?$AA_?$AAR?$AAC?$AA?$CJ@ 00000001800700a0     LIBCMTD:ieee.obj
 0002:0000c0f0       ??_C@_1FE@JNJEMPJO@?$AAf?$AA?3?$AA?2?$AAd?$AAd?$AA?2?$AAv?$AAc?$AAt?$AAo?$AAo?$AAl?$AAs?$AA?2?$AAc?$AAr?$AAt?$AA?2?$AAf?$AAp?$AAw?$AA3?$AA2?$AA?2?$AAt?$AAr?$AAa?$AAn?$AA?2?$AAa?$AAm?$AAd@ 00000001800700f0     LIBCMTD:ieee.obj
 0002:0000c148       _pDestructExceptionObject  0000000180070148     LIBCMTD:frame.obj
 0002:0000c150       ?value@?$integral_constant@_N$0A@@std@@2_NB 0000000180070150     LIBCMTD:frame.obj
 0002:0000c151       ?value@?$integral_constant@_N$00@std@@2_NB 0000000180070151     LIBCMTD:frame.obj
 0002:0000c160       ??_7bad_exception@std@@6B@ 0000000180070160     LIBCMTD:frame.obj
 0002:0000c170       ??_C@_0O@DPKOEFFH@bad?5exception?$AA@ 0000000180070170     LIBCMTD:frame.obj
 0002:0000c180       ??_C@_0CJ@JJMAJPPG@f?3?2dd?2vctools?2crt?2crtw32?2misc?2in@ 0000000180070180     LIBCMTD:initctyp.obj
 0002:0000c1b0       ??_C@_1FC@OGCCCEID@?$AAf?$AA?3?$AA?2?$AAd?$AAd?$AA?2?$AAv?$AAc?$AAt?$AAo?$AAo?$AAl?$AAs?$AA?2?$AAc?$AAr?$AAt?$AA?2?$AAc?$AAr?$AAt?$AAw?$AA3?$AA2?$AA?2?$AAm?$AAi?$AAs?$AAc?$AA?2?$AAi?$AAn@ 00000001800701b0     LIBCMTD:initctyp.obj
 0002:0000c208       ??_C@_1DG@NMBGBDM@?$AAp?$AAl?$AAo?$AAc?$AAi?$AA?9?$AA?$DO?$AAc?$AAt?$AAy?$AAp?$AAe?$AA1?$AA_?$AAr?$AAe?$AAf?$AAc?$AAo?$AAu?$AAn?$AAt?$AA?5?$AA?$DO?$AA?5?$AA0?$AA?$AA@ 0000000180070208     LIBCMTD:initctyp.obj
 0002:0000c240       __rg_language              0000000180070240     LIBCMTD:getqloc.obj
 0002:0000c650       ??_C@_1BC@LLOKLNP@?$AAa?$AAm?$AAe?$AAr?$AAi?$AAc?$AAa?$AAn?$AA?$AA@ 0000000180070650     LIBCMTD:getqloc.obj
 0002:0000c668       ??_C@_1CC@HEIGCDGG@?$AAa?$AAm?$AAe?$AAr?$AAi?$AAc?$AAa?$AAn?$AA?5?$AAe?$AAn?$AAg?$AAl?$AAi?$AAs?$AAh?$AA?$AA@ 0000000180070668     LIBCMTD:getqloc.obj
 0002:0000c690       ??_C@_1CC@IHCNOMIN@?$AAa?$AAm?$AAe?$AAr?$AAi?$AAc?$AAa?$AAn?$AA?9?$AAe?$AAn?$AAg?$AAl?$AAi?$AAs?$AAh?$AA?$AA@ 0000000180070690     LIBCMTD:getqloc.obj
 0002:0000c6b8       ??_C@_1BG@GKAGPCGG@?$AAa?$AAu?$AAs?$AAt?$AAr?$AAa?$AAl?$AAi?$AAa?$AAn?$AA?$AA@ 00000001800706b8     LIBCMTD:getqloc.obj
 0002:0000c6d0       ??_C@_1BA@GMENCENF@?$AAb?$AAe?$AAl?$AAg?$AAi?$AAa?$AAn?$AA?$AA@ 00000001800706d0     LIBCMTD:getqloc.obj
 0002:0000c6e0       ??_C@_1BC@PJMIIAAN@?$AAc?$AAa?$AAn?$AAa?$AAd?$AAi?$AAa?$AAn?$AA?$AA@ 00000001800706e0     LIBCMTD:getqloc.obj
 0002:0000c6f8       ??_C@_17NOIMNFBF@?$AAc?$AAh?$AAh?$AA?$AA@ 00000001800706f8     LIBCMTD:getqloc.obj
 0002:0000c700       ??_C@_17GGDALCHA@?$AAc?$AAh?$AAi?$AA?$AA@ 0000000180070700     LIBCMTD:getqloc.obj
 0002:0000c708       ??_C@_1BA@NPNJKIBL@?$AAc?$AAh?$AAi?$AAn?$AAe?$AAs?$AAe?$AA?$AA@ 0000000180070708     LIBCMTD:getqloc.obj
 0002:0000c718       ??_C@_1CC@DINBAMMJ@?$AAc?$AAh?$AAi?$AAn?$AAe?$AAs?$AAe?$AA?9?$AAh?$AAo?$AAn?$AAg?$AAk?$AAo?$AAn?$AAg?$AA?$AA@ 0000000180070718     LIBCMTD:getqloc.obj
 0002:0000c740       ??_C@_1CG@IOBJPACO@?$AAc?$AAh?$AAi?$AAn?$AAe?$AAs?$AAe?$AA?9?$AAs?$AAi?$AAm?$AAp?$AAl?$AAi?$AAf?$AAi?$AAe?$AAd?$AA?$AA@ 0000000180070740     LIBCMTD:getqloc.obj
 0002:0000c768       ??_C@_1CE@GAJNDCKG@?$AAc?$AAh?$AAi?$AAn?$AAe?$AAs?$AAe?$AA?9?$AAs?$AAi?$AAn?$AAg?$AAa?$AAp?$AAo?$AAr?$AAe?$AA?$AA@ 0000000180070768     LIBCMTD:getqloc.obj
 0002:0000c790       ??_C@_1CI@PAJPIOOD@?$AAc?$AAh?$AAi?$AAn?$AAe?$AAs?$AAe?$AA?9?$AAt?$AAr?$AAa?$AAd?$AAi?$AAt?$AAi?$AAo?$AAn?$AAa?$AAl?$AA?$AA@ 0000000180070790     LIBCMTD:getqloc.obj
 0002:0000c7b8       ??_C@_1BM@NILJBMMD@?$AAd?$AAu?$AAt?$AAc?$AAh?$AA?9?$AAb?$AAe?$AAl?$AAg?$AAi?$AAa?$AAn?$AA?$AA@ 00000001800707b8     LIBCMTD:getqloc.obj
 0002:0000c7d8       ??_C@_1CC@OOJPJNEJ@?$AAe?$AAn?$AAg?$AAl?$AAi?$AAs?$AAh?$AA?9?$AAa?$AAm?$AAe?$AAr?$AAi?$AAc?$AAa?$AAn?$AA?$AA@ 00000001800707d8     LIBCMTD:getqloc.obj
 0002:0000c800       ??_C@_1BI@IOLFEEM@?$AAe?$AAn?$AAg?$AAl?$AAi?$AAs?$AAh?$AA?9?$AAa?$AAu?$AAs?$AA?$AA@ 0000000180070800     LIBCMTD:getqloc.obj
 0002:0000c818       ??_C@_1BO@HFFNLENJ@?$AAe?$AAn?$AAg?$AAl?$AAi?$AAs?$AAh?$AA?9?$AAb?$AAe?$AAl?$AAi?$AAz?$AAe?$AA?$AA@ 0000000180070818     LIBCMTD:getqloc.obj
 0002:0000c838       ??_C@_1BI@HAPKJMPO@?$AAe?$AAn?$AAg?$AAl?$AAi?$AAs?$AAh?$AA?9?$AAc?$AAa?$AAn?$AA?$AA@ 0000000180070838     LIBCMTD:getqloc.obj
 0002:0000c850       ??_C@_1CE@HLNDMIOJ@?$AAe?$AAn?$AAg?$AAl?$AAi?$AAs?$AAh?$AA?9?$AAc?$AAa?$AAr?$AAi?$AAb?$AAb?$AAe?$AAa?$AAn?$AA?$AA@ 0000000180070850     LIBCMTD:getqloc.obj
 0002:0000c878       ??_C@_1BI@LDHJHHAC@?$AAe?$AAn?$AAg?$AAl?$AAi?$AAs?$AAh?$AA?9?$AAi?$AAr?$AAe?$AA?$AA@ 0000000180070878     LIBCMTD:getqloc.obj
 0002:0000c890       ??_C@_1CA@NJMMCFOC@?$AAe?$AAn?$AAg?$AAl?$AAi?$AAs?$AAh?$AA?9?$AAj?$AAa?$AAm?$AAa?$AAi?$AAc?$AAa?$AA?$AA@ 0000000180070890     LIBCMTD:getqloc.obj
 0002:0000c8b0       ??_C@_1BG@BHJEBBGG@?$AAe?$AAn?$AAg?$AAl?$AAi?$AAs?$AAh?$AA?9?$AAn?$AAz?$AA?$AA@ 00000001800708b0     LIBCMTD:getqloc.obj
 0002:0000c8c8       ??_C@_1CK@FGOEJJCO@?$AAe?$AAn?$AAg?$AAl?$AAi?$AAs?$AAh?$AA?9?$AAs?$AAo?$AAu?$AAt?$AAh?$AA?5?$AAa?$AAf?$AAr?$AAi?$AAc?$AAa?$AA?$AA@ 00000001800708c8     LIBCMTD:getqloc.obj
 0002:0000c8f8       ??_C@_1DE@PDBJPCJ@?$AAe?$AAn?$AAg?$AAl?$AAi?$AAs?$AAh?$AA?9?$AAt?$AAr?$AAi?$AAn?$AAi?$AAd?$AAa?$AAd?$AA?5?$AAy?$AA?5?$AAt?$AAo?$AAb?$AAa?$AAg?$AAo?$AA?$AA@ 00000001800708f8     LIBCMTD:getqloc.obj
 0002:0000c930       ??_C@_1BG@JGCANDME@?$AAe?$AAn?$AAg?$AAl?$AAi?$AAs?$AAh?$AA?9?$AAu?$AAk?$AA?$AA@ 0000000180070930     LIBCMTD:getqloc.obj
 0002:0000c948       ??_C@_1BG@DINKMLE@?$AAe?$AAn?$AAg?$AAl?$AAi?$AAs?$AAh?$AA?9?$AAu?$AAs?$AA?$AA@ 0000000180070948     LIBCMTD:getqloc.obj
 0002:0000c960       ??_C@_1BI@NMFDBHJE@?$AAe?$AAn?$AAg?$AAl?$AAi?$AAs?$AAh?$AA?9?$AAu?$AAs?$AAa?$AA?$AA@ 0000000180070960     LIBCMTD:getqloc.obj
 0002:0000c978       ??_C@_1BO@OIHKJKII@?$AAf?$AAr?$AAe?$AAn?$AAc?$AAh?$AA?9?$AAb?$AAe?$AAl?$AAg?$AAi?$AAa?$AAn?$AA?$AA@ 0000000180070978     LIBCMTD:getqloc.obj
 0002:0000c998       ??_C@_1CA@NKAELJKI@?$AAf?$AAr?$AAe?$AAn?$AAc?$AAh?$AA?9?$AAc?$AAa?$AAn?$AAa?$AAd?$AAi?$AAa?$AAn?$AA?$AA@ 0000000180070998     LIBCMTD:getqloc.obj
 0002:0000c9b8       ??_C@_1CE@MGKCNLGN@?$AAf?$AAr?$AAe?$AAn?$AAc?$AAh?$AA?9?$AAl?$AAu?$AAx?$AAe?$AAm?$AAb?$AAo?$AAu?$AAr?$AAg?$AA?$AA@ 00000001800709b8     LIBCMTD:getqloc.obj
 0002:0000c9e0       ??_C@_1BK@CEGEAILM@?$AAf?$AAr?$AAe?$AAn?$AAc?$AAh?$AA?9?$AAs?$AAw?$AAi?$AAs?$AAs?$AA?$AA@ 00000001800709e0     LIBCMTD:getqloc.obj
 0002:0000ca00       ??_C@_1CA@PAFKEOCC@?$AAg?$AAe?$AAr?$AAm?$AAa?$AAn?$AA?9?$AAa?$AAu?$AAs?$AAt?$AAr?$AAi?$AAa?$AAn?$AA?$AA@ 0000000180070a00     LIBCMTD:getqloc.obj
 0002:0000ca20       ??_C@_1CI@HCFHGOFD@?$AAg?$AAe?$AAr?$AAm?$AAa?$AAn?$AA?9?$AAl?$AAi?$AAc?$AAh?$AAt?$AAe?$AAn?$AAs?$AAt?$AAe?$AAi?$AAn?$AA?$AA@ 0000000180070a20     LIBCMTD:getqloc.obj
 0002:0000ca48       ??_C@_1CE@FEDDNPDG@?$AAg?$AAe?$AAr?$AAm?$AAa?$AAn?$AA?9?$AAl?$AAu?$AAx?$AAe?$AAm?$AAb?$AAo?$AAu?$AAr?$AAg?$AA?$AA@ 0000000180070a48     LIBCMTD:getqloc.obj
 0002:0000ca70       ??_C@_1BK@LIMINNMN@?$AAg?$AAe?$AAr?$AAm?$AAa?$AAn?$AA?9?$AAs?$AAw?$AAi?$AAs?$AAs?$AA?$AA@ 0000000180070a70     LIBCMTD:getqloc.obj
 0002:0000ca90       ??_C@_1BM@LGMDBEPD@?$AAi?$AAr?$AAi?$AAs?$AAh?$AA?9?$AAe?$AAn?$AAg?$AAl?$AAi?$AAs?$AAh?$AA?$AA@ 0000000180070a90     LIBCMTD:getqloc.obj
 0002:0000cab0       ??_C@_1BM@NNCFBAEE@?$AAi?$AAt?$AAa?$AAl?$AAi?$AAa?$AAn?$AA?9?$AAs?$AAw?$AAi?$AAs?$AAs?$AA?$AA@ 0000000180070ab0     LIBCMTD:getqloc.obj
 0002:0000cad0       ??_C@_1BE@FEDJNPIB@?$AAn?$AAo?$AAr?$AAw?$AAe?$AAg?$AAi?$AAa?$AAn?$AA?$AA@ 0000000180070ad0     LIBCMTD:getqloc.obj
 0002:0000cae8       ??_C@_1CC@CILKDEIE@?$AAn?$AAo?$AAr?$AAw?$AAe?$AAg?$AAi?$AAa?$AAn?$AA?9?$AAb?$AAo?$AAk?$AAm?$AAa?$AAl?$AA?$AA@ 0000000180070ae8     LIBCMTD:getqloc.obj
 0002:0000cb10       ??_C@_1CE@DHMMHEPL@?$AAn?$AAo?$AAr?$AAw?$AAe?$AAg?$AAi?$AAa?$AAn?$AA?9?$AAn?$AAy?$AAn?$AAo?$AAr?$AAs?$AAk?$AA?$AA@ 0000000180070b10     LIBCMTD:getqloc.obj
 0002:0000cb38       ??_C@_1CK@OPNMHECD@?$AAp?$AAo?$AAr?$AAt?$AAu?$AAg?$AAu?$AAe?$AAs?$AAe?$AA?9?$AAb?$AAr?$AAa?$AAz?$AAi?$AAl?$AAi?$AAa?$AAn?$AA?$AA@ 0000000180070b38     LIBCMTD:getqloc.obj
 0002:0000cb68       ??_C@_1CE@KEEHCDB@?$AAs?$AAp?$AAa?$AAn?$AAi?$AAs?$AAh?$AA?9?$AAa?$AAr?$AAg?$AAe?$AAn?$AAt?$AAi?$AAn?$AAa?$AA?$AA@ 0000000180070b68     LIBCMTD:getqloc.obj
 0002:0000cb90       ??_C@_1CA@GIAOLHJD@?$AAs?$AAp?$AAa?$AAn?$AAi?$AAs?$AAh?$AA?9?$AAb?$AAo?$AAl?$AAi?$AAv?$AAi?$AAa?$AA?$AA@ 0000000180070b90     LIBCMTD:getqloc.obj
 0002:0000cbb0       ??_C@_1BM@OJNDFNPD@?$AAs?$AAp?$AAa?$AAn?$AAi?$AAs?$AAh?$AA?9?$AAc?$AAh?$AAi?$AAl?$AAe?$AA?$AA@ 0000000180070bb0     LIBCMTD:getqloc.obj
 0002:0000cbd0       ??_C@_1CC@OCOLPALL@?$AAs?$AAp?$AAa?$AAn?$AAi?$AAs?$AAh?$AA?9?$AAc?$AAo?$AAl?$AAo?$AAm?$AAb?$AAi?$AAa?$AA?$AA@ 0000000180070bd0     LIBCMTD:getqloc.obj
 0002:0000cbf8       ??_C@_1CG@BPOFMKBB@?$AAs?$AAp?$AAa?$AAn?$AAi?$AAs?$AAh?$AA?9?$AAc?$AAo?$AAs?$AAt?$AAa?$AA?5?$AAr?$AAi?$AAc?$AAa?$AA?$AA@ 0000000180070bf8     LIBCMTD:getqloc.obj
 0002:0000cc20       ??_C@_1DG@IGOBAPBB@?$AAs?$AAp?$AAa?$AAn?$AAi?$AAs?$AAh?$AA?9?$AAd?$AAo?$AAm?$AAi?$AAn?$AAi?$AAc?$AAa?$AAn?$AA?5?$AAr?$AAe?$AAp?$AAu?$AAb?$AAl?$AAi?$AAc?$AA?$AA@ 0000000180070c20     LIBCMTD:getqloc.obj
 0002:0000cc58       ??_C@_1CA@JHAPGEGI@?$AAs?$AAp?$AAa?$AAn?$AAi?$AAs?$AAh?$AA?9?$AAe?$AAc?$AAu?$AAa?$AAd?$AAo?$AAr?$AA?$AA@ 0000000180070c58     LIBCMTD:getqloc.obj
 0002:0000cc78       ??_C@_1CI@LAPALJPP@?$AAs?$AAp?$AAa?$AAn?$AAi?$AAs?$AAh?$AA?9?$AAe?$AAl?$AA?5?$AAs?$AAa?$AAl?$AAv?$AAa?$AAd?$AAo?$AAr?$AA?$AA@ 0000000180070c78     LIBCMTD:getqloc.obj
 0002:0000cca0       ??_C@_1CE@PDGBOFOM@?$AAs?$AAp?$AAa?$AAn?$AAi?$AAs?$AAh?$AA?9?$AAg?$AAu?$AAa?$AAt?$AAe?$AAm?$AAa?$AAl?$AAa?$AA?$AA@ 0000000180070ca0     LIBCMTD:getqloc.obj
 0002:0000ccc8       ??_C@_1CC@NBEBAODI@?$AAs?$AAp?$AAa?$AAn?$AAi?$AAs?$AAh?$AA?9?$AAh?$AAo?$AAn?$AAd?$AAu?$AAr?$AAa?$AAs?$AA?$AA@ 0000000180070cc8     LIBCMTD:getqloc.obj
 0002:0000ccf0       ??_C@_1CA@LLKGHBMF@?$AAs?$AAp?$AAa?$AAn?$AAi?$AAs?$AAh?$AA?9?$AAm?$AAe?$AAx?$AAi?$AAc?$AAa?$AAn?$AA?$AA@ 0000000180070cf0     LIBCMTD:getqloc.obj
 0002:0000cd10       ??_C@_1BO@LKNDOIGD@?$AAs?$AAp?$AAa?$AAn?$AAi?$AAs?$AAh?$AA?9?$AAm?$AAo?$AAd?$AAe?$AAr?$AAn?$AA?$AA@ 0000000180070d10     LIBCMTD:getqloc.obj
 0002:0000cd30       ??_C@_1CE@NMDMOEEB@?$AAs?$AAp?$AAa?$AAn?$AAi?$AAs?$AAh?$AA?9?$AAn?$AAi?$AAc?$AAa?$AAr?$AAa?$AAg?$AAu?$AAa?$AA?$AA@ 0000000180070d30     LIBCMTD:getqloc.obj
 0002:0000cd58       ??_C@_1BO@LLCBEJGB@?$AAs?$AAp?$AAa?$AAn?$AAi?$AAs?$AAh?$AA?9?$AAp?$AAa?$AAn?$AAa?$AAm?$AAa?$AA?$AA@ 0000000180070d58     LIBCMTD:getqloc.obj
 0002:0000cd78       ??_C@_1CC@FKPGGIHO@?$AAs?$AAp?$AAa?$AAn?$AAi?$AAs?$AAh?$AA?9?$AAp?$AAa?$AAr?$AAa?$AAg?$AAu?$AAa?$AAy?$AA?$AA@ 0000000180070d78     LIBCMTD:getqloc.obj
 0002:0000cda0       ??_C@_1BK@CDEIHOOP@?$AAs?$AAp?$AAa?$AAn?$AAi?$AAs?$AAh?$AA?9?$AAp?$AAe?$AAr?$AAu?$AA?$AA@ 0000000180070da0     LIBCMTD:getqloc.obj
 0002:0000cdc0       ??_C@_1CI@GAHAKKGP@?$AAs?$AAp?$AAa?$AAn?$AAi?$AAs?$AAh?$AA?9?$AAp?$AAu?$AAe?$AAr?$AAt?$AAo?$AA?5?$AAr?$AAi?$AAc?$AAo?$AA?$AA@ 0000000180070dc0     LIBCMTD:getqloc.obj
 0002:0000cde8       ??_C@_1CA@NKJBCAGP@?$AAs?$AAp?$AAa?$AAn?$AAi?$AAs?$AAh?$AA?9?$AAu?$AAr?$AAu?$AAg?$AAu?$AAa?$AAy?$AA?$AA@ 0000000180070de8     LIBCMTD:getqloc.obj
 0002:0000ce08       ??_C@_1CE@ODILCONM@?$AAs?$AAp?$AAa?$AAn?$AAi?$AAs?$AAh?$AA?9?$AAv?$AAe?$AAn?$AAe?$AAz?$AAu?$AAe?$AAl?$AAa?$AA?$AA@ 0000000180070e08     LIBCMTD:getqloc.obj
 0002:0000ce30       ??_C@_1CA@OBNMCGFO@?$AAs?$AAw?$AAe?$AAd?$AAi?$AAs?$AAh?$AA?9?$AAf?$AAi?$AAn?$AAl?$AAa?$AAn?$AAd?$AA?$AA@ 0000000180070e30     LIBCMTD:getqloc.obj
 0002:0000ce50       ??_C@_1M@PIPDDPPI@?$AAs?$AAw?$AAi?$AAs?$AAs?$AA?$AA@ 0000000180070e50     LIBCMTD:getqloc.obj
 0002:0000ce5c       ??_C@_15GMFIMNFM@?$AAu?$AAs?$AA?$AA@ 0000000180070e5c     LIBCMTD:getqloc.obj
 0002:0000ce68       ??_C@_17HAEBFAGL@?$AAu?$AAs?$AAa?$AA?$AA@ 0000000180070e68     LIBCMTD:getqloc.obj
 0002:0000ce70       __rg_country               0000000180070e70     LIBCMTD:getqloc.obj
 0002:0000cfe0       ??_C@_1BA@DPFJEPHB@?$AAa?$AAm?$AAe?$AAr?$AAi?$AAc?$AAa?$AA?$AA@ 0000000180070fe0     LIBCMTD:getqloc.obj
 0002:0000cff0       ??_C@_1BA@ELOGGFK@?$AAb?$AAr?$AAi?$AAt?$AAa?$AAi?$AAn?$AA?$AA@ 0000000180070ff0     LIBCMTD:getqloc.obj
 0002:0000d000       ??_C@_1M@GHBGIGDA@?$AAc?$AAh?$AAi?$AAn?$AAa?$AA?$AA@ 0000000180071000     LIBCMTD:getqloc.obj
 0002:0000d010       ??_C@_1M@NCHEJOPO@?$AAc?$AAz?$AAe?$AAc?$AAh?$AA?$AA@ 0000000180071010     LIBCMTD:getqloc.obj
 0002:0000d020       ??_C@_1BA@BKPAPBLA@?$AAe?$AAn?$AAg?$AAl?$AAa?$AAn?$AAd?$AA?$AA@ 0000000180071020     LIBCMTD:getqloc.obj
 0002:0000d030       ??_C@_1BM@HKBCKIPC@?$AAg?$AAr?$AAe?$AAa?$AAt?$AA?5?$AAb?$AAr?$AAi?$AAt?$AAa?$AAi?$AAn?$AA?$AA@ 0000000180071030     LIBCMTD:getqloc.obj
 0002:0000d050       ??_C@_1BA@PPCHPGJB@?$AAh?$AAo?$AAl?$AAl?$AAa?$AAn?$AAd?$AA?$AA@ 0000000180071050     LIBCMTD:getqloc.obj
 0002:0000d060       ??_C@_1BE@JBMPEGDG@?$AAh?$AAo?$AAn?$AAg?$AA?9?$AAk?$AAo?$AAn?$AAg?$AA?$AA@ 0000000180071060     LIBCMTD:getqloc.obj
 0002:0000d078       ??_C@_1BI@KOELBBPJ@?$AAn?$AAe?$AAw?$AA?9?$AAz?$AAe?$AAa?$AAl?$AAa?$AAn?$AAd?$AA?$AA@ 0000000180071078     LIBCMTD:getqloc.obj
 0002:0000d090       ??_C@_15HIEBHAIO@?$AAn?$AAz?$AA?$AA@ 0000000180071090     LIBCMTD:getqloc.obj
 0002:0000d098       ??_C@_1BC@CHBCPFPI@?$AAp?$AAr?$AA?5?$AAc?$AAh?$AAi?$AAn?$AAa?$AA?$AA@ 0000000180071098     LIBCMTD:getqloc.obj
 0002:0000d0b0       ??_C@_1BC@JAOIIFKD@?$AAp?$AAr?$AA?9?$AAc?$AAh?$AAi?$AAn?$AAa?$AA?$AA@ 00000001800710b0     LIBCMTD:getqloc.obj
 0002:0000d0c8       ??_C@_1BI@BEHPPHKC@?$AAp?$AAu?$AAe?$AAr?$AAt?$AAo?$AA?9?$AAr?$AAi?$AAc?$AAo?$AA?$AA@ 00000001800710c8     LIBCMTD:getqloc.obj
 0002:0000d0e0       ??_C@_1O@PAEOFKDI@?$AAs?$AAl?$AAo?$AAv?$AAa?$AAk?$AA?$AA@ 00000001800710e0     LIBCMTD:getqloc.obj
 0002:0000d0f0       ??_C@_1BK@FIHMCKAM@?$AAs?$AAo?$AAu?$AAt?$AAh?$AA?5?$AAa?$AAf?$AAr?$AAi?$AAc?$AAa?$AA?$AA@ 00000001800710f0     LIBCMTD:getqloc.obj
 0002:0000d110       ??_C@_1BI@NAEOODKB@?$AAs?$AAo?$AAu?$AAt?$AAh?$AA?5?$AAk?$AAo?$AAr?$AAe?$AAa?$AA?$AA@ 0000000180071110     LIBCMTD:getqloc.obj
 0002:0000d128       ??_C@_1BK@FBDGGIFF@?$AAs?$AAo?$AAu?$AAt?$AAh?$AA?9?$AAa?$AAf?$AAr?$AAi?$AAc?$AAa?$AA?$AA@ 0000000180071128     LIBCMTD:getqloc.obj
 0002:0000d148       ??_C@_1BI@GHLEJDPK@?$AAs?$AAo?$AAu?$AAt?$AAh?$AA?9?$AAk?$AAo?$AAr?$AAe?$AAa?$AA?$AA@ 0000000180071148     LIBCMTD:getqloc.obj
 0002:0000d160       ??_C@_1CE@PLHLOMJF@?$AAt?$AAr?$AAi?$AAn?$AAi?$AAd?$AAa?$AAd?$AA?5?$AA?$CG?$AA?5?$AAt?$AAo?$AAb?$AAa?$AAg?$AAo?$AA?$AA@ 0000000180071160     LIBCMTD:getqloc.obj
 0002:0000d188       ??_C@_1BO@MODIMHHI@?$AAu?$AAn?$AAi?$AAt?$AAe?$AAd?$AA?9?$AAk?$AAi?$AAn?$AAg?$AAd?$AAo?$AAm?$AA?$AA@ 0000000180071188     LIBCMTD:getqloc.obj
 0002:0000d1a8       ??_C@_1BM@FFHJONBJ@?$AAu?$AAn?$AAi?$AAt?$AAe?$AAd?$AA?9?$AAs?$AAt?$AAa?$AAt?$AAe?$AAs?$AA?$AA@ 00000001800711a8     LIBCMTD:getqloc.obj
 0002:0000d1c4       __rg_language_count        00000001800711c4     LIBCMTD:getqloc.obj
 0002:0000d1c8       __rg_country_count         00000001800711c8     LIBCMTD:getqloc.obj
 0002:0000d1d0       ??_C@_1FA@KCJCBMIG@?$AAf?$AA?3?$AA?2?$AAd?$AAd?$AA?2?$AAv?$AAc?$AAt?$AAo?$AAo?$AAl?$AAs?$AA?2?$AAc?$AAr?$AAt?$AA?2?$AAc?$AAr?$AAt?$AAw?$AA3?$AA2?$AA?2?$AAm?$AAi?$AAs?$AAc?$AA?2?$AAg?$AAe@ 00000001800711d0     LIBCMTD:getqloc.obj
 0002:0000d220       ??_C@_1CO@NJACLALJ@?$AA_?$AA_?$AAg?$AAe?$AAt?$AA_?$AAq?$AAu?$AAa?$AAl?$AAi?$AAf?$AAi?$AAe?$AAd?$AA_?$AAl?$AAo?$AAc?$AAa?$AAl?$AAe?$AA?$AA@ 0000000180071220     LIBCMTD:getqloc.obj
 0002:0000d250       ??_C@_1BGM@FCCPEFDE@?$AAw?$AAc?$AAs?$AAn?$AAc?$AAp?$AAy?$AA_?$AAs?$AA?$CI?$AAl?$AAp?$AAO?$AAu?$AAt?$AAS?$AAt?$AAr?$AA?9?$AA?$DO?$AAs?$AAz?$AAL?$AAo?$AAc?$AAa?$AAl?$AAe?$AAN?$AAa?$AAm?$AAe@ 0000000180071250     LIBCMTD:getqloc.obj
 0002:0000d3c0       ??_C@_1CM@OGEMFJNJ@?$AAL?$AAa?$AAn?$AAg?$AAC?$AAo?$AAu?$AAn?$AAt?$AAr?$AAy?$AAE?$AAn?$AAu?$AAm?$AAP?$AAr?$AAo?$AAc?$AAE?$AAx?$AA?$AA@ 00000001800713c0     LIBCMTD:getqloc.obj
 0002:0000d3f0       ??_C@_1BFO@LLJKJAIC@?$AAw?$AAc?$AAs?$AAn?$AAc?$AAp?$AAy?$AA_?$AAs?$AA?$CI?$AA_?$AAp?$AAs?$AAe?$AAt?$AAl?$AAo?$AAc?$AA_?$AAd?$AAa?$AAt?$AAa?$AA?9?$AA?$DO?$AA_?$AAc?$AAa?$AAc?$AAh?$AAe?$AAL@ 00000001800713f0     LIBCMTD:getqloc.obj
 0002:0000d550       ??_C@_1CG@PGLLICHO@?$AAL?$AAa?$AAn?$AAg?$AAu?$AAa?$AAg?$AAe?$AAE?$AAn?$AAu?$AAm?$AAP?$AAr?$AAo?$AAc?$AAE?$AAx?$AA?$AA@ 0000000180071550     LIBCMTD:getqloc.obj
 0002:0000d578       ??_C@_1DC@CPKFANGP@?$AAG?$AAe?$AAt?$AAL?$AAo?$AAc?$AAa?$AAl?$AAe?$AAN?$AAa?$AAm?$AAe?$AAF?$AAr?$AAo?$AAm?$AAD?$AAe?$AAf?$AAa?$AAu?$AAl?$AAt?$AA?$AA@ 0000000180071578     LIBCMTD:getqloc.obj
 0002:0000d5b0       ??_C@_1BEO@EJBNGKHB@?$AAw?$AAc?$AAs?$AAn?$AAc?$AAp?$AAy?$AA_?$AAs?$AA?$CI?$AA_?$AAp?$AAs?$AAe?$AAt?$AAl?$AAo?$AAc?$AA_?$AAd?$AAa?$AAt?$AAa?$AA?9?$AA?$DO?$AA_?$AAc?$AAa?$AAc?$AAh?$AAe?$AAL@ 00000001800715b0     LIBCMTD:getqloc.obj
 0002:0000d700       ??_C@_17DNCLJFIF@?$AAA?$AAC?$AAP?$AA?$AA@ 0000000180071700     LIBCMTD:getqloc.obj
 0002:0000d708       ??_C@_17CIKBIHLH@?$AAO?$AAC?$AAP?$AA?$AA@ 0000000180071708     LIBCMTD:getqloc.obj
 0002:0000d710       __rglangidNotDefault       0000000180071710     LIBCMTD:getqloc_downlevel.obj
 0002:0000d730       ??_C@_1FE@DHCMIOFC@?$AAf?$AA?3?$AA?2?$AAd?$AAd?$AA?2?$AAv?$AAc?$AAt?$AAo?$AAo?$AAl?$AAs?$AA?2?$AAc?$AAr?$AAt?$AA?2?$AAc?$AAr?$AAt?$AAw?$AA3?$AA2?$AA?2?$AAs?$AAt?$AAd?$AAi?$AAo?$AA?2?$AAv@ 0000000180071730     LIBCMTD:vswprint.obj
 0002:0000d788       ??_C@_1BK@EPLNBKAK@?$AA_?$AAv?$AAs?$AAw?$AAp?$AAr?$AAi?$AAn?$AAt?$AAf?$AA_?$AAl?$AA?$AA@ 0000000180071788     LIBCMTD:vswprint.obj
 0002:0000d7a8       ??_C@_1CG@IMMIEPNA@?$AA_?$AAv?$AAs?$AAc?$AAw?$AAp?$AAr?$AAi?$AAn?$AAt?$AAf?$AA_?$AAh?$AAe?$AAl?$AAp?$AAe?$AAr?$AA?$AA@ 00000001800717a8     LIBCMTD:vswprint.obj
 0002:0000d7d0       ??_C@_1CE@IGKFIJFD@?$AA_?$AAv?$AAs?$AAw?$AAp?$AAr?$AAi?$AAn?$AAt?$AAf?$AA_?$AAh?$AAe?$AAl?$AAp?$AAe?$AAr?$AA?$AA@ 00000001800717d0     LIBCMTD:vswprnc.obj
 0002:0000d7f8       ??_C@_1BO@OALHJLCI@?$AA_?$AAv?$AAs?$AAw?$AAp?$AAr?$AAi?$AAn?$AAt?$AAf?$AA_?$AAs?$AA_?$AAl?$AA?$AA@ 00000001800717f8     LIBCMTD:vswprnc.obj
 0002:0000d820       ??_C@_1EE@MPCHJFGP@?$AAs?$AAt?$AAr?$AAi?$AAn?$AAg?$AA?5?$AA?$CB?$AA?$DN?$AA?5?$AAN?$AAU?$AAL?$AAL?$AA?5?$AA?$CG?$AA?$CG?$AA?5?$AAs?$AAi?$AAz?$AAe?$AAI?$AAn?$AAW?$AAo?$AAr?$AAd?$AAs?$AA?5?$AA?$DO?$AA?5@ 0000000180071820     LIBCMTD:vswprnc.obj
 0002:0000d868       ??_C@_1CA@BKFKMJFF@?$AA_?$AAv?$AAs?$AAn?$AAw?$AAp?$AAr?$AAi?$AAn?$AAt?$AAf?$AA_?$AAs?$AA_?$AAl?$AA?$AA@ 0000000180071868     LIBCMTD:vswprnc.obj
 0002:0000d888       ??_C@_1BG@BBCDFOMA@?$AA_?$AAw?$AAo?$AAu?$AAt?$AAp?$AAu?$AAt?$AA_?$AAl?$AA?$AA@ 0000000180071888     LIBCMTD:woutput.obj
 0002:0000d8a0       ??_C@_1BC@HGPNAKGC@?$AAs?$AAt?$AAr?$AAc?$AAa?$AAt?$AA_?$AAs?$AA?$AA@ 00000001800718a0     LIBCMTD:strcat_s.obj
 0002:0000d8c0       ??_C@_1FA@LEFFAILN@?$AAf?$AA?3?$AA?2?$AAd?$AAd?$AA?2?$AAv?$AAc?$AAt?$AAo?$AAo?$AAl?$AAs?$AA?2?$AAc?$AAr?$AAt?$AA?2?$AAc?$AAr?$AAt?$AAw?$AA3?$AA2?$AA?2?$AAc?$AAo?$AAn?$AAv?$AAe?$AAr?$AAt@ 00000001800718c0     LIBCMTD:xtoas.obj
 0002:0000d910       ??_C@_1O@GIMBNLEI@?$AAx?$AAt?$AAo?$AAa?$AA_?$AAs?$AA?$AA@ 0000000180071910     LIBCMTD:xtoas.obj
 0002:0000d920       ??_C@_1CC@JNJFIMGE@?$AAs?$AAi?$AAz?$AAe?$AAI?$AAn?$AAT?$AAC?$AAh?$AAa?$AAr?$AAs?$AA?5?$AA?$DO?$AA?5?$AA0?$AA?$AA@ 0000000180071920     LIBCMTD:xtoas.obj
 0002:0000d950       ??_C@_1FA@MKGGAGEI@?$AAs?$AAi?$AAz?$AAe?$AAI?$AAn?$AAT?$AAC?$AAh?$AAa?$AAr?$AAs?$AA?5?$AA?$DO?$AA?5?$AA?$CI?$AAs?$AAi?$AAz?$AAe?$AA_?$AAt?$AA?$CJ?$AA?$CI?$AAi?$AAs?$AA_?$AAn?$AAe?$AAg?$AA?5?$AA?$DP@ 0000000180071950     LIBCMTD:xtoas.obj
 0002:0000d9a0       ??_C@_1DE@PCJGDBBD@?$AA2?$AA?5?$AA?$DM?$AA?$DN?$AA?5?$AAr?$AAa?$AAd?$AAi?$AAx?$AA?5?$AA?$CG?$AA?$CG?$AA?5?$AAr?$AAa?$AAd?$AAi?$AAx?$AA?5?$AA?$DM?$AA?$DN?$AA?5?$AA3?$AA6?$AA?$AA@ 00000001800719a0     LIBCMTD:xtoas.obj
 0002:0000d9d8       ??_C@_1CM@HABGDNLJ@?$AAl?$AAe?$AAn?$AAg?$AAt?$AAh?$AA?5?$AA?$DM?$AA?5?$AAs?$AAi?$AAz?$AAe?$AAI?$AAn?$AAT?$AAC?$AAh?$AAa?$AAr?$AAs?$AA?$AA@ 00000001800719d8     LIBCMTD:xtoas.obj
 0002:0000da08       ??_C@_1BC@MJJNBNFN@?$AAx?$AA6?$AA4?$AAt?$AAo?$AAa?$AA_?$AAs?$AA?$AA@ 0000000180071a08     LIBCMTD:xtoas.obj
 0002:0000da20       ??_C@_1BE@EEKACIGI@?$AAs?$AA?5?$AA?$CB?$AA?$DN?$AA?5?$AAN?$AAU?$AAL?$AAL?$AA?$AA@ 0000000180071a20     LIBCMTD:mbstowcs.obj
 0002:0000da40       ??_C@_1FI@DADFCCMF@?$AAf?$AA?3?$AA?2?$AAd?$AAd?$AA?2?$AAv?$AAc?$AAt?$AAo?$AAo?$AAl?$AAs?$AA?2?$AAc?$AAr?$AAt?$AA?2?$AAc?$AAr?$AAt?$AAw?$AA3?$AA2?$AA?2?$AAc?$AAo?$AAn?$AAv?$AAe?$AAr?$AAt@ 0000000180071a40     LIBCMTD:mbstowcs.obj
 0002:0000da98       ??_C@_1CG@JEHFHLNG@?$AA_?$AAm?$AAb?$AAs?$AAt?$AAo?$AAw?$AAc?$AAs?$AA_?$AAl?$AA_?$AAh?$AAe?$AAl?$AAp?$AAe?$AAr?$AA?$AA@ 0000000180071a98     LIBCMTD:mbstowcs.obj
 0002:0000dac0       ??_C@_1JA@JKDFMOPO@?$AA?$CI?$AAp?$AAw?$AAc?$AAs?$AA?5?$AA?$DN?$AA?$DN?$AA?5?$AAN?$AAU?$AAL?$AAL?$AA?5?$AA?$CG?$AA?$CG?$AA?5?$AAs?$AAi?$AAz?$AAe?$AAI?$AAn?$AAW?$AAo?$AAr?$AAd?$AAs?$AA?5?$AA?$DN?$AA?$DN?$AA?5@ 0000000180071ac0     LIBCMTD:mbstowcs.obj
 0002:0000db50       ??_C@_1BM@PHENIGHD@?$AA_?$AAm?$AAb?$AAs?$AAt?$AAo?$AAw?$AAc?$AAs?$AA_?$AAs?$AA_?$AAl?$AA?$AA@ 0000000180071b50     LIBCMTD:mbstowcs.obj
 0002:0000db70       ??_C@_1CM@LLECFMFH@?$AAb?$AAu?$AAf?$AAf?$AAe?$AAr?$AAS?$AAi?$AAz?$AAe?$AA?5?$AA?$DM?$AA?$DN?$AA?5?$AAI?$AAN?$AAT?$AA_?$AAM?$AAA?$AAX?$AA?$AA@ 0000000180071b70     LIBCMTD:mbstowcs.obj
 0002:0000dba0       ??_C@_1CO@JNPEPJAL@?$AAr?$AAe?$AAt?$AAs?$AAi?$AAz?$AAe?$AA?5?$AA?$DM?$AA?$DN?$AA?5?$AAs?$AAi?$AAz?$AAe?$AAI?$AAn?$AAW?$AAo?$AAr?$AAd?$AAs?$AA?$AA@ 0000000180071ba0     LIBCMTD:mbstowcs.obj
 0002:0000dbd0       ??_C@_1BK@OIBENBPM@?$AAp?$AAw?$AAc?$AAs?$AA?5?$AA?$CB?$AA?$DN?$AA?5?$AAN?$AAU?$AAL?$AAL?$AA?$AA@ 0000000180071bd0     LIBCMTD:wcstombs.obj
 0002:0000dbf0       ??_C@_1FI@GCFLNCOB@?$AAf?$AA?3?$AA?2?$AAd?$AAd?$AA?2?$AAv?$AAc?$AAt?$AAo?$AAo?$AAl?$AAs?$AA?2?$AAc?$AAr?$AAt?$AA?2?$AAc?$AAr?$AAt?$AAw?$AA3?$AA2?$AA?2?$AAc?$AAo?$AAn?$AAv?$AAe?$AAr?$AAt@ 0000000180071bf0     LIBCMTD:wcstombs.obj
 0002:0000dc48       ??_C@_1CG@LLJCAOHF@?$AA_?$AAw?$AAc?$AAs?$AAt?$AAo?$AAm?$AAb?$AAs?$AA_?$AAl?$AA_?$AAh?$AAe?$AAl?$AAp?$AAe?$AAr?$AA?$AA@ 0000000180071c48     LIBCMTD:wcstombs.obj
 0002:0000dc70       ??_C@_1IM@MFGKHGBP@?$AA?$CI?$AAd?$AAs?$AAt?$AA?5?$AA?$CB?$AA?$DN?$AA?5?$AAN?$AAU?$AAL?$AAL?$AA?5?$AA?$CG?$AA?$CG?$AA?5?$AAs?$AAi?$AAz?$AAe?$AAI?$AAn?$AAB?$AAy?$AAt?$AAe?$AAs?$AA?5?$AA?$DO?$AA?5?$AA0?$AA?$CJ@ 0000000180071c70     LIBCMTD:wcstombs.obj
 0002:0000dd00       ??_C@_1BM@BDMCLLDL@?$AA_?$AAw?$AAc?$AAs?$AAt?$AAo?$AAm?$AAb?$AAs?$AA_?$AAs?$AA_?$AAl?$AA?$AA@ 0000000180071d00     LIBCMTD:wcstombs.obj
 0002:0000dd20       ??_C@_1CM@KEOGBFLI@?$AAs?$AAi?$AAz?$AAe?$AAI?$AAn?$AAB?$AAy?$AAt?$AAe?$AAs?$AA?5?$AA?$DO?$AA?5?$AAr?$AAe?$AAt?$AAs?$AAi?$AAz?$AAe?$AA?$AA@ 0000000180071d20     LIBCMTD:wcstombs.obj
 0002:0000dd50       ??_C@_1O@NCBFODOE@?$AAx?$AAt?$AAo?$AAw?$AA_?$AAs?$AA?$AA@ 0000000180071d50     LIBCMTD:xtows.obj
 0002:0000dd60       ??_C@_1BC@HDEJCFPB@?$AAx?$AA6?$AA4?$AAt?$AAo?$AAw?$AA_?$AAs?$AA?$AA@ 0000000180071d60     LIBCMTD:xtows.obj
 0002:0000dd80       ??_C@_1HC@KFLBHHBC@?$AA?$CI?$AAf?$AAi?$AAl?$AAe?$AAd?$AAe?$AAs?$AA?5?$AA?$DO?$AA?$DN?$AA?5?$AA0?$AA?5?$AA?$CG?$AA?$CG?$AA?5?$AA?$CI?$AAu?$AAn?$AAs?$AAi?$AAg?$AAn?$AAe?$AAd?$AA?$CJ?$AAf?$AAi?$AAl?$AAe?$AAd@ 0000000180071d80     LIBCMTD:commit.obj
 0002:0000de00       ??_C@_1FA@HELGICMG@?$AAf?$AA?3?$AA?2?$AAd?$AAd?$AA?2?$AAv?$AAc?$AAt?$AAo?$AAo?$AAl?$AAs?$AA?2?$AAc?$AAr?$AAt?$AA?2?$AAc?$AAr?$AAt?$AAw?$AA3?$AA2?$AA?2?$AAl?$AAo?$AAw?$AAi?$AAo?$AA?2?$AAc@ 0000000180071e00     LIBCMTD:commit.obj
 0002:0000de50       ??_C@_1BA@FLNMBBIM@?$AA_?$AAc?$AAo?$AAm?$AAm?$AAi?$AAt?$AA?$AA@ 0000000180071e50     LIBCMTD:commit.obj
 0002:0000de60       ??_C@_1DG@LNNHNFHJ@?$AA?$CI?$AA_?$AAo?$AAs?$AAf?$AAi?$AAl?$AAe?$AA?$CI?$AAf?$AAi?$AAl?$AAe?$AAd?$AAe?$AAs?$AA?$CJ?$AA?5?$AA?$CG?$AA?5?$AAF?$AAO?$AAP?$AAE?$AAN?$AA?$CJ?$AA?$AA@ 0000000180071e60     LIBCMTD:commit.obj
 0002:0000dea0       ??_C@_1JE@ECKHFIFP@?$AA?$CI?$AA?$CC?$AAI?$AAn?$AAv?$AAa?$AAl?$AAi?$AAd?$AA?5?$AAf?$AAi?$AAl?$AAe?$AA?5?$AAd?$AAe?$AAs?$AAc?$AAr?$AAi?$AAp?$AAt?$AAo?$AAr?$AA?4?$AA?5?$AAF?$AAi?$AAl?$AAe?$AA?5@ 0000000180071ea0     LIBCMTD:commit.obj
 0002:0000df40       ??_C@_1EO@NLGPLDCN@?$AAf?$AA?3?$AA?2?$AAd?$AAd?$AA?2?$AAv?$AAc?$AAt?$AAo?$AAo?$AAl?$AAs?$AA?2?$AAc?$AAr?$AAt?$AA?2?$AAc?$AAr?$AAt?$AAw?$AA3?$AA2?$AA?2?$AAl?$AAo?$AAw?$AAi?$AAo?$AA?2?$AAw@ 0000000180071f40     LIBCMTD:write.obj
 0002:0000df90       ??_C@_1O@KOFKDHPL@?$AA_?$AAw?$AAr?$AAi?$AAt?$AAe?$AA?$AA@ 0000000180071f90     LIBCMTD:write.obj
 0002:0000dfa0       ??_C@_1CM@OKGMMMDH@?$AA?$CI?$AA_?$AAo?$AAs?$AAf?$AAi?$AAl?$AAe?$AA?$CI?$AAf?$AAh?$AA?$CJ?$AA?5?$AA?$CG?$AA?5?$AAF?$AAO?$AAP?$AAE?$AAN?$AA?$CJ?$AA?$AA@ 0000000180071fa0     LIBCMTD:write.obj
 0002:0000dfd0       ??_C@_1BM@KFJLMBPG@?$AA?$CI?$AAb?$AAu?$AAf?$AA?5?$AA?$CB?$AA?$DN?$AA?5?$AAN?$AAU?$AAL?$AAL?$AA?$CJ?$AA?$AA@ 0000000180071fd0     LIBCMTD:write.obj
 0002:0000dff0       ??_C@_1BM@NCANHCIP@?$AA_?$AAw?$AAr?$AAi?$AAt?$AAe?$AA_?$AAn?$AAo?$AAl?$AAo?$AAc?$AAk?$AA?$AA@ 0000000180071ff0     LIBCMTD:write.obj
 0002:0000e010       ??_C@_1CC@EEOLPHGO@?$AA?$CI?$AA?$CI?$AAc?$AAn?$AAt?$AA?5?$AA?$CG?$AA?5?$AA1?$AA?$CJ?$AA?5?$AA?$DN?$AA?$DN?$AA?5?$AA0?$AA?$CJ?$AA?$AA@ 0000000180072010     LIBCMTD:write.obj
 0002:0000e038       ??_C@_1DI@CNMHHHLG@?$AAi?$AAs?$AAl?$AAe?$AAa?$AAd?$AAb?$AAy?$AAt?$AAe?$AA?$CI?$AA_?$AAd?$AAb?$AAc?$AAs?$AAB?$AAu?$AAf?$AAf?$AAe?$AAr?$AA?$CI?$AAf?$AAh?$AA?$CJ?$AA?$CJ?$AA?$AA@ 0000000180072038     LIBCMTD:write.obj
 0002:0000e070       ??_C@_1FA@HHFEGMDA@?$AAf?$AA?3?$AA?2?$AAd?$AAd?$AA?2?$AAv?$AAc?$AAt?$AAo?$AAo?$AAl?$AAs?$AA?2?$AAc?$AAr?$AAt?$AA?2?$AAc?$AAr?$AAt?$AAw?$AA3?$AA2?$AA?2?$AAs?$AAt?$AAd?$AAi?$AAo?$AA?2?$AAf@ 0000000180072070     LIBCMTD:fclose.obj
 0002:0000e0c0       ??_C@_1O@EGMJNCOI@?$AAf?$AAc?$AAl?$AAo?$AAs?$AAe?$AA?$AA@ 00000001800720c0     LIBCMTD:fclose.obj
 0002:0000e0d0       ??_C@_1BM@JMKHIAHP@?$AA?$CI?$AAs?$AAt?$AAr?$AA?5?$AA?$CB?$AA?$DN?$AA?5?$AAN?$AAU?$AAL?$AAL?$AA?$CJ?$AA?$AA@ 00000001800720d0     LIBCMTD:fclose.obj
 0002:0000e0f0       ??_C@_1BO@JINCABEC@?$AA_?$AAf?$AAc?$AAl?$AAo?$AAs?$AAe?$AA_?$AAn?$AAo?$AAl?$AAo?$AAc?$AAk?$AA?$AA@ 00000001800720f0     LIBCMTD:fclose.obj
 0002:0000e110       ??_C@_1FE@NDDOFCDF@?$AAf?$AA?3?$AA?2?$AAd?$AAd?$AA?2?$AAv?$AAc?$AAt?$AAo?$AAo?$AAl?$AAs?$AA?2?$AAc?$AAr?$AAt?$AA?2?$AAc?$AAr?$AAt?$AAw?$AA3?$AA2?$AA?2?$AAl?$AAo?$AAw?$AAi?$AAo?$AA?2?$AAl@ 0000000180072110     LIBCMTD:lseeki64.obj
 0002:0000e168       ??_C@_1BE@KHFBJMNM@?$AA_?$AAl?$AAs?$AAe?$AAe?$AAk?$AAi?$AA6?$AA4?$AA?$AA@ 0000000180072168     LIBCMTD:lseeki64.obj
 0002:0000e180       ??_C@_1FC@LGKDBMCL@?$AAf?$AA?3?$AA?2?$AAd?$AAd?$AA?2?$AAv?$AAc?$AAt?$AAo?$AAo?$AAl?$AAs?$AA?2?$AAc?$AAr?$AAt?$AA?2?$AAc?$AAr?$AAt?$AAw?$AA3?$AA2?$AA?2?$AAs?$AAt?$AAd?$AAi?$AAo?$AA?2?$AA_@ 0000000180072180     LIBCMTD:_getbuf.obj
 0002:0000e1d8       ??_C@_0CJ@NMDFOMAF@f?3?2dd?2vctools?2crt?2crtw32?2stdio?2_@ 00000001800721d8     LIBCMTD:_getbuf.obj
 0002:0000e208       ??_C@_1BI@KANOLAMF@?$AA_?$AAo?$AAu?$AAt?$AAp?$AAu?$AAt?$AA_?$AAp?$AA_?$AAl?$AA?$AA@ 0000000180072208     LIBCMTD:outputp.obj
 0002:0000e220       ??_C@_1JC@PFJNKEIO@?$AA?$CI?$AA?$CI?$AAt?$AAy?$AAp?$AAe?$AA_?$AAp?$AAo?$AAs?$AA?5?$AA?$DO?$AA?$DN?$AA?5?$AA0?$AA?$CJ?$AA?5?$AA?$CG?$AA?$CG?$AA?5?$AA?$CI?$AA?$CK?$AAe?$AAn?$AAd?$AA_?$AAp?$AAo?$AAs?$AA?5?$AA?$DN?$AA?$DN@ 0000000180072220     LIBCMTD:outputp.obj
 0002:0000e2c0       ??_C@_1EE@DMAIGNBG@?$AA?$CI?$AA?$CC?$AAI?$AAn?$AAc?$AAo?$AAr?$AAr?$AAe?$AAc?$AAt?$AA?5?$AAf?$AAo?$AAr?$AAm?$AAa?$AAt?$AA?5?$AAs?$AAp?$AAe?$AAc?$AAi?$AAf?$AAi?$AAe?$AAr?$AA?$CC?$AA?0?$AA?5?$AA0@ 00000001800722c0     LIBCMTD:outputp.obj
 0002:0000e310       ??_C@_1JE@NMBHOLFI@?$AA?$CI?$AA?$CI?$AAw?$AAi?$AAd?$AAt?$AAh?$AA_?$AAp?$AAo?$AAs?$AA?5?$AA?$DO?$AA?$DN?$AA?5?$AA0?$AA?$CJ?$AA?5?$AA?$CG?$AA?$CG?$AA?5?$AA?$CI?$AA?$CK?$AAe?$AAn?$AAd?$AA_?$AAp?$AAo?$AAs?$AA?5?$AA?$DN@ 0000000180072310     LIBCMTD:outputp.obj
 0002:0000e3b0       ??_C@_1II@PIPIMLPF@?$AA_?$AAt?$AAv?$AAa?$AAl?$AAi?$AAd?$AAa?$AAt?$AAe?$AA_?$AAp?$AAa?$AAr?$AAa?$AAm?$AA_?$AAr?$AAe?$AAu?$AAs?$AAe?$AA?$CI?$AA?$CG?$AAp?$AAo?$AAs?$AA_?$AAv?$AAa?$AAl?$AAu@ 00000001800723b0     LIBCMTD:outputp.obj
 0002:0000e440       ??_C@_1JG@JBJBOCFB@?$AA?$CI?$AA?$CI?$AAp?$AAr?$AAe?$AAc?$AAi?$AAs?$AA_?$AAp?$AAo?$AAs?$AA?5?$AA?$DO?$AA?$DN?$AA?5?$AA0?$AA?$CJ?$AA?5?$AA?$CG?$AA?$CG?$AA?5?$AA?$CI?$AA?$CK?$AAe?$AAn?$AAd?$AA_?$AAp?$AAo?$AAs?$AA?5@ 0000000180072440     LIBCMTD:outputp.obj
 0002:0000e4e0       ??_C@_1IK@EIEPDKHJ@?$AA_?$AAt?$AAv?$AAa?$AAl?$AAi?$AAd?$AAa?$AAt?$AAe?$AA_?$AAp?$AAa?$AAr?$AAa?$AAm?$AA_?$AAr?$AAe?$AAu?$AAs?$AAe?$AA?$CI?$AA?$CG?$AAp?$AAo?$AAs?$AA_?$AAv?$AAa?$AAl?$AAu@ 00000001800724e0     LIBCMTD:outputp.obj
 0002:0000e570       ??_C@_1EM@BNPHBBIA@?$AA?$CI?$AA?$CI?$AAt?$AAy?$AAp?$AAe?$AA_?$AAp?$AAo?$AAs?$AA?$DO?$AA?$DN?$AA0?$AA?$CJ?$AA?5?$AA?$CG?$AA?$CG?$AA?5?$AA?$CI?$AAt?$AAy?$AAp?$AAe?$AA_?$AAp?$AAo?$AAs?$AA?$DM?$AA_?$AAA?$AAR?$AAG@ 0000000180072570     LIBCMTD:outputp.obj
 0002:0000e5c0       ??_C@_1IK@MHEDJAMK@?$AA_?$AAt?$AAv?$AAa?$AAl?$AAi?$AAd?$AAa?$AAt?$AAe?$AA_?$AAp?$AAa?$AAr?$AAa?$AAm?$AA_?$AAr?$AAe?$AAu?$AAs?$AAe?$AA?$CI?$AA?$CG?$AAp?$AAo?$AAs?$AA_?$AAv?$AAa?$AAl?$AAu@ 00000001800725c0     LIBCMTD:outputp.obj
 0002:0000e650       ??_C@_1IG@FDCPLALG@?$AA_?$AAt?$AAv?$AAa?$AAl?$AAi?$AAd?$AAa?$AAt?$AAe?$AA_?$AAp?$AAa?$AAr?$AAa?$AAm?$AA_?$AAr?$AAe?$AAu?$AAs?$AAe?$AA?$CI?$AA?$CG?$AAp?$AAo?$AAs?$AA_?$AAv?$AAa?$AAl?$AAu@ 0000000180072650     LIBCMTD:outputp.obj
 0002:0000e6e0       ??_C@_1IG@HJIMKDHC@?$AA_?$AAt?$AAv?$AAa?$AAl?$AAi?$AAd?$AAa?$AAt?$AAe?$AA_?$AAp?$AAa?$AAr?$AAa?$AAm?$AA_?$AAr?$AAe?$AAu?$AAs?$AAe?$AA?$CI?$AA?$CG?$AAp?$AAo?$AAs?$AA_?$AAv?$AAa?$AAl?$AAu@ 00000001800726e0     LIBCMTD:outputp.obj
 0002:0000e770       ??_C@_1IM@DNGHAPLB@?$AA_?$AAt?$AAv?$AAa?$AAl?$AAi?$AAd?$AAa?$AAt?$AAe?$AA_?$AAp?$AAa?$AAr?$AAa?$AAm?$AA_?$AAr?$AAe?$AAu?$AAs?$AAe?$AA?$CI?$AA?$CG?$AAp?$AAo?$AAs?$AA_?$AAv?$AAa?$AAl?$AAu@ 0000000180072770     LIBCMTD:outputp.obj
 0002:0000e800       ??_C@_1DG@GOHGNKHE@?$AAp?$AAa?$AAs?$AAs?$AA?5?$AA?$DN?$AA?$DN?$AA?5?$AAF?$AAO?$AAR?$AAM?$AAA?$AAT?$AA_?$AAO?$AAU?$AAT?$AAP?$AAU?$AAT?$AA_?$AAP?$AAA?$AAS?$AAS?$AA?$AA@ 0000000180072800     LIBCMTD:outputp.obj
 0002:0000e840       ??_C@_1IK@NBGDDCBN@?$AA_?$AAt?$AAv?$AAa?$AAl?$AAi?$AAd?$AAa?$AAt?$AAe?$AA_?$AAp?$AAa?$AAr?$AAa?$AAm?$AA_?$AAr?$AAe?$AAu?$AAs?$AAe?$AA?$CI?$AA?$CG?$AAp?$AAo?$AAs?$AA_?$AAv?$AAa?$AAl?$AAu@ 0000000180072840     LIBCMTD:outputp.obj
 0002:0000e8d0       ??_C@_1JC@OACKELNN@?$AA_?$AAt?$AAv?$AAa?$AAl?$AAi?$AAd?$AAa?$AAt?$AAe?$AA_?$AAp?$AAa?$AAr?$AAa?$AAm?$AA_?$AAr?$AAe?$AAu?$AAs?$AAe?$AA?$CI?$AA?$CG?$AAp?$AAo?$AAs?$AA_?$AAv?$AAa?$AAl?$AAu@ 00000001800728d0     LIBCMTD:outputp.obj
 0002:0000e970       ??_C@_1FK@LNCFKALM@?$AA?$CI?$AA?$CI?$AAs?$AAt?$AAa?$AAt?$AAe?$AA?5?$AA?$DN?$AA?$DN?$AA?5?$AAS?$AAT?$AA_?$AAN?$AAO?$AAR?$AAM?$AAA?$AAL?$AA?$CJ?$AA?5?$AA?$HM?$AA?$HM?$AA?5?$AA?$CI?$AAs?$AAt?$AAa?$AAt?$AAe?$AA?5@ 0000000180072970     LIBCMTD:outputp.obj
 0002:0000e9d0       ??_C@_1FK@BCPANIEK@?$AA?$CI?$AA?$CC?$AAM?$AAi?$AAs?$AAs?$AAi?$AAn?$AAg?$AA?5?$AAp?$AAo?$AAs?$AAi?$AAt?$AAi?$AAo?$AAn?$AA?5?$AAi?$AAn?$AA?5?$AAt?$AAh?$AAe?$AA?5?$AAf?$AAo?$AAr?$AAm?$AAa?$AAt@ 00000001800729d0     LIBCMTD:outputp.obj
 0002:0000ea30       __lookuptable_s            0000000180072a30     LIBCMTD:outputs.obj
 0002:0000ea90       ??_C@_1BI@COFBLHCG@?$AA_?$AAo?$AAu?$AAt?$AAp?$AAu?$AAt?$AA_?$AAs?$AA_?$AAl?$AA?$AA@ 0000000180072a90     LIBCMTD:outputs.obj
 0002:0000eab0       ??_C@_1FA@GMJBBNDK@?$AAf?$AA?3?$AA?2?$AAd?$AAd?$AA?2?$AAv?$AAc?$AAt?$AAo?$AAo?$AAl?$AAs?$AA?2?$AAc?$AAr?$AAt?$AA?2?$AAc?$AAr?$AAt?$AAw?$AA3?$AA2?$AA?2?$AAs?$AAt?$AAd?$AAi?$AAo?$AA?2?$AAp@ 0000000180072ab0     LIBCMTD:printf.obj
 0002:0000eb00       ??_C@_1O@GKDHFACN@?$AAp?$AAr?$AAi?$AAn?$AAt?$AAf?$AA?$AA@ 0000000180072b00     LIBCMTD:printf.obj
 0002:0000eb10       ??_C@_1CO@HFMIILNF@?$AAs?$AAi?$AAz?$AAe?$AAI?$AAn?$AAB?$AAy?$AAt?$AAe?$AAs?$AA?5?$AA?$DM?$AA?$DN?$AA?5?$AAI?$AAN?$AAT?$AA_?$AAM?$AAA?$AAX?$AA?$AA@ 0000000180072b10     LIBCMTD:wctomb.obj
 0002:0000eb40       ??_C@_1FE@GKMDCPPB@?$AAf?$AA?3?$AA?2?$AAd?$AAd?$AA?2?$AAv?$AAc?$AAt?$AAo?$AAo?$AAl?$AAs?$AA?2?$AAc?$AAr?$AAt?$AA?2?$AAc?$AAr?$AAt?$AAw?$AA3?$AA2?$AA?2?$AAc?$AAo?$AAn?$AAv?$AAe?$AAr?$AAt@ 0000000180072b40     LIBCMTD:wctomb.obj
 0002:0000eb98       ??_C@_1BI@IEADNOHF@?$AA_?$AAw?$AAc?$AAt?$AAo?$AAm?$AAb?$AA_?$AAs?$AA_?$AAl?$AA?$AA@ 0000000180072b98     LIBCMTD:wctomb.obj
 0002:0000ebb0       ??_C@_1FC@BHNGAOAE@?$AAf?$AA?3?$AA?2?$AAd?$AAd?$AA?2?$AAv?$AAc?$AAt?$AAo?$AAo?$AAl?$AAs?$AA?2?$AAc?$AAr?$AAt?$AA?2?$AAc?$AAr?$AAt?$AAw?$AA3?$AA2?$AA?2?$AAm?$AAi?$AAs?$AAc?$AA?2?$AAd?$AAb@ 0000000180072bb0     LIBCMTD:dbgdel.obj
 0002:0000ec10       ??_7type_info@@6B@         0000000180072c10     LIBCMTD:typinfo.obj
 0002:0000ec20       ??_7exception@std@@6B@     0000000180072c20     LIBCMTD:stdexcpt.obj
 0002:0000ec30       ??_C@_0BC@EOODALEL@Unknown?5exception?$AA@ 0000000180072c30     LIBCMTD:stdexcpt.obj
 0002:0000ec50       ??_7bad_cast@std@@6B@      0000000180072c50     LIBCMTD:stdexcpt.obj
 0002:0000ec68       ??_7bad_typeid@std@@6B@    0000000180072c68     LIBCMTD:stdexcpt.obj
 0002:0000ec80       ??_7__non_rtti_object@std@@6B@ 0000000180072c80     LIBCMTD:stdexcpt.obj
 0002:0000ecd0       ??_C@_1FE@NDFDLJMJ@?$AAf?$AA?3?$AA?2?$AAd?$AAd?$AA?2?$AAv?$AAc?$AAt?$AAo?$AAo?$AAl?$AAs?$AA?2?$AAc?$AAr?$AAt?$AA?2?$AAc?$AAr?$AAt?$AAw?$AA3?$AA2?$AA?2?$AAs?$AAt?$AAr?$AAi?$AAn?$AAg?$AA?2@ 0000000180072cd0     LIBCMTD:wcsicmp.obj
 0002:0000ed28       ??_C@_1BG@EELGPCPD@?$AA_?$AAw?$AAc?$AAs?$AAi?$AAc?$AAm?$AAp?$AA_?$AAl?$AA?$AA@ 0000000180072d28     LIBCMTD:wcsicmp.obj
 0002:0000ed40       ??_C@_1BC@NHIBDOMC@?$AA_?$AAw?$AAc?$AAs?$AAi?$AAc?$AAm?$AAp?$AA?$AA@ 0000000180072d40     LIBCMTD:wcsicmp.obj
 0002:0000ed58       ??_C@_1BM@CBACDFHA@?$AAf?$AAi?$AAr?$AAs?$AAt?$AA?5?$AA?$CB?$AA?$DN?$AA?5?$AAN?$AAU?$AAL?$AAL?$AA?$AA@ 0000000180072d58     LIBCMTD:wcsnicmp.obj
 0002:0000ed80       ??_C@_1FG@GGNDOPHP@?$AAf?$AA?3?$AA?2?$AAd?$AAd?$AA?2?$AAv?$AAc?$AAt?$AAo?$AAo?$AAl?$AAs?$AA?2?$AAc?$AAr?$AAt?$AA?2?$AAc?$AAr?$AAt?$AAw?$AA3?$AA2?$AA?2?$AAs?$AAt?$AAr?$AAi?$AAn?$AAg?$AA?2@ 0000000180072d80     LIBCMTD:wcsnicmp.obj
 0002:0000edd8       ??_C@_1BI@KLMFNDBC@?$AA_?$AAw?$AAc?$AAs?$AAn?$AAi?$AAc?$AAm?$AAp?$AA_?$AAl?$AA?$AA@ 0000000180072dd8     LIBCMTD:wcsnicmp.obj
 0002:0000edf0       ??_C@_1BK@LKBOPAFJ@?$AAl?$AAa?$AAs?$AAt?$AA?5?$AA?$CB?$AA?$DN?$AA?5?$AAN?$AAU?$AAL?$AAL?$AA?$AA@ 0000000180072df0     LIBCMTD:wcsnicmp.obj
 0002:0000ee10       ??_C@_1BE@JKOKKFEL@?$AA_?$AAw?$AAc?$AAs?$AAn?$AAi?$AAc?$AAm?$AAp?$AA?$AA@ 0000000180072e10     LIBCMTD:wcsnicmp.obj
 0002:0000ee28       ??_C@_1BK@GDEKGMNC@?$AA_?$AAw?$AAo?$AAu?$AAt?$AAp?$AAu?$AAt?$AA_?$AAp?$AA_?$AAl?$AA?$AA@ 0000000180072e28     LIBCMTD:woutputp.obj
 0002:0000ee48       ??_C@_1BK@ONMFGLDB@?$AA_?$AAw?$AAo?$AAu?$AAt?$AAp?$AAu?$AAt?$AA_?$AAs?$AA_?$AAl?$AA?$AA@ 0000000180072e48     LIBCMTD:woutputs.obj
 0002:0000ee70       ??_C@_1FA@MCFBMFHP@?$AAf?$AA?3?$AA?2?$AAd?$AAd?$AA?2?$AAv?$AAc?$AAt?$AAo?$AAo?$AAl?$AAs?$AA?2?$AAc?$AAr?$AAt?$AA?2?$AAc?$AAr?$AAt?$AAw?$AA3?$AA2?$AA?2?$AAs?$AAt?$AAd?$AAi?$AAo?$AA?2?$AAf@ 0000000180072e70     LIBCMTD:fputwc.obj
 0002:0000eec0       ??_C@_1O@HJNPHHHB@?$AAf?$AAp?$AAu?$AAt?$AAw?$AAc?$AA?$AA@ 0000000180072ec0     LIBCMTD:fputwc.obj
 0002:0000eed0       ??_C@_1NC@EINCOKCO@?$AA_?$AAl?$AAo?$AAc?$AA_?$AAu?$AAp?$AAd?$AAa?$AAt?$AAe?$AA?4?$AAG?$AAe?$AAt?$AAL?$AAo?$AAc?$AAa?$AAl?$AAe?$AAT?$AA?$CI?$AA?$CJ?$AA?9?$AA?$DO?$AAl?$AAo?$AAc?$AAi?$AAn?$AAf@ 0000000180072ed0     LIBCMTD:mbtowc.obj
 0002:0000efb0       ??_C@_1FE@EKLDGEI@?$AAf?$AA?3?$AA?2?$AAd?$AAd?$AA?2?$AAv?$AAc?$AAt?$AAo?$AAo?$AAl?$AAs?$AA?2?$AAc?$AAr?$AAt?$AA?2?$AAc?$AAr?$AAt?$AAw?$AA3?$AA2?$AA?2?$AAc?$AAo?$AAn?$AAv?$AAe?$AAr?$AAt@ 0000000180072fb0     LIBCMTD:mbtowc.obj
 0002:0000f008       ??_C@_0CJ@IGOJMKM@f?3?2dd?2vctools?2crt?2crtw32?2lowio?2o@ 0000000180073008     LIBCMTD:osfinfo.obj
 0002:0000f040       ??_C@_1FC@BEKMGBFL@?$AAf?$AA?3?$AA?2?$AAd?$AAd?$AA?2?$AAv?$AAc?$AAt?$AAo?$AAo?$AAl?$AAs?$AA?2?$AAc?$AAr?$AAt?$AA?2?$AAc?$AAr?$AAt?$AAw?$AA3?$AA2?$AA?2?$AAl?$AAo?$AAw?$AAi?$AAo?$AA?2?$AAo@ 0000000180073040     LIBCMTD:osfinfo.obj
 0002:0000f098       ??_C@_1BO@EMBOBGKE@?$AA_?$AAg?$AAe?$AAt?$AA_?$AAo?$AAs?$AAf?$AAh?$AAa?$AAn?$AAd?$AAl?$AAe?$AA?$AA@ 0000000180073098     LIBCMTD:osfinfo.obj
 0002:0000f0c0       ??_C@_1EO@EJLBBGEB@?$AAf?$AA?3?$AA?2?$AAd?$AAd?$AA?2?$AAv?$AAc?$AAt?$AAo?$AAo?$AAl?$AAs?$AA?2?$AAc?$AAr?$AAt?$AA?2?$AAc?$AAr?$AAt?$AAw?$AA3?$AA2?$AA?2?$AAl?$AAo?$AAw?$AAi?$AAo?$AA?2?$AAc@ 00000001800730c0     LIBCMTD:close.obj
 0002:0000f110       ??_C@_1O@EDEJGJBM@?$AA_?$AAc?$AAl?$AAo?$AAs?$AAe?$AA?$AA@ 0000000180073110     LIBCMTD:close.obj
 0002:0000f120       ??_C@_1BO@KIJENGPH@?$AAs?$AAt?$AAr?$AAe?$AAa?$AAm?$AA?5?$AA?$CB?$AA?$DN?$AA?5?$AAN?$AAU?$AAL?$AAL?$AA?$AA@ 0000000180073120     LIBCMTD:_freebuf.obj
 0002:0000f140       ??_C@_1FE@DBCNNJOP@?$AAf?$AA?3?$AA?2?$AAd?$AAd?$AA?2?$AAv?$AAc?$AAt?$AAo?$AAo?$AAl?$AAs?$AA?2?$AAc?$AAr?$AAt?$AA?2?$AAc?$AAr?$AAt?$AAw?$AA3?$AA2?$AA?2?$AAs?$AAt?$AAd?$AAi?$AAo?$AA?2?$AA_@ 0000000180073140     LIBCMTD:_freebuf.obj
 0002:0000f1c0       ??_C@_1BK@LAOAACLJ@?$AAn?$AAp?$AAt?$AAr?$AA?5?$AA?$CB?$AA?$DN?$AA?5?$AAN?$AAU?$AAL?$AAL?$AA?$AA@ 00000001800731c0     LIBCMTD:strtol.obj
 0002:0000f1e0       ??_C@_1FE@OOICPOFH@?$AAf?$AA?3?$AA?2?$AAd?$AAd?$AA?2?$AAv?$AAc?$AAt?$AAo?$AAo?$AAl?$AAs?$AA?2?$AAc?$AAr?$AAt?$AA?2?$AAc?$AAr?$AAt?$AAw?$AA3?$AA2?$AA?2?$AAc?$AAo?$AAn?$AAv?$AAe?$AAr?$AAt@ 00000001800731e0     LIBCMTD:strtol.obj
 0002:0000f238       ??_C@_1BA@LOLAMAJG@?$AAs?$AAt?$AAr?$AAt?$AAo?$AAx?$AAl?$AA?$AA@ 0000000180073238     LIBCMTD:strtol.obj
 0002:0000f250       ??_C@_1FE@CEHLKAHD@?$AAi?$AAb?$AAa?$AAs?$AAe?$AA?5?$AA?$DN?$AA?$DN?$AA?5?$AA0?$AA?5?$AA?$HM?$AA?$HM?$AA?5?$AA?$CI?$AA2?$AA?5?$AA?$DM?$AA?$DN?$AA?5?$AAi?$AAb?$AAa?$AAs?$AAe?$AA?5?$AA?$CG?$AA?$CG?$AA?5?$AAi?$AAb?$AAa@ 0000000180073250     LIBCMTD:strtol.obj
 0002:0000f2b0       ??_C@_1FC@LLDAFLML@?$AAf?$AA?3?$AA?2?$AAd?$AAd?$AA?2?$AAv?$AAc?$AAt?$AAo?$AAo?$AAl?$AAs?$AA?2?$AAc?$AAr?$AAt?$AA?2?$AAc?$AAr?$AAt?$AAw?$AA3?$AA2?$AA?2?$AAs?$AAt?$AAd?$AAi?$AAo?$AA?2?$AAv@ 00000001800732b0     LIBCMTD:vprintf.obj
 0002:0000f308       ??_C@_1BO@JGFPDJCP@?$AAv?$AAp?$AAr?$AAi?$AAn?$AAt?$AAf?$AA_?$AAh?$AAe?$AAl?$AAp?$AAe?$AAr?$AA?$AA@ 0000000180073308     LIBCMTD:vprintf.obj
 0002:0000f328       ??_C@_1CK@GELGGBDK@?$AAp?$AAN?$AAo?$AAd?$AAe?$AA?9?$AA?$DO?$AA_?$AAN?$AAe?$AAx?$AAt?$AA?5?$AA?$CB?$AA?$DN?$AA?5?$AAN?$AAU?$AAL?$AAL?$AA?$AA@ 0000000180073328     LIBCMTD:typname.obj
 0002:0000f360       ??_C@_1FA@KAJOMDBA@?$AAf?$AA?3?$AA?2?$AAd?$AAd?$AA?2?$AAv?$AAc?$AAt?$AAo?$AAo?$AAl?$AAs?$AA?2?$AAc?$AAr?$AAt?$AA?2?$AAc?$AAr?$AAt?$AAw?$AA3?$AA2?$AA?2?$AAe?$AAh?$AA?2?$AAt?$AAy?$AAp?$AAn@ 0000000180073360     LIBCMTD:typname.obj
 0002:0000f3b0       ??_C@_1CM@OOICDMK@?$AAt?$AAy?$AAp?$AAe?$AA_?$AAi?$AAn?$AAf?$AAo?$AA?3?$AA?3?$AA_?$AAN?$AAa?$AAm?$AAe?$AA_?$AAb?$AAa?$AAs?$AAe?$AA?$AA@ 00000001800733b0     LIBCMTD:typname.obj
 0002:0000f3e0       ??_C@_1JK@NAFNEPGC@?$AAs?$AAt?$AAr?$AAc?$AAp?$AAy?$AA_?$AAs?$AA?5?$AA?$CI?$AA?$CI?$AAc?$AAh?$AAa?$AAr?$AA?5?$AA?$CK?$AA?$CJ?$AA?$CI?$AA?$CI?$AAt?$AAy?$AAp?$AAe?$AA_?$AAi?$AAn?$AAf?$AAo?$AA?5?$AA?$CK?$AA?$CJ@ 00000001800733e0     LIBCMTD:typname.obj
 0002:0000f480       ??_C@_1DO@OJJLFJPE@?$AAt?$AAy?$AAp?$AAe?$AA_?$AAi?$AAn?$AAf?$AAo?$AA?3?$AA?3?$AA_?$AAN?$AAa?$AAm?$AAe?$AA_?$AAb?$AAa?$AAs?$AAe?$AA_?$AAi?$AAn?$AAt?$AAe?$AAr?$AAn?$AAa?$AAl?$AA?$AA@ 0000000180073480     LIBCMTD:typname.obj
 0002:0000f4c0       ??_C@_1GI@EAJKJPED@?$AAs?$AAt?$AAr?$AAc?$AAp?$AAy?$AA_?$AAs?$AA?5?$AA?$CI?$AAp?$AAT?$AAm?$AAp?$AAT?$AAy?$AAp?$AAe?$AAN?$AAa?$AAm?$AAe?$AA?0?$AA?5?$AAl?$AAe?$AAn?$AA?$CL?$AA2?$AA?0?$AA?5?$AA?$CI@ 00000001800734c0     LIBCMTD:typname.obj
 0002:0000f530       ??_C@_1FE@GDPLAOMM@?$AAf?$AA?3?$AA?2?$AAd?$AAd?$AA?2?$AAv?$AAc?$AAt?$AAo?$AAo?$AAl?$AAs?$AA?2?$AAc?$AAr?$AAt?$AA?2?$AAc?$AAr?$AAt?$AAw?$AA3?$AA2?$AA?2?$AAc?$AAo?$AAn?$AAv?$AAe?$AAr?$AAt@ 0000000180073530     LIBCMTD:wcstol.obj
 0002:0000f588       ??_C@_1BA@PCFLFGNC@?$AAw?$AAc?$AAs?$AAt?$AAo?$AAx?$AAl?$AA?$AA@ 0000000180073588     LIBCMTD:wcstol.obj
 0002:0000f5c0       ??_C@_1FE@IEEFCKDG@?$AAf?$AA?3?$AA?2?$AAd?$AAd?$AA?2?$AAv?$AAc?$AAt?$AAo?$AAo?$AAl?$AAs?$AA?2?$AAc?$AAr?$AAt?$AA?2?$AAc?$AAr?$AAt?$AAw?$AA3?$AA2?$AA?2?$AAc?$AAo?$AAn?$AAv?$AAe?$AAr?$AAt@ 00000001800735c0     LIBCMTD:wcstoq.obj
 0002:0000f618       ??_C@_1BA@FACINJJA@?$AAw?$AAc?$AAs?$AAt?$AAo?$AAx?$AAq?$AA?$AA@ 0000000180073618     LIBCMTD:wcstoq.obj
 0002:0000f628       ??_C@_0CK@CEJCOKEF@f?3?2dd?2vctools?2crt?2crtw32?2convert@ 0000000180073628     LIBCMTD:wcstoq.obj
 0002:0000f658       ??_C@_1BA@BALFACEM@?$AAC?$AAO?$AAN?$AAO?$AAU?$AAT?$AA$?$AA?$AA@ 0000000180073658     LIBCMTD:initcon.obj
 0002:0000f988       ??_C@_08EHJDFFNH@__based?$CI?$AA@ 0000000180073988     LIBCMTD:undname.obj
 0002:0000f998       ??_C@_07KOLFKCDI@__cdecl?$AA@ 0000000180073998     LIBCMTD:undname.obj
 0002:0000f9a0       ??_C@_08GHMPAG@__pascal?$AA@ 00000001800739a0     LIBCMTD:undname.obj
 0002:0000f9b0       ??_C@_09IFJBGAPI@__stdcall?$AA@ 00000001800739b0     LIBCMTD:undname.obj
 0002:0000f9c0       ??_C@_0L@NPHFGOKO@__thiscall?$AA@ 00000001800739c0     LIBCMTD:undname.obj
 0002:0000f9d0       ??_C@_0L@JMKHOMEK@__fastcall?$AA@ 00000001800739d0     LIBCMTD:undname.obj
 0002:0000f9e0       ??_C@_0N@BCKKPABJ@__vectorcall?$AA@ 00000001800739e0     LIBCMTD:undname.obj
 0002:0000f9f0       ??_C@_09HIJEGCPM@__clrcall?$AA@ 00000001800739f0     LIBCMTD:undname.obj
 0002:0000f9fc       ??_C@_06GHPCKEAG@__eabi?$AA@ 00000001800739fc     LIBCMTD:undname.obj
 0002:0000fa08       ??_C@_07JOMMBBKO@__ptr64?$AA@ 0000000180073a08     LIBCMTD:undname.obj
 0002:0000fa10       ??_C@_0L@PILCLIHE@__restrict?$AA@ 0000000180073a10     LIBCMTD:undname.obj
 0002:0000fa20       ??_C@_0M@GFIIJFMG@__unaligned?$AA@ 0000000180073a20     LIBCMTD:undname.obj
 0002:0000fa30       ??_C@_09DHDLOLLB@restrict?$CI?$AA@ 0000000180073a30     LIBCMTD:undname.obj
 0002:0000fa3c       ??_C@_04NIHEBCM@?5new?$AA@ 0000000180073a3c     LIBCMTD:undname.obj
 0002:0000fa48       ??_C@_07FPCDHGMM@?5delete?$AA@ 0000000180073a48     LIBCMTD:undname.obj
 0002:0000fa50       ??_C@_01NEMOKFLO@?$DN?$AA@ 0000000180073a50     LIBCMTD:undname.obj
 0002:0000fa54       ??_C@_02GPIOPFAK@?$DO?$DO?$AA@ 0000000180073a54     LIBCMTD:undname.obj
 0002:0000fa58       ??_C@_02FODMEDOG@?$DM?$DM?$AA@ 0000000180073a58     LIBCMTD:undname.obj
 0002:0000fa5c       ??_C@_01DCLJPIOD@?$CB?$AA@ 0000000180073a5c     LIBCMTD:undname.obj
 0002:0000fa60       ??_C@_02EGOFBIJA@?$DN?$DN?$AA@ 0000000180073a60     LIBCMTD:undname.obj
 0002:0000fa64       ??_C@_02FDNJECIE@?$CB?$DN?$AA@ 0000000180073a64     LIBCMTD:undname.obj
 0002:0000fa68       ??_C@_02GPECMEKF@?$FL?$FN?$AA@ 0000000180073a68     LIBCMTD:undname.obj
 0002:0000fa70       ??_C@_08LHJFAFGD@operator?$AA@ 0000000180073a70     LIBCMTD:undname.obj
 0002:0000fa7c       ??_C@_02HBOOOICD@?9?$DO?$AA@ 0000000180073a7c     LIBCMTD:undname.obj
 0002:0000fa80       ??_C@_01NBENCBCI@?$CK?$AA@ 0000000180073a80     LIBCMTD:undname.obj
 0002:0000fa84       ??_C@_02ECNGHCIF@?$CL?$CL?$AA@ 0000000180073a84     LIBCMTD:undname.obj
 0002:0000fa88       ??_C@_02BAABKJLB@?9?9?$AA@ 0000000180073a88     LIBCMTD:undname.obj
 0002:0000fa8c       ??_C@_01JOAMLHOP@?9?$AA@   0000000180073a8c     LIBCMTD:undname.obj
 0002:0000fa90       ??_C@_01MIFGBAGJ@?$CL?$AA@ 0000000180073a90     LIBCMTD:undname.obj
 0002:0000fa94       ??_C@_01HNPIGOCE@?$CG?$AA@ 0000000180073a94     LIBCMTD:undname.obj
 0002:0000fa98       ??_C@_03MNHNFDLC@?9?$DO?$CK?$AA@ 0000000180073a98     LIBCMTD:undname.obj
 0002:0000fa9c       ??_C@_01KMDKNFGN@?1?$AA@   0000000180073a9c     LIBCMTD:undname.obj
 0002:0000faa0       ??_C@_01FGNFDNOH@?$CF?$AA@ 0000000180073aa0     LIBCMTD:undname.obj
 0002:0000faa4       ??_C@_01MNNFJEPP@?$DM?$AA@ 0000000180073aa4     LIBCMTD:undname.obj
 0002:0000faa8       ??_C@_02EHCHHCKH@?$DM?$DN?$AA@ 0000000180073aa8     LIBCMTD:undname.obj
 0002:0000faac       ??_C@_01PPODPGHN@?$DO?$AA@ 0000000180073aac     LIBCMTD:undname.obj
 0002:0000fab0       ??_C@_02EEKDKGMJ@?$DO?$DN?$AA@ 0000000180073ab0     LIBCMTD:undname.obj
 0002:0000fab4       ??_C@_01IHBHIGKO@?0?$AA@   0000000180073ab4     LIBCMTD:undname.obj
 0002:0000fab8       ??_C@_02HCKGKOFO@?$CI?$CJ?$AA@ 0000000180073ab8     LIBCMTD:undname.obj
 0002:0000fabc       ??_C@_01PJKLJHI@?$HO?$AA@  0000000180073abc     LIBCMTD:undname.obj
 0002:0000fac0       ??_C@_01JKBOJNNK@?$FO?$AA@ 0000000180073ac0     LIBCMTD:undname.obj
 0002:0000fac4       ??_C@_01DNKMNLPK@?$HM?$AA@ 0000000180073ac4     LIBCMTD:undname.obj
 0002:0000fac8       ??_C@_02PPKAJPJL@?$CG?$CG?$AA@ 0000000180073ac8     LIBCMTD:undname.obj
 0002:0000facc       ??_C@_02NONPIBCD@?$HM?$HM?$AA@ 0000000180073acc     LIBCMTD:undname.obj
 0002:0000fad0       ??_C@_02FPIMKNGF@?$CK?$DN?$AA@ 0000000180073ad0     LIBCMTD:undname.obj
 0002:0000fad4       ??_C@_02FOEOMHFC@?$CL?$DN?$AA@ 0000000180073ad4     LIBCMTD:undname.obj
 0002:0000fad8       ??_C@_02FKMDLLOA@?9?$DN?$AA@ 0000000180073ad8     LIBCMTD:undname.obj
 0002:0000fadc       ??_C@_02FJEHGPIO@?1?$DN?$AA@ 0000000180073adc     LIBCMTD:undname.obj
 0002:0000fae0       ??_C@_02FENAOKFI@?$CF?$DN?$AA@ 0000000180073ae0     LIBCMTD:undname.obj
 0002:0000fae4       ??_C@_03IKFCCPFF@?$DO?$DO?$DN?$AA@ 0000000180073ae4     LIBCMTD:undname.obj
 0002:0000fae8       ??_C@_03CDNPDDLA@?$DM?$DM?$DN?$AA@ 0000000180073ae8     LIBCMTD:undname.obj
 0002:0000faec       ??_C@_02FGJGFEAB@?$CG?$DN?$AA@ 0000000180073aec     LIBCMTD:undname.obj
 0002:0000faf0       ??_C@_02DHLNPPGH@?$HM?$DN?$AA@ 0000000180073af0     LIBCMTD:undname.obj
 0002:0000faf4       ??_C@_02MHEGNOJ@?$FO?$DN?$AA@ 0000000180073af4     LIBCMTD:undname.obj
 0002:0000faf8       ??_C@_09IFPLHPGF@?$GAvftable?8?$AA@ 0000000180073af8     LIBCMTD:undname.obj
 0002:0000fb08       ??_C@_09BLBHBJP@?$GAvbtable?8?$AA@ 0000000180073b08     LIBCMTD:undname.obj
 0002:0000fb18       ??_C@_07FEEIOKP@?$GAvcall?8?$AA@ 0000000180073b18     LIBCMTD:undname.obj
 0002:0000fb20       ??_C@_08LLFFHHDJ@?$GAtypeof?8?$AA@ 0000000180073b20     LIBCMTD:undname.obj
 0002:0000fb30       ??_C@_0BF@KDPPACIK@?$GAlocal?5static?5guard?8?$AA@ 0000000180073b30     LIBCMTD:undname.obj
 0002:0000fb48       ??_C@_08OBABFOLI@?$GAstring?8?$AA@ 0000000180073b48     LIBCMTD:undname.obj
 0002:0000fb58       ??_C@_0BD@JDLKDPAB@?$GAvbase?5destructor?8?$AA@ 0000000180073b58     LIBCMTD:undname.obj
 0002:0000fb70       ??_C@_0BN@DEGPLNFK@?$GAvector?5deleting?5destructor?8?$AA@ 0000000180073b70     LIBCMTD:undname.obj
 0002:0000fb90       ??_C@_0BO@OBMKPJIG@?$GAdefault?5constructor?5closure?8?$AA@ 0000000180073b90     LIBCMTD:undname.obj
 0002:0000fbb0       ??_C@_0BN@IMDCHIKM@?$GAscalar?5deleting?5destructor?8?$AA@ 0000000180073bb0     LIBCMTD:undname.obj
 0002:0000fbd0       ??_C@_0BO@PFGOCPJJ@?$GAvector?5constructor?5iterator?8?$AA@ 0000000180073bd0     LIBCMTD:undname.obj
 0002:0000fbf0       ??_C@_0BN@LFPFMEDL@?$GAvector?5destructor?5iterator?8?$AA@ 0000000180073bf0     LIBCMTD:undname.obj
 0002:0000fc10       ??_C@_0CE@IKBNEHA@?$GAvector?5vbase?5constructor?5iterat@ 0000000180073c10     LIBCMTD:undname.obj
 0002:0000fc38       ??_C@_0BL@NILFHHPC@?$GAvirtual?5displacement?5map?8?$AA@ 0000000180073c38     LIBCMTD:undname.obj
 0002:0000fc58       ??_C@_0CB@JONCMFFK@?$GAeh?5vector?5constructor?5iterator?8@ 0000000180073c58     LIBCMTD:undname.obj
 0002:0000fc80       ??_C@_0CA@GCEOPDGL@?$GAeh?5vector?5destructor?5iterator?8?$AA@ 0000000180073c80     LIBCMTD:undname.obj
 0002:0000fca0       ??_C@_0CH@OOJPLCPH@?$GAeh?5vector?5vbase?5constructor?5ite@ 0000000180073ca0     LIBCMTD:undname.obj
 0002:0000fcc8       ??_C@_0BL@LLKPOHJI@?$GAcopy?5constructor?5closure?8?$AA@ 0000000180073cc8     LIBCMTD:undname.obj
 0002:0000fce8       ??_C@_0BA@KBCDOMBN@?$GAudt?5returning?8?$AA@ 0000000180073ce8     LIBCMTD:undname.obj
 0002:0000fcf8       ??_C@_03KLGMFNMG@?$GAEH?$AA@ 0000000180073cf8     LIBCMTD:undname.obj
 0002:0000fcfc       ??_C@_05KHLCHHI@?$GARTTI?$AA@ 0000000180073cfc     LIBCMTD:undname.obj
 0002:0000fd08       ??_C@_0BA@KKLDJDLB@?$GAlocal?5vftable?8?$AA@ 0000000180073d08     LIBCMTD:undname.obj
 0002:0000fd18       ??_C@_0CE@IIHCMGGL@?$GAlocal?5vftable?5constructor?5closu@ 0000000180073d18     LIBCMTD:undname.obj
 0002:0000fd3c       ??_C@_06FHBGPFGH@?5new?$FL?$FN?$AA@ 0000000180073d3c     LIBCMTD:undname.obj
 0002:0000fd48       ??_C@_09LBNFPBCA@?5delete?$FL?$FN?$AA@ 0000000180073d48     LIBCMTD:undname.obj
 0002:0000fd58       ??_C@_0P@HJKNJFNN@?$GAomni?5callsig?8?$AA@ 0000000180073d58     LIBCMTD:undname.obj
 0002:0000fd68       ??_C@_0BL@CNOONJFP@?$GAplacement?5delete?5closure?8?$AA@ 0000000180073d68     LIBCMTD:undname.obj
 0002:0000fd88       ??_C@_0BN@CKNJLHMB@?$GAplacement?5delete?$FL?$FN?5closure?8?$AA@ 0000000180073d88     LIBCMTD:undname.obj
 0002:0000fda8       ??_C@_0CG@CFDHKGGD@?$GAmanaged?5vector?5constructor?5iter@ 0000000180073da8     LIBCMTD:undname.obj
 0002:0000fdd0       ??_C@_0CF@IMGKMJNO@?$GAmanaged?5vector?5destructor?5itera@ 0000000180073dd0     LIBCMTD:undname.obj
 0002:0000fdf8       ??_C@_0CG@HLDDJMAG@?$GAeh?5vector?5copy?5constructor?5iter@ 0000000180073df8     LIBCMTD:undname.obj
 0002:0000fe20       ??_C@_0CM@FCBBDIGB@?$GAeh?5vector?5vbase?5copy?5constructo@ 0000000180073e20     LIBCMTD:undname.obj
 0002:0000fe50       ??_C@_0BL@CLIPGLGB@?$GAdynamic?5initializer?5for?5?8?$AA@ 0000000180073e50     LIBCMTD:undname.obj
 0002:0000fe70       ??_C@_0CB@PDBIFEP@?$GAdynamic?5atexit?5destructor?5for?5?8@ 0000000180073e70     LIBCMTD:undname.obj
 0002:0000fe98       ??_C@_0CD@CGAJBKEJ@?$GAvector?5copy?5constructor?5iterato@ 0000000180073e98     LIBCMTD:undname.obj
 0002:0000fec0       ??_C@_0CJ@GJELGAMM@?$GAvector?5vbase?5copy?5constructor?5i@ 0000000180073ec0     LIBCMTD:undname.obj
 0002:0000fef0       ??_C@_0CL@FGIJHLCE@?$GAmanaged?5vector?5copy?5constructor@ 0000000180073ef0     LIBCMTD:undname.obj
 0002:0000ff20       ??_C@_0BM@PMGGMLDN@?$GAlocal?5static?5thread?5guard?8?$AA@ 0000000180073f20     LIBCMTD:undname.obj
 0002:0000ff40       ??_C@_0BC@DAFEJGAK@?5Type?5Descriptor?8?$AA@ 0000000180073f40     LIBCMTD:undname.obj
 0002:0000ff58       ??_C@_0BM@LDKODKLH@?5Base?5Class?5Descriptor?5at?5?$CI?$AA@ 0000000180073f58     LIBCMTD:undname.obj
 0002:0000ff78       ??_C@_0BD@LGICGFMM@?5Base?5Class?5Array?8?$AA@ 0000000180073f78     LIBCMTD:undname.obj
 0002:0000ff90       ??_C@_0BN@MECKDCOJ@?5Class?5Hierarchy?5Descriptor?8?$AA@ 0000000180073f90     LIBCMTD:undname.obj
 0002:0000ffb0       ??_C@_0BK@CFCOFLF@?5Complete?5Object?5Locator?8?$AA@ 0000000180073fb0     LIBCMTD:undname.obj
 0002:0000fff8       ??_C@_04HEJADOOB@CV?3?5?$AA@ 0000000180073ff8     LIBCMTD:undname.obj
 0002:00010000       ??_C@_02MOLJINC@?3?3?$AA@  0000000180074000     LIBCMTD:undname.obj
 0002:00010008       ??_C@_0BE@JAEOCHPE@template?9parameter?9?$AA@ 0000000180074008     LIBCMTD:undname.obj
 0002:00010020       ??_C@_0O@KHGCOMHP@generic?9type?9?$AA@ 0000000180074020     LIBCMTD:undname.obj
 0002:00010030       ??_C@_01NLNLIGKH@?$GA?$AA@ 0000000180074030     LIBCMTD:undname.obj
 0002:00010034       ??_C@_01GEODFPGF@?8?$AA@   0000000180074034     LIBCMTD:undname.obj
 0002:00010038       ??_C@_0BG@JNJLAMPM@?$GAanonymous?5namespace?8?$AA@ 0000000180074038     LIBCMTD:undname.obj
 0002:00010050       ??_C@_02OHHJMEON@?8?8?$AA@ 0000000180074050     LIBCMTD:undname.obj
 0002:00010058       ??_C@_0BN@IBLMMFAP@?$GAnon?9type?9template?9parameter?$AA@ 0000000180074058     LIBCMTD:undname.obj
 0002:00010078       ??_C@_04GKJNKENE@void?$AA@ 0000000180074078     LIBCMTD:undname.obj
 0002:00010080       ??_C@_0BE@EODMJLIF@?$GAtemplate?9parameter?$AA@ 0000000180074080     LIBCMTD:undname.obj
 0002:00010094       ??_C@_04HIBGFPH@NULL?$AA@  0000000180074094     LIBCMTD:undname.obj
 0002:0001009c       ??_C@_03OPGICMGF@?$HN?8?5?$AA@ 000000018007409c     LIBCMTD:undname.obj
 0002:000100a0       ??_C@_02IGFCGPIL@?$HN?8?$AA@ 00000001800740a0     LIBCMTD:undname.obj
 0002:000100a4       ??_C@_01CLKCMJKC@?5?$AA@   00000001800740a4     LIBCMTD:undname.obj
 0002:000100a8       ??_C@_0N@CBHHHENL@?$GAvtordispex?$HL?$AA@ 00000001800740a8     LIBCMTD:undname.obj
 0002:000100b8       ??_C@_0L@GHPFDFH@?$GAvtordisp?$HL?$AA@ 00000001800740b8     LIBCMTD:undname.obj
 0002:000100c8       ??_C@_0L@HNGCOGAE@?$GAadjustor?$HL?$AA@ 00000001800740c8     LIBCMTD:undname.obj
 0002:000100d8       ??_C@_0CB@KJDOOODE@?$GAlocal?5static?5destructor?5helper?8@ 00000001800740d8     LIBCMTD:undname.obj
 0002:00010100       ??_C@_0DB@ILEFOCIJ@?$GAtemplate?5static?5data?5member?5con@ 0000000180074100     LIBCMTD:undname.obj
 0002:00010138       ??_C@_0DA@HGFJFBBE@?$GAtemplate?5static?5data?5member?5des@ 0000000180074138     LIBCMTD:undname.obj
 0002:00010168       ??_C@_07PGOEDBHP@static?5?$AA@ 0000000180074168     LIBCMTD:undname.obj
 0002:00010170       ??_C@_08NIEOINHE@virtual?5?$AA@ 0000000180074170     LIBCMTD:undname.obj
 0002:00010180       ??_C@_09LAPHOOG@private?3?5?$AA@ 0000000180074180     LIBCMTD:undname.obj
 0002:00010190       ??_C@_0M@GAIFPFIP@protected?3?5?$AA@ 0000000180074190     LIBCMTD:undname.obj
 0002:000101a0       ??_C@_08GPDDCMKI@public?3?5?$AA@ 00000001800741a0     LIBCMTD:undname.obj
 0002:000101b0       ??_C@_08KJLFOPNE@?$FLthunk?$FN?3?$AA@ 00000001800741b0     LIBCMTD:undname.obj
 0002:000101c0       ??_C@_0M@DHNBOJMP@extern?5?$CCC?$CC?5?$AA@ 00000001800741c0     LIBCMTD:undname.obj
 0002:000101cc       ??_C@_02KCKGHPCA@?$CJ?5?$AA@ 00000001800741cc     LIBCMTD:undname.obj
 0002:000101d0       ??_C@_05CIHEBHNO@char?5?$AA@ 00000001800741d0     LIBCMTD:undname.obj
 0002:000101d8       ??_C@_06EHJMALKF@short?5?$AA@ 00000001800741d8     LIBCMTD:undname.obj
 0002:000101e0       ??_C@_04LAHKHJMA@int?5?$AA@ 00000001800741e0     LIBCMTD:undname.obj
 0002:000101e8       ??_C@_05CJIMAING@long?5?$AA@ 00000001800741e8     LIBCMTD:undname.obj
 0002:000101f0       ??_C@_09EBBEKKIH@unsigned?5?$AA@ 00000001800741f0     LIBCMTD:undname.obj
 0002:000101fc       ??_C@_05BEFAKPML@void?5?$AA@ 00000001800741fc     LIBCMTD:undname.obj
 0002:00010208       ??_C@_08PABEKFH@volatile?$AA@ 0000000180074208     LIBCMTD:undname.obj
 0002:00010218       ??_C@_0P@GCOCNKDM@std?3?3nullptr_t?$AA@ 0000000180074218     LIBCMTD:undname.obj
 0002:00010228       ??_C@_0L@EGPHHEKN@?$DMellipsis?$DO?$AA@ 0000000180074228     LIBCMTD:undname.obj
 0002:00010234       ??_C@_04EENFHACM@?0?4?4?4?$AA@ 0000000180074234     LIBCMTD:undname.obj
 0002:00010240       ??_C@_0M@ELJOJFFH@?0?$DMellipsis?$DO?$AA@ 0000000180074240     LIBCMTD:undname.obj
 0002:00010250       ??_C@_07HDJPLPEK@?5throw?$CI?$AA@ 0000000180074250     LIBCMTD:undname.obj
 0002:00010258       ??_C@_03PBJBJNON@cpu?$AA@  0000000180074258     LIBCMTD:undname.obj
 0002:0001025c       ??_C@_03DCBBJBAA@amp?$AA@  000000018007425c     LIBCMTD:undname.obj
 0002:00010260       ??_C@_02KEGNLNML@?0?5?$AA@ 0000000180074260     LIBCMTD:undname.obj
 0002:00010264       ??_C@_04ENMBGAPA@char?$AA@ 0000000180074264     LIBCMTD:undname.obj
 0002:0001026c       ??_C@_05BFKKPKCG@short?$AA@ 000000018007426c     LIBCMTD:undname.obj
 0002:00010274       ??_C@_03JBIPMCLC@int?$AA@  0000000180074274     LIBCMTD:undname.obj
 0002:00010278       ??_C@_04GOKPGOLB@long?$AA@ 0000000180074278     LIBCMTD:undname.obj
 0002:00010280       ??_C@_05KNFBNCOH@float?$AA@ 0000000180074280     LIBCMTD:undname.obj
 0002:00010288       ??_C@_06BNJCAIGJ@double?$AA@ 0000000180074288     LIBCMTD:undname.obj
 0002:00010290       ??_C@_04DDKJGDCM@bool?$AA@ 0000000180074290     LIBCMTD:undname.obj
 0002:00010298       ??_C@_06EBGKOKIG@__int8?$AA@ 0000000180074298     LIBCMTD:undname.obj
 0002:000102a0       ??_C@_07ICFHOGAF@__int16?$AA@ 00000001800742a0     LIBCMTD:undname.obj
 0002:000102a8       ??_C@_07OFLPPHGP@__int32?$AA@ 00000001800742a8     LIBCMTD:undname.obj
 0002:000102b0       ??_C@_07LFCOJCAC@__int64?$AA@ 00000001800742b0     LIBCMTD:undname.obj
 0002:000102b8       ??_C@_08GAHOLHEO@__int128?$AA@ 00000001800742b8     LIBCMTD:undname.obj
 0002:000102c8       ??_C@_09EEKGDCPH@?$DMunknown?$DO?$AA@ 00000001800742c8     LIBCMTD:undname.obj
 0002:000102d8       ??_C@_07CLGGIAMF@wchar_t?$AA@ 00000001800742d8     LIBCMTD:undname.obj
 0002:000102e0       ??_C@_06GCICPBLB@__w64?5?$AA@ 00000001800742e0     LIBCMTD:undname.obj
 0002:000102e8       ??_C@_07NFANNNEC@UNKNOWN?$AA@ 00000001800742e8     LIBCMTD:undname.obj
 0002:000102f0       ??_C@_07EDHNAJHC@signed?5?$AA@ 00000001800742f0     LIBCMTD:undname.obj
 0002:000102f8       ??_C@_05BNCCCJPP@const?$AA@ 00000001800742f8     LIBCMTD:undname.obj
 0002:00010300       ??_C@_09EFNPDFFP@?5volatile?$AA@ 0000000180074300     LIBCMTD:undname.obj
 0002:00010310       ??_C@_0P@GCIFDJCJ@?$GAunknown?5ecsu?8?$AA@ 0000000180074310     LIBCMTD:undname.obj
 0002:00010320       ??_C@_06MOJHIBMG@union?5?$AA@ 0000000180074320     LIBCMTD:undname.obj
 0002:00010328       ??_C@_07DIBCDNGL@struct?5?$AA@ 0000000180074328     LIBCMTD:undname.obj
 0002:00010330       ??_C@_06LJBABKPM@class?5?$AA@ 0000000180074330     LIBCMTD:undname.obj
 0002:00010338       ??_C@_08KOFANOFK@coclass?5?$AA@ 0000000180074338     LIBCMTD:undname.obj
 0002:00010348       ??_C@_0N@DLIEFKNA@cointerface?5?$AA@ 0000000180074348     LIBCMTD:undname.obj
 0002:00010358       ??_C@_05LJGMCFOG@enum?5?$AA@ 0000000180074358     LIBCMTD:undname.obj
 0002:00010360       ??_C@_09GAIEOBLP@volatile?5?$AA@ 0000000180074360     LIBCMTD:undname.obj
 0002:0001036c       ??_C@_06LIJLOJAG@const?5?$AA@ 000000018007436c     LIBCMTD:undname.obj
 0002:00010378       ??_C@_0M@EALIELKG@cli?3?3array?$DM?$AA@ 0000000180074378     LIBCMTD:undname.obj
 0002:00010388       ??_C@_0O@GKABPPIF@cli?3?3pin_ptr?$DM?$AA@ 0000000180074388     LIBCMTD:undname.obj
 0002:00010398       ??_C@_02GOGNNPBN@?$CJ?$FL?$AA@ 0000000180074398     LIBCMTD:undname.obj
 0002:0001039c       ??_C@_06EEGAIFAK@?$HLflat?$HN?$AA@ 000000018007439c     LIBCMTD:undname.obj
 0002:000103a4       ??_C@_05JIBOFOHK@?$HLfor?5?$AA@ 00000001800743a4     LIBCMTD:undname.obj
 0002:000103ac       ??_C@_02MDINNEEG@s?5?$AA@  00000001800743ac     LIBCMTD:undname.obj
 0002:000103b8       ??_7DNameNode@@6B@         00000001800743b8     LIBCMTD:undname.obj
 0002:000103d8       ??_7charNode@@6B@          00000001800743d8     LIBCMTD:undname.obj
 0002:000103f8       ??_7pcharNode@@6B@         00000001800743f8     LIBCMTD:undname.obj
 0002:00010418       ??_7pDNameNode@@6B@        0000000180074418     LIBCMTD:undname.obj
 0002:00010438       ??_7DNameStatusNode@@6B@   0000000180074438     LIBCMTD:undname.obj
 0002:00010458       ??_7pairNode@@6B@          0000000180074458     LIBCMTD:undname.obj
 0002:00010470       ??_C@_04OKOHEJBO@?5?$DP?$DP?5?$AA@ 0000000180074470     LIBCMTD:undname.obj
 0002:00010480       ??_C@_1FE@LABOBFHJ@?$AAf?$AA?3?$AA?2?$AAd?$AAd?$AA?2?$AAv?$AAc?$AAt?$AAo?$AAo?$AAl?$AAs?$AA?2?$AAc?$AAr?$AAt?$AA?2?$AAc?$AAr?$AAt?$AAw?$AA3?$AA2?$AA?2?$AAc?$AAo?$AAn?$AAv?$AAe?$AAr?$AAt@ 0000000180074480     LIBCMTD:wcstod.obj
 0002:000104d8       ??_C@_1BE@CIGDJHAJ@?$AA_?$AAw?$AAc?$AAs?$AAt?$AAo?$AAd?$AA_?$AAl?$AA?$AA@ 00000001800744d8     LIBCMTD:wcstod.obj
 0002:00010520       ??_C@_1FE@JDMNKKN@?$AAf?$AA?3?$AA?2?$AAd?$AAd?$AA?2?$AAv?$AAc?$AAt?$AAo?$AAo?$AAl?$AAs?$AA?2?$AAc?$AAr?$AAt?$AA?2?$AAc?$AAr?$AAt?$AAw?$AA3?$AA2?$AA?2?$AAc?$AAo?$AAn?$AAv?$AAe?$AAr?$AAt@ 0000000180074520     LIBCMTD:strtoq.obj
 0002:00010578       ??_C@_1BA@BMMDEPNE@?$AAs?$AAt?$AAr?$AAt?$AAo?$AAx?$AAq?$AA?$AA@ 0000000180074578     LIBCMTD:strtoq.obj
 0002:00010588       ??_C@_1CA@JGBKKNCE@?$AA_?$AA_?$AAw?$AAs?$AAt?$AAr?$AAg?$AAt?$AAo?$AAl?$AAd?$AA1?$AA2?$AA_?$AAl?$AA?$AA@ 0000000180074588     LIBCMTD:wstrgtold.obj
 0002:000105b0       ??_C@_1FE@DNGHOFOC@?$AAf?$AA?3?$AA?2?$AAd?$AAd?$AA?2?$AAv?$AAc?$AAt?$AAo?$AAo?$AAl?$AAs?$AA?2?$AAc?$AAr?$AAt?$AA?2?$AAc?$AAr?$AAt?$AAw?$AA3?$AA2?$AA?2?$AAc?$AAo?$AAn?$AAv?$AAe?$AAr?$AAt@ 00000001800745b0     LIBCMTD:strtod.obj
 0002:00010608       ??_C@_1BE@KFBKGHJC@?$AA_?$AAs?$AAt?$AAr?$AAt?$AAo?$AAd?$AA_?$AAl?$AA?$AA@ 0000000180074608     LIBCMTD:strtod.obj
 0002:00010620       _load_config_used          0000000180074620     LIBCMTD:loadcfg.obj
 0002:00010700       ??_R4bad_exception@std@@6B@ 0000000180074700     LIBCMTD:frame.obj
 0002:00010728       ??_R3bad_exception@std@@8  0000000180074728     LIBCMTD:frame.obj
 0002:00010740       ??_R2bad_exception@std@@8  0000000180074740     LIBCMTD:frame.obj
 0002:00010758       ??_R1A@?0A@EA@bad_exception@std@@8 0000000180074758     LIBCMTD:frame.obj
 0002:00010780       ??_R1A@?0A@EA@exception@std@@8 0000000180074780     LIBCMTD:frame.obj
 0002:000107a8       ??_R3exception@std@@8      00000001800747a8     LIBCMTD:frame.obj
 0002:000107c0       ??_R2exception@std@@8      00000001800747c0     LIBCMTD:frame.obj
 0002:000107d0       ??_R4type_info@@6B@        00000001800747d0     LIBCMTD:typinfo.obj
 0002:000107f8       ??_R3type_info@@8          00000001800747f8     LIBCMTD:typinfo.obj
 0002:00010810       ??_R2type_info@@8          0000000180074810     LIBCMTD:typinfo.obj
 0002:00010820       ??_R1A@?0A@EA@type_info@@8 0000000180074820     LIBCMTD:typinfo.obj
 0002:00010848       ??_R4exception@std@@6B@    0000000180074848     LIBCMTD:stdexcpt.obj
 0002:00010870       ??_R4bad_cast@std@@6B@     0000000180074870     LIBCMTD:stdexcpt.obj
 0002:00010898       ??_R3bad_cast@std@@8       0000000180074898     LIBCMTD:stdexcpt.obj
 0002:000108b0       ??_R2bad_cast@std@@8       00000001800748b0     LIBCMTD:stdexcpt.obj
 0002:000108c8       ??_R1A@?0A@EA@bad_cast@std@@8 00000001800748c8     LIBCMTD:stdexcpt.obj
 0002:000108f0       ??_R4bad_typeid@std@@6B@   00000001800748f0     LIBCMTD:stdexcpt.obj
 0002:00010918       ??_R3bad_typeid@std@@8     0000000180074918     LIBCMTD:stdexcpt.obj
 0002:00010930       ??_R2bad_typeid@std@@8     0000000180074930     LIBCMTD:stdexcpt.obj
 0002:00010948       ??_R1A@?0A@EA@bad_typeid@std@@8 0000000180074948     LIBCMTD:stdexcpt.obj
 0002:00010970       ??_R4__non_rtti_object@std@@6B@ 0000000180074970     LIBCMTD:stdexcpt.obj
 0002:00010998       ??_R3__non_rtti_object@std@@8 0000000180074998     LIBCMTD:stdexcpt.obj
 0002:000109b0       ??_R2__non_rtti_object@std@@8 00000001800749b0     LIBCMTD:stdexcpt.obj
 0002:000109d0       ??_R1A@?0A@EA@__non_rtti_object@std@@8 00000001800749d0     LIBCMTD:stdexcpt.obj
 0002:000109f8       ??_R4DNameNode@@6B@        00000001800749f8     LIBCMTD:undname.obj
 0002:00010a20       ??_R3DNameNode@@8          0000000180074a20     LIBCMTD:undname.obj
 0002:00010a38       ??_R2DNameNode@@8          0000000180074a38     LIBCMTD:undname.obj
 0002:00010a48       ??_R1A@?0A@EA@DNameNode@@8 0000000180074a48     LIBCMTD:undname.obj
 0002:00010a70       ??_R4charNode@@6B@         0000000180074a70     LIBCMTD:undname.obj
 0002:00010a98       ??_R3charNode@@8           0000000180074a98     LIBCMTD:undname.obj
 0002:00010ab0       ??_R2charNode@@8           0000000180074ab0     LIBCMTD:undname.obj
 0002:00010ac8       ??_R1A@?0A@EA@charNode@@8  0000000180074ac8     LIBCMTD:undname.obj
 0002:00010af0       ??_R4pcharNode@@6B@        0000000180074af0     LIBCMTD:undname.obj
 0002:00010b18       ??_R3pcharNode@@8          0000000180074b18     LIBCMTD:undname.obj
 0002:00010b30       ??_R2pcharNode@@8          0000000180074b30     LIBCMTD:undname.obj
 0002:00010b48       ??_R1A@?0A@EA@pcharNode@@8 0000000180074b48     LIBCMTD:undname.obj
 0002:00010b70       ??_R4pDNameNode@@6B@       0000000180074b70     LIBCMTD:undname.obj
 0002:00010b98       ??_R3pDNameNode@@8         0000000180074b98     LIBCMTD:undname.obj
 0002:00010bb0       ??_R2pDNameNode@@8         0000000180074bb0     LIBCMTD:undname.obj
 0002:00010bc8       ??_R1A@?0A@EA@pDNameNode@@8 0000000180074bc8     LIBCMTD:undname.obj
 0002:00010bf0       ??_R4DNameStatusNode@@6B@  0000000180074bf0     LIBCMTD:undname.obj
 0002:00010c18       ??_R3DNameStatusNode@@8    0000000180074c18     LIBCMTD:undname.obj
 0002:00010c30       ??_R2DNameStatusNode@@8    0000000180074c30     LIBCMTD:undname.obj
 0002:00010c48       ??_R1A@?0A@EA@DNameStatusNode@@8 0000000180074c48     LIBCMTD:undname.obj
 0002:00010c70       ??_R4pairNode@@6B@         0000000180074c70     LIBCMTD:undname.obj
 0002:00010c98       ??_R3pairNode@@8           0000000180074c98     LIBCMTD:undname.obj
 0002:00010cb0       ??_R2pairNode@@8           0000000180074cb0     LIBCMTD:undname.obj
 0002:00010cc8       ??_R1A@?0A@EA@pairNode@@8  0000000180074cc8     LIBCMTD:undname.obj
 0002:00010cf0       __rtc_iaa                  0000000180074cf0     LIBCMTD:initsect.obj
 0002:00010cf8       __rtc_izz                  0000000180074cf8     LIBCMTD:initsect.obj
 0002:00010d00       __rtc_taa                  0000000180074d00     LIBCMTD:initsect.obj
 0002:00010d08       __rtc_tzz                  0000000180074d08     LIBCMTD:initsect.obj
 0002:00013f18       _TI2?AVbad_exception@std@@ 0000000180077f18     LIBCMTD:frame.obj
 0002:00013f38       _CTA2?AVbad_exception@std@@ 0000000180077f38     LIBCMTD:frame.obj
 0002:00013f50       _CT??_R0?AVbad_exception@std@@@8??0bad_exception@std@@QEAA@AEBV01@@Z24 0000000180077f50     LIBCMTD:frame.obj
 0002:00013f78       _CT??_R0?AVexception@std@@@8??0exception@std@@QEAA@AEBV01@@Z24 0000000180077f78     LIBCMTD:frame.obj
 0002:00014014       __IMPORT_DESCRIPTOR_KERNEL32 0000000180078014     kernel32:KERNEL32.dll
 0002:00014028       __NULL_IMPORT_DESCRIPTOR   0000000180078028     kernel32:KERNEL32.dll
 0003:00000000       __security_cookie          0000000180079000     LIBCMTD:gs_cookie.obj
 0003:00000008       __security_cookie_complement 0000000180079008     LIBCMTD:gs_cookie.obj
 0003:00000010       _fltused                   0000000180079010     LIBCMTD:fpinit.obj
 0003:00000014       _ldused                    0000000180079014     LIBCMTD:fpinit.obj
 0003:00000018       __flsindex                 0000000180079018     LIBCMTD:tidtable.obj
 0003:00000020       _cfltcvt_tab               0000000180079020     LIBCMTD:cmiscdat.obj
 0003:00000070       __badioinfo                0000000180079070     LIBCMTD:ioinit.obj
 0003:000000c8       _crtBreakAlloc             00000001800790c8     LIBCMTD:dbgheap.obj
 0003:000000cc       _crtDbgFlag                00000001800790cc     LIBCMTD:dbgheap.obj
 0003:000000d0       __crtDebugFillThreshold    00000001800790d0     LIBCMTD:dbgheap.obj
 0003:000004a0       __mb_cur_max               00000001800794a0     LIBCMTD:nlsdata.obj
 0003:000004a4       __wclocalestr              00000001800794a4     LIBCMTD:nlsdata.obj
 0003:000004b0       __lc_time_c                00000001800794b0     LIBCMTD:nlsdata.obj
 0003:00000770       __ptlocinfo                0000000180079770     LIBCMTD:nlsdata.obj
 0003:00000780       __initiallocinfo           0000000180079780     LIBCMTD:nlsdata.obj
 0003:000008d8       __initiallocalestructinfo  00000001800798d8     LIBCMTD:nlsdata.obj
 0003:000008f0       _mbctype                   00000001800798f0     LIBCMTD:mbctype.obj
 0003:00000a00       _mbcasemap                 0000000180079a00     LIBCMTD:mbctype.obj
 0003:00000b00       __initialmbcinfo           0000000180079b00     LIBCMTD:mbctype.obj
 0003:00000e20       __ptmbcinfo                0000000180079e20     LIBCMTD:mbctype.obj
 0003:00000e28       _pfnAllocHook              0000000180079e28     LIBCMTD:dbghook.obj
 0003:00001004       _matherr_flag              000000018007a004     LIBCMTD:matherr.obj
 0003:00001018       __globallocalestatus       000000018007a018     LIBCMTD:glstatus.obj
 0003:00001020       _iob                       000000018007a020     LIBCMTD:_file.obj
 0003:000013f0       __lconv                    000000018007a3f0     LIBCMTD:lconv.obj
 0003:000013f8       __lconv_static_decimal     000000018007a3f8     LIBCMTD:lconv.obj
 0003:00001400       __lconv_c                  000000018007a400     LIBCMTD:lconv.obj
 0003:00001498       __lconv_static_W_decimal   000000018007a498     LIBCMTD:lconv.obj
 0003:000014a0       _pctype                    000000018007a4a0     LIBCMTD:ctype.obj
 0003:000014a8       _pwctype                   000000018007a4a8     LIBCMTD:ctype.obj
 0003:000014b0       _d_inf                     000000018007a4b0     LIBCMTD:util.obj
 0003:000014b8       _d_ind                     000000018007a4b8     LIBCMTD:util.obj
 0003:000014c0       _d_max                     000000018007a4c0     LIBCMTD:util.obj
 0003:000014c8       _d_min                     000000018007a4c8     LIBCMTD:util.obj
 0003:000014d0       _d_mzero                   000000018007a4d0     LIBCMTD:util.obj
 0003:000014e8       __isa_available            000000018007a4e8     LIBCMTD:cpu_disp.obj
 0003:000014ec       __isa_enabled              000000018007a4ec     LIBCMTD:cpu_disp.obj
 0003:00001520       _crtAssertBusy             000000018007a520     LIBCMTD:dbgrptt.obj
 0003:00001528       _CrtDbgMode                000000018007a528     LIBCMTD:dbgrptt.obj
 0003:00001538       _CrtDbgFile                000000018007a538     LIBCMTD:dbgrptt.obj
 0003:00001550       __abort_behavior           000000018007a550     LIBCMTD:abort.obj
 0003:00001558       __nullstring               000000018007a558     LIBCMTD:output.obj
 0003:00001560       __wnullstring              000000018007a560     LIBCMTD:output.obj
 0003:00001568       ?dazSupported@?1??_control87@@9@9 000000018007a568     LIBCMTD:ieee.obj
 0003:00001570       _pow10pos                  000000018007a570     LIBCMTD:constpow.obj
 0003:000016d0       _pow10neg                  000000018007a6d0     LIBCMTD:constpow.obj
 0003:00001830       _confh                     000000018007a830     LIBCMTD:initcon.obj
 0003:00001840       _HUGE                      000000018007a840     LIBCMTD:huge.obj
 0003:00001848       ??_R0?AVbad_exception@std@@@8 000000018007a848     LIBCMTD:frame.obj
 0003:00001870       ??_R0?AVexception@std@@@8  000000018007a870     LIBCMTD:frame.obj
 0003:00001898       ??_R0?AVtype_info@@@8      000000018007a898     LIBCMTD:typinfo.obj
 0003:000018b8       ??_R0?AVbad_cast@std@@@8   000000018007a8b8     LIBCMTD:stdexcpt.obj
 0003:000018e0       ??_R0?AVbad_typeid@std@@@8 000000018007a8e0     LIBCMTD:stdexcpt.obj
 0003:00001908       ??_R0?AV__non_rtti_object@std@@@8 000000018007a908     LIBCMTD:stdexcpt.obj
 0003:00001938       ??_R0?AVDNameNode@@@8      000000018007a938     LIBCMTD:undname.obj
 0003:00001958       ??_R0?AVcharNode@@@8       000000018007a958     LIBCMTD:undname.obj
 0003:00001978       ??_R0?AVpcharNode@@@8      000000018007a978     LIBCMTD:undname.obj
 0003:00001998       ??_R0?AVpDNameNode@@@8     000000018007a998     LIBCMTD:undname.obj
 0003:000019c0       ??_R0?AVDNameStatusNode@@@8 000000018007a9c0     LIBCMTD:undname.obj
 0003:000019e8       ??_R0?AVpairNode@@@8       000000018007a9e8     LIBCMTD:undname.obj
 0003:00001a20       __fastflag                 000000018007aa20     LIBCMTD:fpinit.obj
 0003:00001a28       _aenvptr                   000000018007aa28     LIBCMTD:dllcrt0.obj
 0003:00001a30       _wenvptr                   000000018007aa30     LIBCMTD:dllcrt0.obj
 0003:00001fb4       __fma3_is_available        000000018007afb4     LIBCMTD:fma3_available.obj
 0003:00001fb8       __use_fma3_lib             000000018007afb8     LIBCMTD:fma3_available.obj
 0003:00001fc0       __argc                     000000018007afc0     LIBCMTD:crt0dat.obj
 0003:00001fc4       _C_Exit_Done               000000018007afc4     LIBCMTD:crt0dat.obj
 0003:00001fc8       __argv                     000000018007afc8     LIBCMTD:crt0dat.obj
 0003:00001fd0       __wargv                    000000018007afd0     LIBCMTD:crt0dat.obj
 0003:00001fd8       _environ                   000000018007afd8     LIBCMTD:crt0dat.obj
 0003:00001fe0       _wenviron                  000000018007afe0     LIBCMTD:crt0dat.obj
 0003:00001fe8       _pgmptr                    000000018007afe8     LIBCMTD:crt0dat.obj
 0003:00001ff0       _wpgmptr                   000000018007aff0     LIBCMTD:crt0dat.obj
 0003:00001ff8       _umaskval                  000000018007aff8     LIBCMTD:crt0dat.obj
 0003:00001ffc       _exitflag                  000000018007affc     LIBCMTD:crt0dat.obj
 0003:00002000       _C_Termination_Done        000000018007b000     LIBCMTD:crt0dat.obj
 0003:00002008       __winitenv                 000000018007b008     LIBCMTD:crt0dat.obj
 0003:00002010       __initenv                  000000018007b010     LIBCMTD:crt0dat.obj
 0003:00002018       _crtheap                   000000018007b018     LIBCMTD:heapinit.obj
 0003:00002020       __pioinfo                  000000018007b020     LIBCMTD:ioinit.obj
 0003:00002328       __crtDebugCheckCount       000000018007b328     LIBCMTD:dbgheap.obj
 0003:00002330       ?_pfnDumpClient@@3P6AXPEAX_K@ZEA 000000018007b330     LIBCMTD:dbgheap.obj
 0003:000025c8       __mbcodepage               000000018007b5c8     LIBCMTD:mbctype.obj
 0003:000025cc       __ismbcodepage             000000018007b5cc     LIBCMTD:mbctype.obj
 0003:000025d0       __mbulinfo                 000000018007b5d0     LIBCMTD:mbctype.obj
 0003:000025e0       __mblocalename             000000018007b5e0     LIBCMTD:mbctype.obj
 0003:000025f0       __pInvalidArgHandler       000000018007b5f0     LIBCMTD:invarg.obj
 0003:000025f8       _outputformat              000000018007b5f8     LIBCMTD:outputformat.obj
 0003:00002600       __app_type                 000000018007b600     LIBCMTD:crt0msg.obj
 0003:00002c38       ?__pInconsistency@@3P6AXXZEA 000000018007bc38     LIBCMTD:hooks.obj
 0003:00002c40       ?_pnhHeap@@3P6AH_K@ZEA     000000018007bc40     LIBCMTD:handler.obj
 0003:00002c48       __pPurecall                000000018007bc48     LIBCMTD:inithelp.obj
 0003:00002c80       _stdbuf                    000000018007bc80     LIBCMTD:_sftbuf.obj
 0003:00002c90       _cflush                    000000018007bc90     LIBCMTD:_file.obj
 0003:00002c94       _newmode                   000000018007bc94     LIBCMTD:_newmode.obj
 0003:00002c98       __lconv_static_null        000000018007bc98     LIBCMTD:lconv.obj
 0003:00002c9c       __lconv_static_W_null      000000018007bc9c     LIBCMTD:lconv.obj
 0003:00002ca0       __locale_changed           000000018007bca0     LIBCMTD:wsetloca.obj
 0003:00002ca4       __favor                    000000018007bca4     LIBCMTD:cpu_disp.obj
 0003:00002cd0       __error_mode               000000018007bcd0     LIBCMTD:errmode.obj
 0003:00002ce0       ?g_OutOfMemoryExceptionCallback@@3P6APEAXXZEA 000000018007bce0     LIBCMTD:frame.obj
 0003:00002d00       ?m_pGetParameter@UnDecorator@@0P6APEADJ@ZEA 000000018007bd00     LIBCMTD:undname.obj
 0003:00002d08       ?pArgList@UnDecorator@@0PEAVReplicator@@EA 000000018007bd08     LIBCMTD:undname.obj
 0003:00002d10       ?pZNameList@UnDecorator@@0PEAVReplicator@@EA 000000018007bd10     LIBCMTD:undname.obj
 0003:00002d18       ?pTemplateArgList@UnDecorator@@0PEAVReplicator@@EA 000000018007bd18     LIBCMTD:undname.obj
 0003:00002d20       ?gName@UnDecorator@@0PEBDEB 000000018007bd20     LIBCMTD:undname.obj
 0003:00002d28       ?name@UnDecorator@@0PEBDEB 000000018007bd28     LIBCMTD:undname.obj
 0003:00002d30       ?outputString@UnDecorator@@0PEADEA 000000018007bd30     LIBCMTD:undname.obj
 0003:00002d38       ?maxStringLength@UnDecorator@@0HA 000000018007bd38     LIBCMTD:undname.obj
 0003:00002d3c       ?disableFlags@UnDecorator@@0KA 000000018007bd3c     LIBCMTD:undname.obj
 0003:00002d40       ?fExplicitTemplateParams@UnDecorator@@0_NA 000000018007bd40     LIBCMTD:undname.obj
 0003:00002d41       ?fGetTemplateArgumentList@UnDecorator@@0_NA 000000018007bd41     LIBCMTD:undname.obj
 0003:00002dc0       ?nodes@?1??make@DNameStatusNode@@SAPEAV2@W4DNameStatus@@@Z@4PAV2@A 000000018007bdc0     LIBCMTD:undname.obj
 0003:00002e00       ??_B?1??make@DNameStatusNode@@SAPEAV1@W4DNameStatus@@@Z@51 000000018007be00     LIBCMTD:undname.obj
 0003:00002e08       _pReportHookListW          000000018007be08     <common>
 0003:00002e10       _pReportHookList           000000018007be10     <common>
 0003:00002e18       _pfnReportHook             000000018007be18     <common>
 0003:00002e20       __unguarded_readlc_active  000000018007be20     <common>
 0003:00002e24       __setlc_active             000000018007be24     <common>
 0003:00002e28       __piob                     000000018007be28     <common>
 0003:00002e30       _nstream                   000000018007be30     <common>
 0003:00002e40       _bufin                     000000018007be40     <common>
 0003:00003e40       _debugger_hook_dummy       000000018007ce40     <common>
 0003:00003e60       encodedKERNEL32Functions   000000018007ce60     <common>
 0003:00003f68       _nhandle                   000000018007cf68     <common>
 0003:00003f70       __dyn_tls_init_callback    000000018007cf70     <common>
 0003:00003f78       __onexitend                000000018007cf78     <common>
 0003:00003f80       __onexitbegin              000000018007cf80     <common>
 0003:00003f88       __mbctype_initialized      000000018007cf88     <common>
 0003:00003f8c       __env_initialized          000000018007cf8c     <common>
 0003:00003f90       _acmdln                    000000018007cf90     <common>

 entry point at        0001:00006940

 Static symbols

 0004:fff83000       $pdata$get_int64_arg       0000000180000000     LIBCMTD:woutputs.obj
 0002:fff9c000       $unwind$??0_LocaleUpdate@@QEAA@PEAUlocaleinfo_struct@@@Z 0000000180000000     LIBCMTD:woutputp.obj
 0004:fff83000       $pdata$_invoke_watson_if_oneof 0000000180000000     LIBCMTD:dbgrptt.obj
 0002:fff9c000       $unwind$_invoke_watson_if_oneof 0000000180000000     LIBCMTD:dbgrptt.obj
 0004:fff83000       $pdata$_invoke_watson_if_error 0000000180000000     LIBCMTD:dbgrptt.obj
 0004:fff83000       $pdata$??0_LocaleUpdate@@QEAA@PEAUlocaleinfo_struct@@@Z 0000000180000000     LIBCMTD:woutputp.obj
 0002:fff9c000       $unwind$_invoke_watson_if_error 0000000180000000     LIBCMTD:dbgrptt.obj
 0002:fff9c000       $unwind$??0_LocaleUpdate@@QEAA@PEAUlocaleinfo_struct@@@Z 0000000180000000     LIBCMTD:wcstoq.obj
 0004:fff83000       $pdata$??0_LocaleUpdate@@QEAA@PEAUlocaleinfo_struct@@@Z 0000000180000000     LIBCMTD:wcstoq.obj
 0004:fff83000       $pdata$_invoke_watson_if_oneof 0000000180000000     LIBCMTD:dbgrpt.obj
 0002:fff9c000       $unwind$_invoke_watson_if_oneof 0000000180000000     LIBCMTD:dbgrpt.obj
 0004:fff83000       $pdata$_invoke_watson_if_error 0000000180000000     LIBCMTD:dbgrpt.obj
 0002:fff9c000       $unwind$_invoke_watson_if_error 0000000180000000     LIBCMTD:dbgrpt.obj
 0002:fff9c000       $unwind$_invoke_watson_if_error 0000000180000000     LIBCMTD:getqloc.obj
 0004:fff83000       $pdata$_invoke_watson_if_error 0000000180000000     LIBCMTD:getqloc.obj
 0002:fff9c000       $unwind$get_int_arg        0000000180000000     LIBCMTD:woutputp.obj
 0004:fff83000       $pdata$get_int_arg         0000000180000000     LIBCMTD:woutputp.obj
 0002:fff9c000       $unwind$get_int64_arg      0000000180000000     LIBCMTD:woutputp.obj
 0002:fff9c000       $unwind$??0_LocaleUpdate@@QEAA@PEAUlocaleinfo_struct@@@Z 0000000180000000     LIBCMTD:wcstombs.obj
 0004:fff83000       $pdata$??0_LocaleUpdate@@QEAA@PEAUlocaleinfo_struct@@@Z 0000000180000000     LIBCMTD:wcstombs.obj
 0002:fff9c000       $unwind$??0_LocaleUpdate@@QEAA@PEAUlocaleinfo_struct@@@Z 0000000180000000     LIBCMTD:wctomb.obj
 0004:fff83000       $pdata$??0_LocaleUpdate@@QEAA@PEAUlocaleinfo_struct@@@Z 0000000180000000     LIBCMTD:wctomb.obj
 0004:fff83000       $pdata$get_int64_arg       0000000180000000     LIBCMTD:woutputp.obj
 0002:fff9c000       $unwind$??0_LocaleUpdate@@QEAA@PEAUlocaleinfo_struct@@@Z 0000000180000000     LIBCMTD:woutputs.obj
 0004:fff83000       $pdata$??0_LocaleUpdate@@QEAA@PEAUlocaleinfo_struct@@@Z 0000000180000000     LIBCMTD:woutputs.obj
 0002:fff9c000       $unwind$get_int_arg        0000000180000000     LIBCMTD:woutputs.obj
 0004:fff83000       $pdata$get_int_arg         0000000180000000     LIBCMTD:woutputs.obj
 0002:fff9c000       $unwind$get_int64_arg      0000000180000000     LIBCMTD:woutputs.obj
 0002:fff9c000       $unwind$_invoke_watson_if_error 0000000180000000     LIBCMTD:inithelp.obj
 0004:fff83000       $pdata$_invoke_watson_if_error 0000000180000000     LIBCMTD:inithelp.obj
 0002:fff9c000       $unwind$??0_LocaleUpdate@@QEAA@PEAUlocaleinfo_struct@@@Z 0000000180000000     LIBCMTD:wcsicmp.obj
 0004:fff83000       $pdata$??0_LocaleUpdate@@QEAA@PEAUlocaleinfo_struct@@@Z 0000000180000000     LIBCMTD:wcsicmp.obj
 0002:fff9c000       $unwind$??0_LocaleUpdate@@QEAA@PEAUlocaleinfo_struct@@@Z 0000000180000000     LIBCMTD:wcsnicmp.obj
 0004:fff83000       $pdata$_invoke_watson_if_error 0000000180000000     LIBCMTD:typname.obj
 0002:fff9c000       $unwind$??0_LocaleUpdate@@QEAA@PEAUlocaleinfo_struct@@@Z 0000000180000000     LIBCMTD:_ctype.obj
 0004:fff83000       $pdata$get_int64_arg       0000000180000000     LIBCMTD:woutput.obj
 0002:fff9c000       $unwind$_invoke_watson_if_error 0000000180000000     LIBCMTD:typname.obj
 0002:fff9c000       $unwind$get_int64_arg      0000000180000000     LIBCMTD:woutput.obj
 0004:fff83000       $pdata$??0_LocaleUpdate@@QEAA@PEAUlocaleinfo_struct@@@Z 0000000180000000     LIBCMTD:_ctype.obj
 0000:fff7e000       .debug$S                   0000000180000000     kernel32:KERNEL32.dll
 0004:fff83000       $pdata$??0_LocaleUpdate@@QEAA@PEAUlocaleinfo_struct@@@Z 0000000180000000     LIBCMTD:wcstod.obj
 0000:fff7e000       .debug$S                   0000000180000000     kernel32:KERNEL32.dll
 0002:fff9c000       $unwind$??0_LocaleUpdate@@QEAA@PEAUlocaleinfo_struct@@@Z 0000000180000000     LIBCMTD:wcstod.obj
 0000:fff7e000       .debug$S                   0000000180000000     kernel32:KERNEL32.dll
 0004:fff83000       $pdata$get_int_arg         0000000180000000     LIBCMTD:woutput.obj
 0000:fff7e000       .debug$S                   0000000180000000     kernel32:KERNEL32.dll
 0004:fff83000       $pdata$??0_LocaleUpdate@@QEAA@PEAUlocaleinfo_struct@@@Z 0000000180000000     LIBCMTD:wcsnicmp.obj
 0000:fff7e000       .debug$S                   0000000180000000     kernel32:KERNEL32.dll
 0002:fff9c000       $unwind$get_int_arg        0000000180000000     LIBCMTD:woutput.obj
 0000:fff7e000       .debug$S                   0000000180000000     kernel32:KERNEL32.dll
 0004:fff83000       $pdata$_invoke_watson_if_error 0000000180000000     LIBCMTD:cfout.obj
 0000:fff7e000       .debug$S                   0000000180000000     kernel32:KERNEL32.dll
 0002:fff9c000       $unwind$_invoke_watson_if_error 0000000180000000     LIBCMTD:cfout.obj
 0000:fff7e000       .debug$S                   0000000180000000     kernel32:KERNEL32.dll
 0004:fff83000       $pdata$??0_LocaleUpdate@@QEAA@PEAUlocaleinfo_struct@@@Z 0000000180000000     LIBCMTD:woutput.obj
 0000:fff7e000       .debug$S                   0000000180000000     kernel32:KERNEL32.dll
 0002:fff9c000       $unwind$_invoke_watson_if_error 0000000180000000     LIBCMTD:stdenvp.obj
 0000:fff7e000       .debug$S                   0000000180000000     kernel32:KERNEL32.dll
 0004:fff83000       $pdata$__add_12            0000000180000000     LIBCMTD:mantold.obj
 0000:fff7e000       .debug$S                   0000000180000000     kernel32:KERNEL32.dll
 0004:fff83000       $pdata$_invoke_watson_if_error 0000000180000000     LIBCMTD:stdenvp.obj
 0000:fff7e000       .debug$S                   0000000180000000     kernel32:KERNEL32.dll
 0002:fff9c000       $unwind$__add_12           0000000180000000     LIBCMTD:mantold.obj
 0000:fff7e000       .debug$S                   0000000180000000     kernel32:KERNEL32.dll
 0002:fff9c000       $unwind$??0_LocaleUpdate@@QEAA@PEAUlocaleinfo_struct@@@Z 0000000180000000     LIBCMTD:woutput.obj
 0000:fff7e000       .debug$S                   0000000180000000     kernel32:KERNEL32.dll
 0004:fff83000       $pdata$__shl_12            0000000180000000     LIBCMTD:mantold.obj
 0000:fff7e000       .debug$S                   0000000180000000     kernel32:KERNEL32.dll
 0002:fff9c000       $unwind$_invoke_watson_if_error 0000000180000000     LIBCMTD:winapinls.obj
 0000:fff7e000       .debug$S                   0000000180000000     kernel32:KERNEL32.dll
 0002:fff9c000       $unwind$__addl             0000000180000000     LIBCMTD:x10fout.obj
 0000:fff7e000       .debug$S                   0000000180000000     kernel32:KERNEL32.dll
 0004:fff83000       $pdata$??0_LocaleUpdate@@QEAA@PEAUlocaleinfo_struct@@@Z 0000000180000000     LIBCMTD:towlower.obj
 0000:fff7e000       .debug$S                   0000000180000000     kernel32:KERNEL32.dll
 0002:fff9c000       $unwind$??0_LocaleUpdate@@QEAA@PEAUlocaleinfo_struct@@@Z 0000000180000000     LIBCMTD:towlower.obj
 0000:fff7e000       .debug$S                   0000000180000000     kernel32:KERNEL32.dll
 0004:fff83000       $pdata$_invoke_watson_if_error 0000000180000000     LIBCMTD:winapinls.obj
 0000:fff7e000       .debug$S                   0000000180000000     kernel32:KERNEL32.dll
 0004:fff83000       $pdata$__addl              0000000180000000     LIBCMTD:x10fout.obj
 0000:fff7e000       .debug$S                   0000000180000000     kernel32:KERNEL32.dll
 0002:fff9c000       $unwind$__shl_12           0000000180000000     LIBCMTD:mantold.obj
 0000:fff7e000       .debug$S                   0000000180000000     kernel32:KERNEL32.dll
 0002:fff9c000       $unwind$__shl_12           0000000180000000     LIBCMTD:x10fout.obj
 0000:fff7e000       .debug$S                   0000000180000000     kernel32:KERNEL32.dll
 0004:fff83000       $pdata$??0_LocaleUpdate@@QEAA@PEAUlocaleinfo_struct@@@Z 0000000180000000     LIBCMTD:tolower.obj
 0000:fff7e000       .debug$S                   0000000180000000     kernel32:KERNEL32.dll
 0002:fff9c000       $unwind$??0_LocaleUpdate@@QEAA@PEAUlocaleinfo_struct@@@Z 0000000180000000     LIBCMTD:tolower.obj
 0000:fff7e000       .debug$S                   0000000180000000     kernel32:KERNEL32.dll
 0004:fff83000       $pdata$__shl_12            0000000180000000     LIBCMTD:x10fout.obj
 0000:fff7e000       .debug$S                   0000000180000000     kernel32:KERNEL32.dll
 0002:fff9c000       $unwind$__shr_12           0000000180000000     LIBCMTD:x10fout.obj
 0000:fff7e000       .debug$S                   0000000180000000     kernel32:KERNEL32.dll
 0004:fff83000       $pdata$__shr_12            0000000180000000     LIBCMTD:x10fout.obj
 0000:fff7e000       .debug$S                   0000000180000000     kernel32:KERNEL32.dll
 0002:fff9c000       $unwind$__multtenpow12     0000000180000000     LIBCMTD:x10fout.obj
 0000:fff7e000       .debug$S                   0000000180000000     kernel32:KERNEL32.dll
 0004:fff83000       $pdata$__multtenpow12      0000000180000000     LIBCMTD:x10fout.obj
 0000:fff7e000       .debug$S                   0000000180000000     kernel32:KERNEL32.dll
 0002:fff9c000       $unwind$__ld12mul          0000000180000000     LIBCMTD:x10fout.obj
 0000:fff7e000       .debug$S                   0000000180000000     kernel32:KERNEL32.dll
 0004:fff83000       $pdata$_invoke_watson_if_error 0000000180000000     LIBCMTD:wsetloca.obj
 0000:fff7e000       .debug$S                   0000000180000000     kernel32:KERNEL32.dll
 0002:fff9c000       $unwind$_invoke_watson_if_error 0000000180000000     LIBCMTD:wsetloca.obj
 0000:fff7e000       .debug$S                   0000000180000000     kernel32:KERNEL32.dll
 0002:fff9c000       $unwind$??0_LocaleUpdate@@QEAA@PEAUlocaleinfo_struct@@@Z 0000000180000000     LIBCMTD:ismbbyte.obj
 0000:fff7e000       .debug$S                   0000000180000000     kernel32:KERNEL32.dll
 0004:fff83000       $pdata$??0_LocaleUpdate@@QEAA@PEAUlocaleinfo_struct@@@Z 0000000180000000     LIBCMTD:ismbbyte.obj
 0000:fff7e000       .debug$S                   0000000180000000     kernel32:KERNEL32.dll
 0004:fff83000       $pdata$__ld12mul           0000000180000000     LIBCMTD:x10fout.obj
 0000:fff7e000       .debug$S                   0000000180000000     kernel32:KERNEL32.dll
 0004:fff83000       $pdata$??0_LocaleUpdate@@QEAA@PEAUlocaleinfo_struct@@@Z 0000000180000000     LIBCMTD:strtoq.obj
 0000:fff7e000       .debug$S                   0000000180000000     kernel32:KERNEL32.dll
 0002:fff9c000       $unwind$??0_LocaleUpdate@@QEAA@PEAUlocaleinfo_struct@@@Z 0000000180000000     LIBCMTD:strtoq.obj
 0000:fff7e000       .debug$S                   0000000180000000     kernel32:KERNEL32.dll
 0002:fff9c000       $unwind$_invoke_watson_if_error 0000000180000000     LIBCMTD:x10fout.obj
 0000:fff7e000       .debug$S                   0000000180000000     kernel32:KERNEL32.dll
 0004:fff83000       $pdata$_invoke_watson_if_error 0000000180000000     LIBCMTD:x10fout.obj
 0000:fff7e000       .debug$S                   0000000180000000     kernel32:KERNEL32.dll
 0002:fff9c000       $unwind$??0_LocaleUpdate@@QEAA@PEAUlocaleinfo_struct@@@Z 0000000180000000     LIBCMTD:_wctype.obj
 0000:fff7e000       .debug$S                   0000000180000000     kernel32:KERNEL32.dll
 0004:fff83000       $pdata$??0_LocaleUpdate@@QEAA@PEAUlocaleinfo_struct@@@Z 0000000180000000     LIBCMTD:_wctype.obj
 0000:fff7e000       .debug$S                   0000000180000000     kernel32:KERNEL32.dll
 0004:fff83000       $pdata$__addl              0000000180000000     LIBCMTD:mantold.obj
 0000:fff7e000       .debug$S                   0000000180000000     kernel32:KERNEL32.dll
 0002:fff9c000       $unwind$_invoke_watson_if_error 0000000180000000     LIBCMTD:crt0msg.obj
 0000:fff7e000       .debug$S                   0000000180000000     kernel32:KERNEL32.dll
 0004:fff83000       $pdata$??0_LocaleUpdate@@QEAA@PEAUlocaleinfo_struct@@@Z 0000000180000000     LIBCMTD:a_str.obj
 0000:fff7e000       .debug$S                   0000000180000000     kernel32:KERNEL32.dll
 0002:fff9c000       $unwind$??0_LocaleUpdate@@QEAA@PEAUlocaleinfo_struct@@@Z 0000000180000000     LIBCMTD:a_str.obj
 0000:fff7e000       .debug$S                   0000000180000000     kernel32:KERNEL32.dll
 0004:fff83000       $pdata$_freea              0000000180000000     LIBCMTD:a_str.obj
 0000:fff7e000       .debug$S                   0000000180000000     kernel32:KERNEL32.dll
 0002:fff9c000       $unwind$_freea             0000000180000000     LIBCMTD:a_str.obj
 0000:fff7e000       .debug$S                   0000000180000000     kernel32:KERNEL32.dll
 0004:fff83000       $pdata$_MallocaIsSizeInRange 0000000180000000     LIBCMTD:a_str.obj
 0000:fff7e000       .debug$S                   0000000180000000     kernel32:KERNEL32.dll
 0004:fff83000       $pdata$get_int64_arg       0000000180000000     LIBCMTD:outputs.obj
 0000:fff7e000       .debug$S                   0000000180000000     kernel32:KERNEL32.dll
 0002:fff9c000       $unwind$??0_LocaleUpdate@@QEAA@PEAUlocaleinfo_struct@@@Z 0000000180000000     LIBCMTD:mbctype.obj
 0000:fff7e000       .debug$S                   0000000180000000     kernel32:KERNEL32.dll
 0004:fff83000       $pdata$??0_LocaleUpdate@@QEAA@PEAUlocaleinfo_struct@@@Z 0000000180000000     LIBCMTD:mbctype.obj
 0000:fff7e000       .debug$S                   0000000180000000     kernel32:KERNEL32.dll
 0002:fff9c000       $unwind$_MallocaIsSizeInRange 0000000180000000     LIBCMTD:a_str.obj
 0000:fff7e000       .debug$S                   0000000180000000     kernel32:KERNEL32.dll
 0002:fff9c000       $unwind$__addl             0000000180000000     LIBCMTD:wstrgtold.obj
 0000:fff7e000       .debug$S                   0000000180000000     kernel32:KERNEL32.dll
 0002:fff9c000       $unwind$??0_LocaleUpdate@@QEAA@PEAUlocaleinfo_struct@@@Z 0000000180000000     LIBCMTD:dbgheap.obj
 0000:fff7e000       .debug$S                   0000000180000000     kernel32:KERNEL32.dll
 0004:fff83000       $pdata$__addl              0000000180000000     LIBCMTD:wstrgtold.obj
 0000:fff7e000       .debug$S                   0000000180000000     kernel32:KERNEL32.dll
 0004:fff83000       $pdata$??0_LocaleUpdate@@QEAA@PEAUlocaleinfo_struct@@@Z 0000000180000000     LIBCMTD:strtol.obj
 0000:fff7e000       .debug$S                   0000000180000000     kernel32:KERNEL32.dll
 0002:fff9c000       $unwind$??0_LocaleUpdate@@QEAA@PEAUlocaleinfo_struct@@@Z 0000000180000000     LIBCMTD:strtol.obj
 0000:fff7e000       .debug$S                   0000000180000000     kernel32:KERNEL32.dll
 0002:fff9c000       $unwind$__shl_12           0000000180000000     LIBCMTD:wstrgtold.obj
 0000:fff7e000       .debug$S                   0000000180000000     kernel32:KERNEL32.dll
 0004:fff83000       $pdata$__shl_12            0000000180000000     LIBCMTD:wstrgtold.obj
 0000:fff7e000       .debug$S                   0000000180000000     kernel32:KERNEL32.dll
 0002:fff9c000       $unwind$__shr_12           0000000180000000     LIBCMTD:wstrgtold.obj
 0004:fff83000       $pdata$_invoke_watson_if_error 0000000180000000     LIBCMTD:crt0msg.obj
 0004:fff83000       $pdata$__shr_12            0000000180000000     LIBCMTD:wstrgtold.obj
 0000:fff7e000       .debug$S                   0000000180000000     kernel32:KERNEL32.dll
 0004:fff83000       $pdata$??0_LocaleUpdate@@QEAA@PEAUlocaleinfo_struct@@@Z 0000000180000000     LIBCMTD:strtod.obj
 0000:fff7e000       .debug$S                   0000000180000000     kernel32:KERNEL32.dll
 0002:fff9c000       $unwind$??0_LocaleUpdate@@QEAA@PEAUlocaleinfo_struct@@@Z 0000000180000000     LIBCMTD:strtod.obj
 0000:fff7e000       .debug$S                   0000000180000000     kernel32:KERNEL32.dll
 0002:fff9c000       $unwind$??0_LocaleUpdate@@QEAA@PEAUlocaleinfo_struct@@@Z 0000000180000000     LIBCMTD:outputp.obj
 0000:fff7e000       .debug$S                   0000000180000000     kernel32:KERNEL32.dll
 0002:fff9c000       $unwind$__multtenpow12     0000000180000000     LIBCMTD:wstrgtold.obj
 0004:fff83000       $pdata$??0_LocaleUpdate@@QEAA@PEAUlocaleinfo_struct@@@Z 0000000180000000     LIBCMTD:dbgheap.obj
 0002:fff9c000       $unwind$__addl             0000000180000000     LIBCMTD:mantold.obj
 0000:fff7e000       .debug$S                   0000000180000000     kernel32:KERNEL32.dll
 0004:fff83000       $pdata$??0_LocaleUpdate@@QEAA@PEAUlocaleinfo_struct@@@Z 0000000180000000     LIBCMTD:outputp.obj
 0000:fff7e000       .debug$S                   0000000180000000     kernel32:KERNEL32.dll
 0004:fff83000       $pdata$??0_LocaleUpdate@@QEAA@PEAUlocaleinfo_struct@@@Z 0000000180000000     LIBCMTD:output.obj
 0000:fff7e000       .debug$S                   0000000180000000     kernel32:KERNEL32.dll
 0002:fff9c000       $unwind$??0_LocaleUpdate@@QEAA@PEAUlocaleinfo_struct@@@Z 0000000180000000     LIBCMTD:output.obj
 0000:fff7e000       .debug$S                   0000000180000000     kernel32:KERNEL32.dll
 0002:fff9c000       $unwind$get_int64_arg      0000000180000000     LIBCMTD:outputs.obj
 0000:fff7e000       .debug$S                   0000000180000000     kernel32:KERNEL32.dll
 0004:fff83000       $pdata$get_short_arg       0000000180000000     LIBCMTD:outputs.obj
 0000:fff7e000       .debug$S                   0000000180000000     kernel32:KERNEL32.dll
 0004:fff83000       $pdata$??0_LocaleUpdate@@QEAA@PEAUlocaleinfo_struct@@@Z 0000000180000000     LIBCMTD:a_map.obj
 0000:fff7e000       .debug$S                   0000000180000000     kernel32:KERNEL32.dll
 0002:fff9c000       $unwind$??0_LocaleUpdate@@QEAA@PEAUlocaleinfo_struct@@@Z 0000000180000000     LIBCMTD:atodbl.obj
 0000:fff7e000       .debug$S                   0000000180000000     kernel32:KERNEL32.dll
 0002:fff9c000       $unwind$get_short_arg      0000000180000000     LIBCMTD:outputs.obj
 0000:fff7e000       .debug$S                   0000000180000000     kernel32:KERNEL32.dll
 0002:fff9c000       $unwind$??0_LocaleUpdate@@QEAA@PEAUlocaleinfo_struct@@@Z 0000000180000000     LIBCMTD:a_map.obj
 0000:fff7e000       .debug$S                   0000000180000000     kernel32:KERNEL32.dll
 0004:fff83000       $pdata$__multtenpow12      0000000180000000     LIBCMTD:wstrgtold.obj
 0000:fff7e000       .debug$S                   0000000180000000     kernel32:KERNEL32.dll
 0004:fff83000       $pdata$??0_LocaleUpdate@@QEAA@PEAUlocaleinfo_struct@@@Z 0000000180000000     LIBCMTD:atodbl.obj
 0000:fff7e000       .debug$S                   0000000180000000     kernel32:KERNEL32.dll
 0002:fff9c000       $unwind$get_int_arg        0000000180000000     LIBCMTD:outputp.obj
 0000:fff7e000       .debug$S                   0000000180000000     kernel32:KERNEL32.dll
 0004:fff83000       $pdata$??0_LocaleUpdate@@QEAA@PEAUlocaleinfo_struct@@@Z 0000000180000000     LIBCMTD:mbtowc.obj
 0000:fff7e000       .debug$S                   0000000180000000     kernel32:KERNEL32.dll
 0004:fff83000       $pdata$_invoke_watson_if_oneof 0000000180000000     LIBCMTD:dbgrptw.obj
 0000:fff7e000       .debug$S                   0000000180000000     kernel32:KERNEL32.dll
 0002:fff9c000       $unwind$_invoke_watson_if_oneof 0000000180000000     LIBCMTD:dbgrptw.obj
 0000:fff7e000       .debug$S                   0000000180000000     kernel32:KERNEL32.dll
 0004:fff83000       $pdata$_invoke_watson_if_error 0000000180000000     LIBCMTD:dbgrptw.obj
 0000:fff7e000       .debug$S                   0000000180000000     kernel32:KERNEL32.dll
 0004:fff83000       $pdata$__addl              0000000180000000     LIBCMTD:strgtold.obj
 0004:fff83000       $pdata$get_int_arg         0000000180000000     LIBCMTD:outputs.obj
 0002:fff9c000       $unwind$_invoke_watson_if_error 0000000180000000     LIBCMTD:dbgrptw.obj
 0000:fff7e000       .debug$S                   0000000180000000     kernel32:KERNEL32.dll
 0004:fff83000       $pdata$get_int_arg         0000000180000000     LIBCMTD:outputp.obj
 0000:fff7e000       .debug$S                   0000000180000000     kernel32:KERNEL32.dll
 0002:fff9c000       $unwind$__addl             0000000180000000     LIBCMTD:strgtold.obj
 0000:fff7e000       .debug$S                   0000000180000000     kernel32:KERNEL32.dll
 0002:fff9c000       $unwind$get_short_arg      0000000180000000     LIBCMTD:outputp.obj
 0000:fff7e000       .debug$S                   0000000180000000     kernel32:KERNEL32.dll
 0002:fff9c000       $unwind$??0_LocaleUpdate@@QEAA@PEAUlocaleinfo_struct@@@Z 0000000180000000     LIBCMTD:mbtowc.obj
 0000:fff7e000       .debug$S                   0000000180000000     kernel32:KERNEL32.dll
 0004:fff83000       $pdata$get_short_arg       0000000180000000     LIBCMTD:outputp.obj
 0002:fff9c000       $unwind$_MallocaIsSizeInRange 0000000180000000     LIBCMTD:a_loc.obj
 0002:fff9c000       $unwind$__ld12mul          0000000180000000     LIBCMTD:wstrgtold.obj
 0002:fff9c000       $unwind$get_int_arg        0000000180000000     LIBCMTD:outputs.obj
 0002:fff9c000       $unwind$??0_LocaleUpdate@@QEAA@PEAUlocaleinfo_struct@@@Z 0000000180000000     LIBCMTD:isctype.obj
 0004:fff83000       $pdata$??0_LocaleUpdate@@QEAA@PEAUlocaleinfo_struct@@@Z 0000000180000000     LIBCMTD:isctype.obj
 0004:fff83000       $pdata$_MallocaIsSizeInRange 0000000180000000     LIBCMTD:a_loc.obj
 0002:fff9c000       $unwind$get_int64_arg      0000000180000000     LIBCMTD:outputp.obj
 0004:fff83000       $pdata$??0_LocaleUpdate@@QEAA@PEAUlocaleinfo_struct@@@Z 0000000180000000     LIBCMTD:outputs.obj
 0004:fff83000       $pdata$get_int64_arg       0000000180000000     LIBCMTD:outputp.obj
 0002:fff9c000       $unwind$_freea             0000000180000000     LIBCMTD:a_loc.obj
 0004:fff83000       $pdata$__ld12mul           0000000180000000     LIBCMTD:wstrgtold.obj
 0004:fff83000       $pdata$_freea              0000000180000000     LIBCMTD:a_loc.obj
 0004:fff83000       $pdata$??0_LocaleUpdate@@QEAA@PEAUlocaleinfo_struct@@@Z 0000000180000000     LIBCMTD:mbstowcs.obj
 0002:fff9c000       $unwind$??0_LocaleUpdate@@QEAA@PEAUlocaleinfo_struct@@@Z 0000000180000000     LIBCMTD:a_loc.obj
 0002:fff9c000       $unwind$??0_LocaleUpdate@@QEAA@PEAUlocaleinfo_struct@@@Z 0000000180000000     LIBCMTD:mbstowcs.obj
 0004:fff83000       $pdata$??0_LocaleUpdate@@QEAA@PEAUlocaleinfo_struct@@@Z 0000000180000000     LIBCMTD:a_loc.obj
 0002:fff9c000       $unwind$??0_LocaleUpdate@@QEAA@PEAUlocaleinfo_struct@@@Z 0000000180000000     LIBCMTD:outputs.obj
 0001:00000000       ?InitializeArena@@YAXPEAUmemory_arena@@_KPEAE@Z 0000000180001000 f   handmade.obj
 0001:000000b0       ?InitializeWorld@@YAXPEAUworld@@M@Z 00000001800010b0 f   handmade.obj
 0001:00000150       ?GameOutputSound@@YAXPEAUgame_state@@PEAUgame_sound_output_buffer@@H@Z 0000000180001150 f   handmade.obj
 0001:00000200       ?DrawRectangle@@YAXPEAUgame_offscreen_buffer@@Tv2@@1MMM@Z 0000000180001200 f   handmade.obj
 0001:000003e0       ?DrawBitmap@@YAXPEAUgame_offscreen_buffer@@PEAUloaded_bitmap@@MMM@Z 00000001800013e0 f   handmade.obj
 0001:00000810       ?DEBUGLoadBMP@@YA?AUloaded_bitmap@@PEAUthread_context@@P6A?AUdebug_read_file_result@@0PEAD@Z1@Z 0000000180001810 f   handmade.obj
 0001:00000bb0       ?AddLowEntity@@YA?AUadd_low_entity_result@@PEAUgame_state@@W4entity_type@@PEAUworld_position@@@Z 0000000180001bb0 f   handmade.obj
 0001:00000d20       ?AddWall@@YA?AUadd_low_entity_result@@PEAUgame_state@@III@Z 0000000180001d20 f   handmade.obj
 0001:00000ee0       ?AddPlayer@@YA?AUadd_low_entity_result@@PEAUgame_state@@@Z 0000000180001ee0 f   handmade.obj
 0001:00001060       ?AddMonstar@@YA?AUadd_low_entity_result@@PEAUgame_state@@III@Z 0000000180002060 f   handmade.obj
 0001:000011b0       ?AddFamiliar@@YA?AUadd_low_entity_result@@PEAUgame_state@@III@Z 00000001800021b0 f   handmade.obj
 0001:00001300       ?TestWall@@YAHMMMMMPEAMMM@Z 0000000180002300 f   handmade.obj
 0001:00001410       ?MoveEntity@@YAXPEAUgame_state@@Uentity@@MTv2@@@Z 0000000180002410 f   handmade.obj
 0001:00001e30       ?SetCamera@@YAXPEAUgame_state@@Uworld_position@@@Z 0000000180002e30 f   handmade.obj
 0001:00002350       ?PushPiece@@YAXPEAUentity_visible_piece_group@@PEAUloaded_bitmap@@Tv2@@M2MM@Z 0000000180003350 f   handmade.obj
 0001:00005d40       $$000000                   0000000180006d40     LIBCMTD:amdsecgs.obj
 0001:00005d70       $$000000                   0000000180006d70     LIBCMTD:sinf.obj
 0001:00006980       __DllMainCRTStartup        0000000180007980 f   LIBCMTD:dllcrt0.obj
 0001:00007d70       $$000000                   0000000180008d70     LIBCMTD:remainder_piby2f_forC.obj
 0001:000083c0       _call_matherr              00000001800093c0 f   LIBCMTD:libm_error.obj
 0001:00008450       _exception_enabled         0000000180009450 f   LIBCMTD:libm_error.obj
 0001:00009750       _cftoe2_l                  000000018000a750 f   LIBCMTD:cvt.obj
 0001:0000a0a0       _cftof2_l                  000000018000b0a0 f   LIBCMTD:cvt.obj
 0001:0000af40       _shift                     000000018000bf40 f   LIBCMTD:cvt.obj
 0001:0000b2b0       xcptlookup                 000000018000c2b0 f   LIBCMTD:winxfltr.obj
 0001:0000bfa0       _initterm                  000000018000cfa0 f   LIBCMTD:crt0dat.obj
 0001:0000c090       doexit                     000000018000d090 f   LIBCMTD:crt0dat.obj
 0001:0000cbe0       parse_cmdline              000000018000dbe0 f   LIBCMTD:stdargv.obj
 0001:0000d2b0       ?_CrtMemDumpAllObjectsSince_stat@@YAXPEBU_CrtMemState@@PEAUlocaleinfo_struct@@@Z 000000018000e2b0 f   LIBCMTD:dbgheap.obj
 0001:0000d650       ?__crtIsBadReadPtr@@YAHPEBX_K@Z 000000018000e650 f   LIBCMTD:dbgheap.obj
 0001:0000d770       CheckBytes                 000000018000e770 f   LIBCMTD:dbgheap.obj
 0001:00010570       _heap_alloc_dbg_impl       0000000180011570 f   LIBCMTD:dbgheap.obj
 0001:00010e00       _nh_malloc_dbg_impl        0000000180011e00 f   LIBCMTD:dbgheap.obj
 0001:00010ea0       _printMemBlockData         0000000180011ea0 f   LIBCMTD:dbgheap.obj
 0001:000112d0       realloc_help               00000001800122d0 f   LIBCMTD:dbgheap.obj
 0001:00011e80       __IsPackagedAppHelper      0000000180012e80 f   LIBCMTD:winapisupp.obj
 0001:00014350       ?CPtoLocaleName@@YAPEB_WH@Z 0000000180015350 f   LIBCMTD:mbctype.obj
 0001:000143f0       ?getSystemCP@@YAHH@Z       00000001800153f0 f   LIBCMTD:mbctype.obj
 0001:000144d0       ?setSBCS@@YAXPEAUthreadmbcinfostruct@@@Z 00000001800154d0 f   LIBCMTD:mbctype.obj
 0001:000145d0       ?setSBUpLow@@YAXPEAUthreadmbcinfostruct@@@Z 00000001800155d0 f   LIBCMTD:mbctype.obj
 0001:000155d0       _get_fname                 00000001800165d0 f   LIBCMTD:fpexcept.obj
 0001:00017890       $$000000                   0000000180018890     LIBCMTD:memset.obj
 0001:00017a35       MsetTab                    0000000180018a35     LIBCMTD:memset.obj
 0001:00017f70       $$000000                   0000000180018f70     LIBCMTD:strlen.obj
 0001:00018030       $$000000                   0000000180019030     LIBCMTD:memcpy.obj
 0001:00018120       MoveSmall                  0000000180019120     LIBCMTD:memcpy.obj
 0001:0001aa90       _onexit_nolock             000000018001ba90 f   LIBCMTD:onexit.obj
 0001:0001b2d0       ctrlevent_capture          000000018001c2d0 f   LIBCMTD:winsig.obj
 0001:0001b750       $LN41                      000000018001c750     LIBCMTD:winsig.obj
 0001:0001b768       $LN40                      000000018001c768     LIBCMTD:winsig.obj
 0001:0001b780       siglookup                  000000018001c780 f   LIBCMTD:winsig.obj
 0001:0001c240       $$000000                   000000018001d240     LIBCMTD:jmpuwind.obj
 0001:0001c5d0       ?x_ismbbtype_l@@YAHPEAUlocaleinfo_struct@@IHH@Z 000000018001d5d0 f   LIBCMTD:ismbbyte.obj
 0001:0001d250       _is_LFH_enabled            000000018001e250 f   LIBCMTD:expand.obj
 0001:0001f360       fix_grouping               0000000180020360 f   LIBCMTD:initmon.obj
 0001:0001f9b0       fix_grouping               00000001800209b0 f   LIBCMTD:initnum.obj
 0001:00020620       _get_lc_time               0000000180021620 f   LIBCMTD:inittime.obj
 0001:00021d00       ?__crtLCMapStringA_stat@@YAHPEAUlocaleinfo_struct@@PEB_WKPEBDHPEADHHH@Z 0000000180022d00 f   LIBCMTD:a_map.obj
 0001:00022170       ?strncnt@@YAHPEBDH@Z       0000000180023170 f   LIBCMTD:a_map.obj
 0001:00022390       ?__crtGetStringTypeA_stat@@YAHPEAUlocaleinfo_struct@@KPEBDHPEAGHH@Z 0000000180023390 f   LIBCMTD:a_str.obj
 0001:000225e0       ?_CatchTryBlock@@YAPEBU_s_TryBlockMapEntry@@PEBU_s_FuncInfo@@H@Z 00000001800235e0 f   LIBCMTD:trnsctrl.obj
 0001:00023460       $$000000                   0000000180024460     LIBCMTD:fpsr.obj
 0001:00023b70       _copytlocinfo_nolock       0000000180024b70 f   LIBCMTD:wsetloca.obj
 0001:00024970       _wsetlocale_get_all        0000000180025970 f   LIBCMTD:wsetloca.obj
 0001:00024e60       _wsetlocale_nolock         0000000180025e60 f   LIBCMTD:wsetloca.obj
 0001:000252d0       _wsetlocale_set_cat        00000001800262d0 f   LIBCMTD:wsetloca.obj
 0001:000259e0       sync_legacy_variables_lk   00000001800269e0 f   LIBCMTD:wsetloca.obj
 0001:000282b4       $LN140                     00000001800292b4     LIBCMTD:strgtold.obj
 0001:000282e4       $LN139                     00000001800292e4     LIBCMTD:strgtold.obj
 0001:000282f4       $LN138                     00000001800292f4     LIBCMTD:strgtold.obj
 0001:00028330       $LN137                     0000000180029330     LIBCMTD:strgtold.obj
 0001:0002833c       $LN136                     000000018002933c     LIBCMTD:strgtold.obj
 0001:00028378       $LN135                     0000000180029378     LIBCMTD:strgtold.obj
 0001:00028384       $LN134                     0000000180029384     LIBCMTD:strgtold.obj
 0001:0002b830       $$000000                   000000018002c830     LIBCMTD:chkstk.obj
 0001:0002cdd0       ?__crtGetLocaleInfoA_stat@@YAHPEAUlocaleinfo_struct@@PEB_WKPEADH@Z 000000018002ddd0 f   LIBCMTD:a_loc.obj
 0001:0002d390       __crtEnumLocalesProc       000000018002e390 f   LIBCMTD:winapinls.obj
 0001:0002dcb0       flsall                     000000018002ecb0 f   LIBCMTD:fflush.obj
 0001:00030d54       $LN171                     0000000180031d54     LIBCMTD:output.obj
 0001:00030d74       $LN170                     0000000180031d74     LIBCMTD:output.obj
 0001:00030db0       $LN169                     0000000180031db0     LIBCMTD:output.obj
 0001:00030f30       write_char                 0000000180031f30 f   LIBCMTD:output.obj
 0001:00031010       write_multi_char           0000000180032010 f   LIBCMTD:output.obj
 0001:00031070       write_string               0000000180032070 f   LIBCMTD:output.obj
 0001:000311d0       _abstract_cw               00000001800321d0 f   LIBCMTD:ieee.obj
 0001:00031320       _abstract_sw               0000000180032320 f   LIBCMTD:ieee.obj
 0001:00031550       _hw_cw                     0000000180032550 f   LIBCMTD:ieee.obj
 0001:00031960       ?CatchIt@@YAXPEAUEHExceptionRecord@@PEA_KPEAU_CONTEXT@@PEAU_xDISPATCHER_CONTEXT@@PEBU_s_FuncInfo@@PEBU_s_HandlerType@@PEBU_s_CatchableType@@PEBU_s_TryBlockMapEntry@@H1EE@Z 0000000180032960 f   LIBCMTD:frame.obj
 0001:00031a40       ?ExFilterRethrow@@YAHPEAU_EXCEPTION_POINTERS@@PEAUEHExceptionRecord@@PEAH@Z 0000000180032a40 f   LIBCMTD:frame.obj
 0001:00031b50       ?FindHandler@@YAXPEAUEHExceptionRecord@@PEA_KPEAU_CONTEXT@@PEAU_xDISPATCHER_CONTEXT@@PEBU_s_FuncInfo@@EH1@Z 0000000180032b50 f   LIBCMTD:frame.obj
 0001:00032360       ?FindHandlerForForeignException@@YAXPEAUEHExceptionRecord@@PEA_KPEAU_CONTEXT@@PEAU_xDISPATCHER_CONTEXT@@PEBU_s_FuncInfo@@HH1@Z 0000000180033360 f   LIBCMTD:frame.obj
 0001:000326e0       ?IsInExceptionSpec@@YAEPEAUEHExceptionRecord@@PEBU_s_ESTypeList@@@Z 00000001800336e0 f   LIBCMTD:frame.obj
 0001:000327f0       ?Is_bad_exception_allowed@@YAEPEBU_s_ESTypeList@@@Z 00000001800337f0 f   LIBCMTD:frame.obj
 0001:000328b0       ?__RethrowException@@YAXPEAUEHExceptionRecord@@@Z 00000001800338b0 f   LIBCMTD:frame.obj
 0001:00035160       $$000000                   0000000180036160     LIBCMTD:memcmp.obj
 0001:000354c0       GetLocaleNameFromDefault   00000001800364c0 f   LIBCMTD:getqloc.obj
 0001:00035580       GetLocaleNameFromLangCountry 0000000180036580 f   LIBCMTD:getqloc.obj
 0001:00035680       GetLocaleNameFromLanguage  0000000180036680 f   LIBCMTD:getqloc.obj
 0001:00035720       GetPrimaryLen              0000000180036720 f   LIBCMTD:getqloc.obj
 0001:000357b0       LangCountryEnumProcEx      00000001800367b0 f   LIBCMTD:getqloc.obj
 0001:00035d70       LanguageEnumProcEx         0000000180036d70 f   LIBCMTD:getqloc.obj
 0001:00035ec0       ProcessCodePage            0000000180036ec0 f   LIBCMTD:getqloc.obj
 0001:00035f90       TestDefaultCountry         0000000180036f90 f   LIBCMTD:getqloc.obj
 0001:00036000       TestDefaultLanguage        0000000180037000 f   LIBCMTD:getqloc.obj
 0001:00036060       TranslateName              0000000180037060 f   LIBCMTD:getqloc.obj
 0001:000364a0       CountryEnumProc            00000001800374a0 f   LIBCMTD:getqloc_downlevel.obj
 0001:000365d0       GetLcidFromCountry         00000001800375d0 f   LIBCMTD:getqloc_downlevel.obj
 0001:00036650       GetLcidFromDefault         0000000180037650 f   LIBCMTD:getqloc_downlevel.obj
 0001:000366a0       GetLcidFromLangCountry     00000001800376a0 f   LIBCMTD:getqloc_downlevel.obj
 0001:000367b0       GetLcidFromLanguage        00000001800377b0 f   LIBCMTD:getqloc_downlevel.obj
 0001:00036860       GetPrimaryLen              0000000180037860 f   LIBCMTD:getqloc_downlevel.obj
 0001:000368e0       LangCountryEnumProc        00000001800378e0 f   LIBCMTD:getqloc_downlevel.obj
 0001:00036cf0       LanguageEnumProc           0000000180037cf0 f   LIBCMTD:getqloc_downlevel.obj
 0001:00036ea0       LcidFromHexString          0000000180037ea0 f   LIBCMTD:getqloc_downlevel.obj
 0001:00036f40       ProcessCodePage            0000000180037f40 f   LIBCMTD:getqloc_downlevel.obj
 0001:00037010       TestDefaultCountry         0000000180038010 f   LIBCMTD:getqloc_downlevel.obj
 0001:00037070       TestDefaultLanguage        0000000180038070 f   LIBCMTD:getqloc_downlevel.obj
 0001:00037110       TranslateName              0000000180038110 f   LIBCMTD:getqloc_downlevel.obj
 0001:0003a0fc       $LN160                     000000018003b0fc     LIBCMTD:woutput.obj
 0001:0003a11c       $LN159                     000000018003b11c     LIBCMTD:woutput.obj
 0001:0003a158       $LN158                     000000018003b158     LIBCMTD:woutput.obj
 0001:0003a190       write_char                 000000018003b190 f   LIBCMTD:woutput.obj
 0001:0003a210       write_multi_char           000000018003b210 f   LIBCMTD:woutput.obj
 0001:0003a270       write_string               000000018003b270 f   LIBCMTD:woutput.obj
 0001:0003ab30       x64toa_s                   000000018003bb30 f   LIBCMTD:xtoas.obj
 0001:0003b110       xtoa_s                     000000018003c110 f   LIBCMTD:xtoas.obj
 0001:0003c2b0       ?wcsncnt@@YA_KPEB_W_K@Z    000000018003d2b0 f   LIBCMTD:wcstombs.obj
 0001:0003d2d0       x64tow_s                   000000018003e2d0 f   LIBCMTD:xtows.obj
 0001:0003d8d0       xtow_s                     000000018003e8d0 f   LIBCMTD:xtows.obj
 0001:00044120       $LN427                     0000000180045120     LIBCMTD:outputp.obj
 0001:00044140       $LN426                     0000000180045140     LIBCMTD:outputp.obj
 0001:0004417c       $LN425                     000000018004517c     LIBCMTD:outputp.obj
 0001:000441b4       $LN424                     00000001800451b4     LIBCMTD:outputp.obj
 0001:000445c0       write_char                 00000001800455c0 f   LIBCMTD:outputp.obj
 0001:000446a0       write_multi_char           00000001800456a0 f   LIBCMTD:outputp.obj
 0001:00044700       write_string               0000000180045700 f   LIBCMTD:outputp.obj
 0001:00046108       $LN180                     0000000180047108     LIBCMTD:outputs.obj
 0001:00046128       $LN179                     0000000180047128     LIBCMTD:outputs.obj
 0001:00046164       $LN178                     0000000180047164     LIBCMTD:outputs.obj
 0001:000461a0       write_char                 00000001800471a0 f   LIBCMTD:outputs.obj
 0001:00046280       write_multi_char           0000000180047280 f   LIBCMTD:outputs.obj
 0001:000462e0       write_string               00000001800472e0 f   LIBCMTD:outputs.obj
 0001:00046e10       $$000000                   0000000180047e10     LIBCMTD:strcmp.obj
 0001:00046f20       $$000000                   0000000180047f20     LIBCMTD:handlers.obj
 0001:0004c990       $LN401                     000000018004d990     LIBCMTD:woutputp.obj
 0001:0004c9b0       $LN400                     000000018004d9b0     LIBCMTD:woutputp.obj
 0001:0004c9ec       $LN399                     000000018004d9ec     LIBCMTD:woutputp.obj
 0001:0004ca24       $LN398                     000000018004da24     LIBCMTD:woutputp.obj
 0001:0004ca40       write_char                 000000018004da40 f   LIBCMTD:woutputp.obj
 0001:0004cac0       write_multi_char           000000018004dac0 f   LIBCMTD:woutputp.obj
 0001:0004cb20       write_string               000000018004db20 f   LIBCMTD:woutputp.obj
 0001:0004e298       $LN169                     000000018004f298     LIBCMTD:woutputs.obj
 0001:0004e2b8       $LN168                     000000018004f2b8     LIBCMTD:woutputs.obj
 0001:0004e2f4       $LN167                     000000018004f2f4     LIBCMTD:woutputs.obj
 0001:0004e330       write_char                 000000018004f330 f   LIBCMTD:woutputs.obj
 0001:0004e3b0       write_multi_char           000000018004f3b0 f   LIBCMTD:woutputs.obj
 0001:0004e410       write_string               000000018004f410 f   LIBCMTD:woutputs.obj
 0001:0004fda0       ?strtoxl@@YAKPEAUlocaleinfo_struct@@PEBDPEAPEBDHH@Z 0000000180050da0 f   LIBCMTD:strtol.obj
 0001:00050f60       ?wcstoxl@@YAKPEB_WPEAPEB_WHH@Z 0000000180051f60 f   LIBCMTD:wcstol.obj
 0001:00051580       ?wcstoxq@@YA_KPEAUlocaleinfo_struct@@PEB_WPEAPEB_WHH@Z 0000000180052580 f   LIBCMTD:wcstoq.obj
 0001:00057ad4       $LN58                      0000000180058ad4     LIBCMTD:undname.obj
 0001:00057b00       $LN57                      0000000180058b00     LIBCMTD:undname.obj
 0001:00057b20       $LN56                      0000000180058b20     LIBCMTD:undname.obj
 0001:00057b54       $LN55                      0000000180058b54     LIBCMTD:undname.obj
 0001:00057bb0       $LN54                      0000000180058bb0     LIBCMTD:undname.obj
 0001:00057bc0       $LN53                      0000000180058bc0     LIBCMTD:undname.obj
 0001:00057da8       $LN18                      0000000180058da8     LIBCMTD:undname.obj
 0001:0005935c       $LN16                      000000018005a35c     LIBCMTD:undname.obj
 0001:0005937c       $LN15                      000000018005a37c     LIBCMTD:undname.obj
 0001:00059560       $LN16                      000000018005a560     LIBCMTD:undname.obj
 0001:0005aeb4       $LN63                      000000018005beb4     LIBCMTD:undname.obj
 0001:0005aed0       $LN62                      000000018005bed0     LIBCMTD:undname.obj
 0001:0005af30       $LN61                      000000018005bf30     LIBCMTD:undname.obj
 0001:0005af64       $LN60                      000000018005bf64     LIBCMTD:undname.obj
 0001:0005afc4       $LN59                      000000018005bfc4     LIBCMTD:undname.obj
 0001:0005b48c       $LN27                      000000018005c48c     LIBCMTD:undname.obj
 0001:0005b4b0       $LN26                      000000018005c4b0     LIBCMTD:undname.obj
 0001:0005c084       $LN40                      000000018005d084     LIBCMTD:undname.obj
 0001:0005c09c       $LN39                      000000018005d09c     LIBCMTD:undname.obj
 0001:0005d12c       $LN35                      000000018005e12c     LIBCMTD:undname.obj
 0001:0005d154       $LN34                      000000018005e154     LIBCMTD:undname.obj
 0001:0005dfec       $LN120                     000000018005efec     LIBCMTD:undname.obj
 0001:0005e014       $LN119                     000000018005f014     LIBCMTD:undname.obj
 0001:0005e068       $LN118                     000000018005f068     LIBCMTD:undname.obj
 0001:0005e07c       $LN117                     000000018005f07c     LIBCMTD:undname.obj
 0001:0005e0d0       $LN116                     000000018005f0d0     LIBCMTD:undname.obj
 0001:0005ece0       ?und_memcpy@@YAXPEADPEBDI@Z 000000018005fce0 f   LIBCMTD:undname.obj
 0001:0005ed30       ?und_strlen@@YAIPEBD@Z     000000018005fd30 f   LIBCMTD:undname.obj
 0001:0005ed70       ?und_strncmp@@YAIPEBD0I@Z  000000018005fd70 f   LIBCMTD:undname.obj
 0001:0005f9b0       ?strtoxq@@YA_KPEAUlocaleinfo_struct@@PEBDPEAPEBDHH@Z 00000001800609b0 f   LIBCMTD:strtoq.obj
 0001:000611e8       $LN140                     00000001800621e8     LIBCMTD:wstrgtold.obj
 0001:00061218       $LN139                     0000000180062218     LIBCMTD:wstrgtold.obj
 0001:00061228       $LN138                     0000000180062228     LIBCMTD:wstrgtold.obj
 0001:00061264       $LN137                     0000000180062264     LIBCMTD:wstrgtold.obj
 0001:00061270       $LN136                     0000000180062270     LIBCMTD:wstrgtold.obj
 0001:000612ac       $LN135                     00000001800622ac     LIBCMTD:wstrgtold.obj
 0001:000612b8       $LN134                     00000001800622b8     LIBCMTD:wstrgtold.obj
 0001:000619a0       _CRT_INIT$fin$0            00000001800629a0 f   LIBCMTD:dllcrt0.obj
 0001:000619d0       __DllMainCRTStartup$filt$0 00000001800629d0 f   LIBCMTD:dllcrt0.obj
 0001:00061a10       _freefls$fin$0             0000000180062a10 f   LIBCMTD:tidtable.obj
 0001:00061a2b       _freefls$fin$1             0000000180062a2b f   LIBCMTD:tidtable.obj
 0001:00061a50       _initptd$fin$0             0000000180062a50 f   LIBCMTD:tidtable.obj
 0001:00061a6b       _initptd$fin$1             0000000180062a6b f   LIBCMTD:tidtable.obj
 0001:00061a90       doexit$fin$0               0000000180062a90 f   LIBCMTD:crt0dat.obj
 0001:00061ab0       _ioinit$fin$0              0000000180062ab0 f   LIBCMTD:ioinit.obj
 0001:00061ad0       ?fin$0@?0??_CrtMemDumpAllObjectsSince_stat@@YAXPEBU_CrtMemState@@PEAUlocaleinfo_struct@@@Z@4HA 0000000180062ad0 f   LIBCMTD:dbgheap.obj
 0001:00061af0       ?filt$0@?0??__crtIsBadReadPtr@@YAHPEBX_K@Z@4HA 0000000180062af0 f   LIBCMTD:dbgheap.obj
 0001:00061b10       _CrtCheckMemory$fin$0      0000000180062b10 f   LIBCMTD:dbgheap.obj
 0001:00061b30       _CrtDoForAllClientObjects$fin$0 0000000180062b30 f   LIBCMTD:dbgheap.obj
 0001:00061b50       _CrtIsMemoryBlock$fin$0    0000000180062b50 f   LIBCMTD:dbgheap.obj
 0001:00061b70       _CrtMemCheckpoint$fin$0    0000000180062b70 f   LIBCMTD:dbgheap.obj
 0001:00061b90       _CrtSetDbgBlockType$fin$0  0000000180062b90 f   LIBCMTD:dbgheap.obj
 0001:00061bb0       _CrtSetDbgFlag$fin$0       0000000180062bb0 f   LIBCMTD:dbgheap.obj
 0001:00061bd0       _expand_dbg$fin$0          0000000180062bd0 f   LIBCMTD:dbgheap.obj
 0001:00061bf0       _free_dbg$fin$0            0000000180062bf0 f   LIBCMTD:dbgheap.obj
 0001:00061c10       _heap_alloc_dbg_impl$fin$0 0000000180062c10 f   LIBCMTD:dbgheap.obj
 0001:00061c30       _msize_dbg$fin$0           0000000180062c30 f   LIBCMTD:dbgheap.obj
 0001:00061c50       _realloc_dbg$fin$0         0000000180062c50 f   LIBCMTD:dbgheap.obj
 0001:00061c70       _mtinitlocknum$fin$0       0000000180062c70 f   LIBCMTD:mlock.obj
 0001:00061c90       __updatetlocinfo$fin$0     0000000180062c90 f   LIBCMTD:localref.obj
 0001:00061cb0       ?dtor$0@?0??getSystemCP@@YAHH@Z@4HA 0000000180062cb0 f   LIBCMTD:mbctype.obj
 0001:00061cd0       __updatetmbcinfo$fin$0     0000000180062cd0 f   LIBCMTD:mbctype.obj
 0001:00061cf0       _setmbcp$fin$0             0000000180062cf0 f   LIBCMTD:mbctype.obj
 0001:00061d10       _ctrlfp$filt$0             0000000180062d10 f   LIBCMTD:fpctrl.obj
 0001:00061d60       _CrtSetReportHookW2$fin$0  0000000180062d60 f   LIBCMTD:dbgrptw.obj
 0001:00061d80       _IsNonwritableInCurrentImage$filt$0 0000000180062d80 f   LIBCMTD:pesect.obj
 0001:00061dc0       _onexit$fin$0              0000000180062dc0 f   LIBCMTD:onexit.obj
 0001:00061de0       ?filt$0@?0??_inconsistency@@YAXXZ@4HA 0000000180062de0 f   LIBCMTD:hooks.obj
 0001:00061e00       ?filt$0@?0??terminate@@YAXXZ@4HA 0000000180062e00 f   LIBCMTD:hooks.obj
 0001:00061e20       ctrlevent_capture$fin$0    0000000180062e20 f   LIBCMTD:winsig.obj
 0001:00061e40       raise$fin$0                0000000180062e40 f   LIBCMTD:winsig.obj
 0001:00061e60       signal$fin$0               0000000180062e60 f   LIBCMTD:winsig.obj
 0001:00061e80       ?dtor$0@?0??x_ismbbtype_l@@YAHPEAUlocaleinfo_struct@@IHH@Z@4HA 0000000180062e80 f   LIBCMTD:ismbbyte.obj
 0001:00061ea0       _CrtSetReportHook2$fin$0   0000000180062ea0 f   LIBCMTD:dbgrpt.obj
 0001:00061ec0       _CallSETranslator$filt$0   0000000180062ec0 f   LIBCMTD:trnsctrl.obj
 0001:00061f20       _free_locale$fin$0         0000000180062f20 f   LIBCMTD:wsetloca.obj
 0001:00061f3b       _free_locale$fin$1         0000000180062f3b f   LIBCMTD:wsetloca.obj
 0001:00061f60       _get_current_locale$fin$0  0000000180062f60 f   LIBCMTD:wsetloca.obj
 0001:00061f7b       _get_current_locale$fin$1  0000000180062f7b f   LIBCMTD:wsetloca.obj
 0001:00061fa0       _locterm$fin$0             0000000180062fa0 f   LIBCMTD:wsetloca.obj
 0001:00061fc0       _wsetlocale$fin$0          0000000180062fc0 f   LIBCMTD:wsetloca.obj
 0001:00061fdb       _wsetlocale$fin$1          0000000180062fdb f   LIBCMTD:wsetloca.obj
 0001:00061ff6       _wsetlocale$fin$2          0000000180062ff6 f   LIBCMTD:wsetloca.obj
 0001:00062020       _VCrtDbgReportA$fin$0      0000000180063020 f   LIBCMTD:dbgrptt.obj
 0001:0006203b       _VCrtDbgReportA$fin$1      000000018006303b f   LIBCMTD:dbgrptt.obj
 0001:00062060       _VCrtDbgReportW$fin$0      0000000180063060 f   LIBCMTD:dbgrptt.obj
 0001:0006207b       _VCrtDbgReportW$fin$1      000000018006307b f   LIBCMTD:dbgrptt.obj
 0001:000620a0       fflush$fin$0               00000001800630a0 f   LIBCMTD:fflush.obj
 0001:000620c0       flsall$fin$0               00000001800630c0 f   LIBCMTD:fflush.obj
 0001:000620e8       flsall$fin$1               00000001800630e8 f   LIBCMTD:fflush.obj
 0001:00062110       _fcloseall$fin$0           0000000180063110 f   LIBCMTD:closeall.obj
 0001:00062130       _control87$filt$0          0000000180063130 f   LIBCMTD:ieee.obj
 0001:00062180       __BuildCatchObject$filt$0  0000000180063180 f   LIBCMTD:frame.obj
 0001:000621a0       __BuildCatchObjectHelper$filt$0 00000001800631a0 f   LIBCMTD:frame.obj
 0001:000621c0       __CxxCallCatchBlock$filt$0 00000001800631c0 f   LIBCMTD:frame.obj
 0001:000621e9       __CxxCallCatchBlock$fin$1  00000001800631e9 f   LIBCMTD:frame.obj
 0001:00062290       __CxxExceptionFilter$fin$0 0000000180063290 f   LIBCMTD:frame.obj
 0001:000622b0       __DestructExceptionObject$filt$0 00000001800632b0 f   LIBCMTD:frame.obj
 0001:000622e0       __FrameUnwindToState$filt$0 00000001800632e0 f   LIBCMTD:frame.obj
 0001:00062301       __FrameUnwindToState$fin$1 0000000180063301 f   LIBCMTD:frame.obj
 0001:00062340       _commit$fin$0              0000000180063340 f   LIBCMTD:commit.obj
 0001:00062360       _write$fin$0               0000000180063360 f   LIBCMTD:write.obj
 0001:00062380       fclose$fin$0               0000000180063380 f   LIBCMTD:fclose.obj
 0001:000623a0       _lseeki64$fin$0            00000001800633a0 f   LIBCMTD:lseeki64.obj
 0001:000623c0       printf$fin$0               00000001800633c0 f   LIBCMTD:printf.obj
 0001:000623f0       ?fin$0@?0???3@YAXPEAX@Z@4HA 00000001800633f0 f   LIBCMTD:dbgdel.obj
 0001:00062410       fputwc$fin$0               0000000180063410 f   LIBCMTD:fputwc.obj
 0001:00062430       __lock_fhandle$fin$0       0000000180063430 f   LIBCMTD:osfinfo.obj
 0001:00062450       _alloc_osfhnd$fin$0        0000000180063450 f   LIBCMTD:osfinfo.obj
 0001:0006246b       _alloc_osfhnd$fin$1        000000018006346b f   LIBCMTD:osfinfo.obj
 0001:00062490       _open_osfhandle$fin$0      0000000180063490 f   LIBCMTD:osfinfo.obj
 0001:00062500       _putwch$fin$0              0000000180063500 f   LIBCMTD:putwch.obj
 0001:00062520       _close$fin$0               0000000180063520 f   LIBCMTD:close.obj
 0001:00062540       ?dtor$0@?0??strtoxl@@YAKPEAUlocaleinfo_struct@@PEBDPEAPEBDHH@Z@4HA 0000000180063540 f   LIBCMTD:strtol.obj
 0001:00062560       vprintf_helper$fin$0       0000000180063560 f   LIBCMTD:vprintf.obj
 0001:00062580       ?fin$0@?0??_Name_base@type_info@@CAPEBDPEBV1@PEAU__type_info_node@@@Z@4HA 0000000180063580 f   LIBCMTD:typname.obj
 0001:000625a0       ?fin$0@?0??_Name_base_internal@type_info@@CAPEBDPEBV1@PEAU__type_info_node@@@Z@4HA 00000001800635a0 f   LIBCMTD:typname.obj
 0001:000625c0       ?fin$0@?0??_Type_info_dtor@type_info@@CAXPEAV1@@Z@4HA 00000001800635c0 f   LIBCMTD:typname.obj
 0001:000625e0       ?fin$0@?0??_Type_info_dtor_internal@type_info@@CAXPEAV1@@Z@4HA 00000001800635e0 f   LIBCMTD:typname.obj
 0001:00062600       __clean_type_info_names_internal$fin$0 0000000180063600 f   LIBCMTD:typname.obj
 0001:00062620       ?dtor$0@?0??wcstoxq@@YA_KPEAUlocaleinfo_struct@@PEB_WPEAPEB_WHH@Z@4HA 0000000180063620 f   LIBCMTD:wcstoq.obj
 0001:00062640       ?dtor$0@?0??make@DNameStatusNode@@SAPEAV1@W4DNameStatus@@@Z@4HA 0000000180063640 f   LIBCMTD:undname.obj
 0001:00062660       __unDName$fin$0            0000000180063660 f   LIBCMTD:undname.obj
 0001:00062680       __unDNameEx$fin$0          0000000180063680 f   LIBCMTD:undname.obj
 0001:000626a0       ?dtor$0@?0??strtoxq@@YA_KPEAUlocaleinfo_struct@@PEBDPEAPEBDHH@Z@4HA 00000001800636a0 f   LIBCMTD:strtoq.obj
 0002:000002d0       init_fma3                  00000001800642d0     LIBCMTD:fma3_available.obj
 0002:000002d8       pinit                      00000001800642d8     LIBCMTD:mbctype.obj
 0002:000002e0       pinit                      00000001800642e0     LIBCMTD:onexit.obj
 0002:000002e8       pinit                      00000001800642e8     LIBCMTD:_file.obj
 0002:000002f0       pinit                      00000001800642f0     LIBCMTD:cpu_disp.obj
 0002:00000308       pterm                      0000000180064308     LIBCMTD:wsetloca.obj
 0002:00000310       pterm                      0000000180064310     LIBCMTD:initcon.obj
 0002:00000318       pterm                      0000000180064318     LIBCMTD:_file.obj
 0002:00000378       $SG12303                   0000000180064378     handmade.obj
 0002:00000388       $SG12114                   0000000180064388     handmade.obj
 0002:000003a8       $SG12116                   00000001800643a8     handmade.obj
 0002:000003c8       $SG12118                   00000001800643c8     handmade.obj
 0002:000003e0       $SG12121                   00000001800643e0     handmade.obj
 0002:00000400       $SG12123                   0000000180064400     handmade.obj
 0002:00000428       $SG12125                   0000000180064428     handmade.obj
 0002:00000450       $SG12128                   0000000180064450     handmade.obj
 0002:00000470       $SG12130                   0000000180064470     handmade.obj
 0002:00000498       $SG12132                   0000000180064498     handmade.obj
 0002:000004c0       $SG12135                   00000001800644c0     handmade.obj
 0002:000004e0       $SG12137                   00000001800644e0     handmade.obj
 0002:00000508       $SG12139                   0000000180064508     handmade.obj
 0002:00000530       $SG12142                   0000000180064530     handmade.obj
 0002:00000550       $SG12144                   0000000180064550     handmade.obj
 0002:00000578       $SG12146                   0000000180064578     handmade.obj
 0002:00000640       L_signbit                  0000000180064640     LIBCMTD:sinf.obj
 0002:00000650       L_sign_mask                0000000180064650     LIBCMTD:sinf.obj
 0002:00000660       L_one                      0000000180064660     LIBCMTD:sinf.obj
 0002:00000670       L_int_three                0000000180064670     LIBCMTD:sinf.obj
 0002:00000680       L_one_half                 0000000180064680     LIBCMTD:sinf.obj
 0002:00000690       L_twobypi                  0000000180064690     LIBCMTD:sinf.obj
 0002:000006a0       L_piby2_1                  00000001800646a0     LIBCMTD:sinf.obj
 0002:000006b0       L_one_sixth                00000001800646b0     LIBCMTD:sinf.obj
 0002:000006c0       L_piby2_1tail              00000001800646c0     LIBCMTD:sinf.obj
 0002:000006d0       L_piby2_2                  00000001800646d0     LIBCMTD:sinf.obj
 0002:000006e0       L_piby2_2tail              00000001800646e0     LIBCMTD:sinf.obj
 0002:000006f0       L_inf_mask_32              00000001800646f0     LIBCMTD:sinf.obj
 0002:00000700       L_int_two                  0000000180064700     LIBCMTD:sinf.obj
 0002:00000710       L_piby2_lead               0000000180064710     LIBCMTD:sinf.obj
 0002:00000720       L_piby4                    0000000180064720     LIBCMTD:sinf.obj
 0002:00000730       L_mask_3f2                 0000000180064730     LIBCMTD:sinf.obj
 0002:00000740       L_mask_3f8                 0000000180064740     LIBCMTD:sinf.obj
 0002:00000750       L_large_x_fma3             0000000180064750     LIBCMTD:sinf.obj
 0002:00000758       L_large_x_sse2             0000000180064758     LIBCMTD:sinf.obj
 0002:000007b0       ?mask@?3??_d_int@@9@9      00000001800647b0     LIBCMTD:_test.obj
 0002:000007d0       ?sub@?3??_d_int@@9@9       00000001800647d0     LIBCMTD:_test.obj
 0002:000007f0       ?mask@?3??_fd_int@@9@9     00000001800647f0     LIBCMTD:_test.obj
 0002:00000810       ?sub@?3??_fd_int@@9@9      0000000180064810     LIBCMTD:_test.obj
 0002:00000850       GS_ExceptionPointers       0000000180064850     LIBCMTD:gs_report.obj
 0002:00000950       L__piby2                   0000000180064950     LIBCMTD:remainder_piby2f_forC.obj
 0002:00000960       L__2_by_pi_bits            0000000180064960     LIBCMTD:remainder_piby2f_forC.obj
 0002:000011b8       szBlockUseName             00000001800651b8     LIBCMTD:dbgheap.obj
 0002:00002e80       _mb_locale_names           0000000180066e80     LIBCMTD:mbctype.obj
 0002:00002ee0       $cppxdata$?getSystemCP@@YAHH@Z 0000000180066ee0     LIBCMTD:mbctype.obj
 0002:00003340       _CrtDbgModeMsg             0000000180067340     LIBCMTD:dbgrptw.obj
 0002:00003b30       rterrs                     0000000180067b30     LIBCMTD:crt0msg.obj
 0002:00004e00       $cppxdata$?x_ismbbtype_l@@YAHPEAUlocaleinfo_struct@@IHH@Z 0000000180068e00     LIBCMTD:ismbbyte.obj
 0002:00004f40       _CrtDbgModeMsg             0000000180068f40     LIBCMTD:dbgrpt.obj
 0002:00005cc0       ?ExceptionTemplate@?1??_UnwindNestedFrames@@9@4U_EXCEPTION_RECORD@@B 0000000180069cc0     LIBCMTD:trnsctrl.obj
 0002:00005d60       __real@433fffffffffffff    0000000180069d60     LIBCMTD:fpsr.obj
 0002:00005d68       __real@c33fffffffffffff    0000000180069d68     LIBCMTD:fpsr.obj
 0002:00005e80       _first_127char             0000000180069e80     LIBCMTD:wsetloca.obj
 0002:0000ec90       ?ExceptionTemplate@?1??_CxxThrowException@@9@4UEHExceptionRecord@@B 0000000180072c90     LIBCMTD:throw.obj
 0002:0000f198       $cppxdata$?strtoxl@@YAKPEAUlocaleinfo_struct@@PEBDPEAPEBDHH@Z 0000000180073198     LIBCMTD:strtol.obj
 0002:0000f598       $cppxdata$?wcstoxq@@YA_KPEAUlocaleinfo_struct@@PEB_WPEAPEB_WHH@Z 0000000180073598     LIBCMTD:wcstoq.obj
 0002:0000f670       tokenTable                 0000000180073670     LIBCMTD:undname.obj
 0002:0000f6e0       nameTable                  00000001800736e0     LIBCMTD:undname.obj
 0002:0000f960       rttiTable                  0000000180073960     LIBCMTD:undname.obj
 0002:0000ffd0       $cppxdata$?make@DNameStatusNode@@SAPEAV1@W4DNameStatus@@@Z 0000000180073fd0     LIBCMTD:undname.obj
 0002:000104f0       $cppxdata$?strtoxq@@YA_KPEAUlocaleinfo_struct@@PEBDPEAPEBDHH@Z 00000001800744f0     LIBCMTD:strtoq.obj
 0002:00010d10       $unwind$GetController      0000000180074d10     handmade.obj
 0002:00010d18       $unwind$?PushSize_@@YAPEAXPEAUmemory_arena@@_K@Z 0000000180074d18     handmade.obj
 0002:00010d20       $unwind$?InitializeWorld@@YAXPEAUworld@@M@Z 0000000180074d20     handmade.obj
 0002:00010d28       $unwind$?GameOutputSound@@YAXPEAUgame_state@@PEAUgame_sound_output_buffer@@H@Z 0000000180074d28     handmade.obj
 0002:00010d30       $unwind$?DrawRectangle@@YAXPEAUgame_offscreen_buffer@@Tv2@@1MMM@Z 0000000180074d30     handmade.obj
 0002:00010d38       $unwind$?DrawBitmap@@YAXPEAUgame_offscreen_buffer@@PEAUloaded_bitmap@@MMM@Z 0000000180074d38     handmade.obj
 0002:00010d40       $unwind$?DEBUGLoadBMP@@YA?AUloaded_bitmap@@PEAUthread_context@@P6A?AUdebug_read_file_result@@0PEAD@Z1@Z 0000000180074d40     handmade.obj
 0002:00010d4c       $unwind$?AddLowEntity@@YA?AUadd_low_entity_result@@PEAUgame_state@@W4entity_type@@PEAUworld_position@@@Z 0000000180074d4c     handmade.obj
 0002:00010d60       $unwind$?AddWall@@YA?AUadd_low_entity_result@@PEAUgame_state@@III@Z 0000000180074d60     handmade.obj
 0002:00010d74       $unwind$?AddPlayer@@YA?AUadd_low_entity_result@@PEAUgame_state@@@Z 0000000180074d74     handmade.obj
 0002:00010d88       $unwind$?AddMonstar@@YA?AUadd_low_entity_result@@PEAUgame_state@@III@Z 0000000180074d88     handmade.obj
 0002:00010d9c       $unwind$?AddFamiliar@@YA?AUadd_low_entity_result@@PEAUgame_state@@III@Z 0000000180074d9c     handmade.obj
 0002:00010db0       $unwind$?TestWall@@YAHMMMMMPEAMMM@Z 0000000180074db0     handmade.obj
 0002:00010db8       $unwind$?MoveEntity@@YAXPEAUgame_state@@Uentity@@MTv2@@@Z 0000000180074db8     handmade.obj
 0002:00010dcc       $unwind$?SetCamera@@YAXPEAUgame_state@@Uworld_position@@@Z 0000000180074dcc     handmade.obj
 0002:00010de0       $unwind$?PushPiece@@YAXPEAUentity_visible_piece_group@@PEAUloaded_bitmap@@Tv2@@M2MM@Z 0000000180074de0     handmade.obj
 0002:00010df0       $unwind$GameUpdateAndRender 0000000180074df0     handmade.obj
 0002:00010e04       $unwind$GameGetSoundSamples 0000000180074e04     handmade.obj
 0002:00010e0c       $unwind$?V2@@YA?ATv2@@MM@Z 0000000180074e0c     handmade.obj
 0002:00010e1c       $unwind$??D@YA?ATv2@@MT0@@Z 0000000180074e1c     handmade.obj
 0002:00010e2c       $unwind$??D@YA?ATv2@@T0@M@Z 0000000180074e2c     handmade.obj
 0002:00010e3c       $unwind$??X@YAAEATv2@@AEAT0@M@Z 0000000180074e3c     handmade.obj
 0002:00010e4c       $unwind$??G@YA?ATv2@@T0@@Z 0000000180074e4c     handmade.obj
 0002:00010e5c       $unwind$??H@YA?ATv2@@T0@0@Z 0000000180074e5c     handmade.obj
 0002:00010e6c       $unwind$??Y@YAAEATv2@@AEAT0@T0@@Z 0000000180074e6c     handmade.obj
 0002:00010e7c       $unwind$??G@YA?ATv2@@T0@0@Z 0000000180074e7c     handmade.obj
 0002:00010e8c       $unwind$?Square@@YAMM@Z    0000000180074e8c     handmade.obj
 0002:00010e94       $unwind$?Inner@@YAMTv2@@0@Z 0000000180074e94     handmade.obj
 0002:00010e9c       $unwind$?LengthSq@@YAMTv2@@@Z 0000000180074e9c     handmade.obj
 0002:00010ea4       $unwind$?GetMinCorner@@YA?ATv2@@Urectangle2@@@Z 0000000180074ea4     handmade.obj
 0002:00010eb4       $unwind$?GetMaxCorner@@YA?ATv2@@Urectangle2@@@Z 0000000180074eb4     handmade.obj
 0002:00010ec4       $unwind$?RectCenterHalfDim@@YA?AUrectangle2@@Tv2@@0@Z 0000000180074ec4     handmade.obj
 0002:00010ed8       $unwind$?RectCenterDim@@YA?AUrectangle2@@Tv2@@0@Z 0000000180074ed8     handmade.obj
 0002:00010eec       $unwind$?IsInRectangle@@YAHUrectangle2@@Tv2@@@Z 0000000180074eec     handmade.obj
 0002:00010ef4       $unwind$?fabs@@YAMM@Z      0000000180074ef4     handmade.obj
 0002:00010efc       $unwind$?SquareRoot@@YAMM@Z 0000000180074efc     handmade.obj
 0002:00010f04       $unwind$?AbsoluteValue@@YAMM@Z 0000000180074f04     handmade.obj
 0002:00010f0c       $unwind$?RotateLeft@@YAIIH@Z 0000000180074f0c     handmade.obj
 0002:00010f14       $unwind$?RoundReal32ToInt32@@YAIM@Z 0000000180074f14     handmade.obj
 0002:00010f1c       $unwind$?RoundReal32ToUInt32@@YAIM@Z 0000000180074f1c     handmade.obj
 0002:00010f24       $unwind$?Sin@@YAMM@Z       0000000180074f24     handmade.obj
 0002:00010f2c       $unwind$?FindLeastSignificantSetBit@@YA?AUbit_scan_result@@I@Z 0000000180074f2c     handmade.obj
 0002:00010f34       $unwind$?IsCanonical@@YAHPEAUworld@@M@Z 0000000180074f34     handmade.obj
 0002:00010f3c       $unwind$?IsCanonical@@YAHPEAUworld@@Tv2@@@Z 0000000180074f3c     handmade.obj
 0002:00010f44       $unwind$?AreInSameChunk@@YAHPEAUworld@@PEAUworld_position@@1@Z 0000000180074f44     handmade.obj
 0002:00010f4c       $unwind$?GetWorldChunk@@YAPEAUworld_chunk@@PEAUworld@@HHHPEAUmemory_arena@@@Z 0000000180074f4c     handmade.obj
 0002:00010f54       $unwind$?RecanonicalizeCoord@@YAXPEAUworld@@PEAHPEAM@Z 0000000180074f54     handmade.obj
 0002:00010f5c       $unwind$?MapIntoChunkSpace@@YA?AUworld_position@@PEAUworld@@U1@Tv2@@@Z 0000000180074f5c     handmade.obj
 0002:00010f70       $unwind$?ChunkPositionFromTilePosition@@YA?AUworld_position@@PEAUworld@@HHH@Z 0000000180074f70     handmade.obj
 0002:00010f84       $unwind$?Subtract@@YA?AUworld_difference@@PEAUworld@@PEAUworld_position@@1@Z 0000000180074f84     handmade.obj
 0002:00010f98       $unwind$?ChangeEntityLocation@@YAXPEAUmemory_arena@@PEAUworld@@IPEAUworld_position@@2@Z 0000000180074f98     handmade.obj
 0002:00010fa4       $unwind$?GetCameraSpaceP@@YA?ATv2@@PEAUgame_state@@PEAUlow_entity@@@Z 0000000180074fa4     handmade.obj
 0002:00010fb8       $unwind$?MakeEntityHighFrequency@@YAPEAUhigh_entity@@PEAUgame_state@@PEAUlow_entity@@ITv2@@@Z 0000000180074fb8     handmade.obj
 0002:00010fc8       $unwind$?MakeEntityHighFrequency@@YAPEAUhigh_entity@@PEAUgame_state@@I@Z 0000000180074fc8     handmade.obj
 0002:00010fd8       $unwind$?ForceEntityIntoHigh@@YA?AUentity@@PEAUgame_state@@I@Z 0000000180074fd8     handmade.obj
 0002:00010fe4       $unwind$?MakeEntityLowFrequency@@YAXPEAUgame_state@@I@Z 0000000180074fe4     handmade.obj
 0002:00010ff0       $unwind$?ValidateEntityPairs@@YAHPEAUgame_state@@@Z 0000000180074ff0     handmade.obj
 0002:00010ff8       $unwind$?OffsetAndCheckFrequencyByArea@@YAXPEAUgame_state@@Tv2@@Urectangle2@@@Z 0000000180074ff8     handmade.obj
 0002:00011004       $unwind$?EntityFromHighIndex@@YA?AUentity@@PEAUgame_state@@I@Z 0000000180075004     handmade.obj
 0002:00011010       $unwind$?UpdateFamiliar@@YAXPEAUgame_state@@Uentity@@M@Z 0000000180075010     handmade.obj
 0002:00011024       $unwind$roundf             0000000180075024     LIBCMTD:roundf.obj
 0002:0001102c       $unwind$rand               000000018007502c     LIBCMTD:rand.obj
 0002:00011034       $unwind$srand              0000000180075034     LIBCMTD:rand.obj
 0002:0001103c       $unwind$__GSHandlerCheckCommon 000000018007503c     LIBCMTD:gshandler.obj
 0002:00011044       $unwind$__GSHandlerCheck   0000000180075044     LIBCMTD:gshandler.obj
 0002:00011050       $xdatasym                  0000000180075050     LIBCMTD:amdsecgs.obj
 0002:00011058       $xdatasym                  0000000180075058     LIBCMTD:sinf.obj
 0002:00011060       $unwind$sqrtf              0000000180075060     LIBCMTD:sqrtf.obj
 0002:00011068       $unwind$_fpmath            0000000180075068     LIBCMTD:fpinit.obj
 0002:00011070       $unwind$__setfflag         0000000180075070     LIBCMTD:fpinit.obj
 0002:00011078       $unwind$_CRT_INIT          0000000180075078     LIBCMTD:dllcrt0.obj
 0002:00011098       $unwind$_CRT_INIT$fin$0    0000000180075098     LIBCMTD:dllcrt0.obj
 0002:000110a0       $unwind$__DllXcptFilter    00000001800750a0     LIBCMTD:dllcrt0.obj
 0002:000110a8       $unwind$__DllMainCRTStartup 00000001800750a8     LIBCMTD:dllcrt0.obj
 0002:000110c8       $unwind$__DllMainCRTStartup$filt$0 00000001800750c8     LIBCMTD:dllcrt0.obj
 0002:000110d0       $unwind$_DllMainCRTStartup 00000001800750d0     LIBCMTD:dllcrt0.obj
 0002:000110d8       $unwind$_fperrraise        00000001800750d8     LIBCMTD:_test.obj
 0002:000110e0       $unwind$_dtest             00000001800750e0     LIBCMTD:_test.obj
 0002:000110e8       $unwind$_ldtest            00000001800750e8     LIBCMTD:_test.obj
 0002:000110f0       $unwind$_fdtest            00000001800750f0     LIBCMTD:_test.obj
 0002:000110f8       $unwind$_d_int             00000001800750f8     LIBCMTD:_test.obj
 0002:00011100       $unwind$_ld_int            0000000180075100     LIBCMTD:_test.obj
 0002:00011108       $unwind$_fd_int            0000000180075108     LIBCMTD:_test.obj
 0002:00011110       $unwind$__threadid         0000000180075110     LIBCMTD:tidtable.obj
 0002:00011118       $unwind$__threadhandle     0000000180075118     LIBCMTD:tidtable.obj
 0002:00011120       $unwind$_getptd            0000000180075120     LIBCMTD:tidtable.obj
 0002:00011128       $unwind$_getptd_noexit     0000000180075128     LIBCMTD:tidtable.obj
 0002:00011130       $unwind$_freefls           0000000180075130     LIBCMTD:tidtable.obj
 0002:00011160       $unwind$_freefls$fin$0     0000000180075160     LIBCMTD:tidtable.obj
 0002:00011168       $unwind$_freefls$fin$1     0000000180075168     LIBCMTD:tidtable.obj
 0002:00011170       $unwind$_freeptd           0000000180075170     LIBCMTD:tidtable.obj
 0002:00011178       $unwind$_initptd           0000000180075178     LIBCMTD:tidtable.obj
 0002:000111a8       $unwind$_initptd$fin$0     00000001800751a8     LIBCMTD:tidtable.obj
 0002:000111b0       $unwind$_initptd$fin$1     00000001800751b0     LIBCMTD:tidtable.obj
 0002:000111b8       $unwind$_mtinit            00000001800751b8     LIBCMTD:tidtable.obj
 0002:000111c0       $unwind$_mtterm            00000001800751c0     LIBCMTD:tidtable.obj
 0002:000111c8       $unwind$__report_securityfailure 00000001800751c8     LIBCMTD:gs_report.obj
 0002:000111d0       $unwind$__report_securityfailureEx 00000001800751d0     LIBCMTD:gs_report.obj
 0002:000111d8       $unwind$__report_rangecheckfailure 00000001800751d8     LIBCMTD:gs_report.obj
 0002:000111e0       $unwind$__raise_securityfailure 00000001800751e0     LIBCMTD:gs_report.obj
 0002:000111e8       $unwind$__report_gsfailure 00000001800751e8     LIBCMTD:gs_report.obj
 0002:000111f0       $unwind$__fma3_lib_init    00000001800751f0     LIBCMTD:fma3_available.obj
 0002:00011200       $xdatasym                  0000000180075200     LIBCMTD:remainder_piby2f_forC.obj
 0002:00011210       $unwind$_sincos_special    0000000180075210     LIBCMTD:sincos_special.obj
 0002:00011220       $unwind$_sincosf_special   0000000180075220     LIBCMTD:sincos_special.obj
 0002:00011230       $unwind$_sinf_special      0000000180075230     LIBCMTD:sincos_special.obj
 0002:00011238       $unwind$_sin_special       0000000180075238     LIBCMTD:sincos_special.obj
 0002:00011240       $unwind$_cosf_special      0000000180075240     LIBCMTD:sincos_special.obj
 0002:00011248       $unwind$_cos_special       0000000180075248     LIBCMTD:sincos_special.obj
 0002:00011250       $unwind$_tan_special       0000000180075250     LIBCMTD:sincos_special.obj
 0002:00011258       $unwind$_tanf_special      0000000180075258     LIBCMTD:sincos_special.obj
 0002:00011260       $unwind$_call_matherr      0000000180075260     LIBCMTD:libm_error.obj
 0002:00011268       $unwind$_exception_enabled 0000000180075268     LIBCMTD:libm_error.obj
 0002:00011270       $unwind$_handle_errorf     0000000180075270     LIBCMTD:libm_error.obj
 0002:00011280       $unwind$_handle_error      0000000180075280     LIBCMTD:libm_error.obj
 0002:00011290       $unwind$?strrchr@@YAPEADPEADH@Z 0000000180075290     LIBCMTD:cvt.obj
 0002:00011298       $unwind$_cftoe             0000000180075298     LIBCMTD:cvt.obj
 0002:000112a0       $unwind$_cftoa             00000001800752a0     LIBCMTD:cvt.obj
 0002:000112a8       $unwind$_cftof             00000001800752a8     LIBCMTD:cvt.obj
 0002:000112b0       $unwind$_cfltcvt           00000001800752b0     LIBCMTD:cvt.obj
 0002:000112b8       $unwind$_cfltcvt_l         00000001800752b8     LIBCMTD:cvt.obj
 0002:000112c0       $unwind$_cropzeros         00000001800752c0     LIBCMTD:cvt.obj
 0002:000112c8       $unwind$_cropzeros_l       00000001800752c8     LIBCMTD:cvt.obj
 0002:000112d0       $unwind$_fassign           00000001800752d0     LIBCMTD:cvt.obj
 0002:000112d8       $unwind$_fassign_l         00000001800752d8     LIBCMTD:cvt.obj
 0002:000112e0       $unwind$_forcdecpt         00000001800752e0     LIBCMTD:cvt.obj
 0002:000112e8       $unwind$_forcdecpt_l       00000001800752e8     LIBCMTD:cvt.obj
 0002:000112f0       $unwind$_positive          00000001800752f0     LIBCMTD:cvt.obj
 0002:000112f8       $unwind$??0_LocaleUpdate@@QEAA@PEAUlocaleinfo_struct@@@Z 00000001800752f8     LIBCMTD:cvt.obj
 0002:00011304       $unwind$_invoke_watson_if_error 0000000180075304     LIBCMTD:cvt.obj
 0002:0001130c       $unwind$_shift             000000018007530c     LIBCMTD:cvt.obj
 0002:00011314       $unwind$_cftoe2_l          0000000180075314     LIBCMTD:cvt.obj
 0002:0001131c       $unwind$_cftoe_l           000000018007531c     LIBCMTD:cvt.obj
 0002:0001132c       $unwind$_cftoa_l           000000018007532c     LIBCMTD:cvt.obj
 0002:00011334       $unwind$_cftof2_l          0000000180075334     LIBCMTD:cvt.obj
 0002:0001133c       $unwind$_cftof_l           000000018007533c     LIBCMTD:cvt.obj
 0002:0001134c       $unwind$_cftog_l           000000018007534c     LIBCMTD:cvt.obj
 0002:0001135c       $unwind$_cftog             000000018007535c     LIBCMTD:cvt.obj
 0002:00011364       $unwind$_initp_misc_cfltcvt_tab 0000000180075364     LIBCMTD:cmiscdat.obj
 0002:0001136c       $unwind$__CppXcptFilter    000000018007536c     LIBCMTD:winxfltr.obj
 0002:00011374       $unwind$_XcptFilter        0000000180075374     LIBCMTD:winxfltr.obj
 0002:0001137c       $unwind$xcptlookup         000000018007537c     LIBCMTD:winxfltr.obj
 0002:00011384       $unwind$_lockexit          0000000180075384     LIBCMTD:crt0dat.obj
 0002:0001138c       $unwind$_unlockexit        000000018007538c     LIBCMTD:crt0dat.obj
 0002:00011394       $unwind$_amsg_exit         0000000180075394     LIBCMTD:crt0dat.obj
 0002:0001139c       $unwind$__crtExitProcess   000000018007539c     LIBCMTD:crt0dat.obj
 0002:000113a4       $unwind$__crtCorExitProcess 00000001800753a4     LIBCMTD:crt0dat.obj
 0002:000113ac       $unwind$_cinit             00000001800753ac     LIBCMTD:crt0dat.obj
 0002:000113b4       $unwind$__freeCrtMemory    00000001800753b4     LIBCMTD:crt0dat.obj
 0002:000113bc       $unwind$_init_pointers     00000001800753bc     LIBCMTD:crt0dat.obj
 0002:000113c4       $unwind$__copy_path_to_wide_string 00000001800753c4     LIBCMTD:crt0dat.obj
 0002:000113cc       $unwind$__copy_to_char     00000001800753cc     LIBCMTD:crt0dat.obj
 0002:000113d4       $unwind$_get_pgmptr        00000001800753d4     LIBCMTD:crt0dat.obj
 0002:000113dc       $unwind$_get_wpgmptr       00000001800753dc     LIBCMTD:crt0dat.obj
 0002:000113e4       $unwind$exit               00000001800753e4     LIBCMTD:crt0dat.obj
 0002:000113ec       $unwind$_exit              00000001800753ec     LIBCMTD:crt0dat.obj
 0002:000113f4       $unwind$_cexit             00000001800753f4     LIBCMTD:crt0dat.obj
 0002:000113fc       $unwind$_c_exit            00000001800753fc     LIBCMTD:crt0dat.obj
 0002:00011404       $unwind$_initterm          0000000180075404     LIBCMTD:crt0dat.obj
 0002:0001140c       $unwind$_initterm_e        000000018007540c     LIBCMTD:crt0dat.obj
 0002:00011414       $unwind$doexit             0000000180075414     LIBCMTD:crt0dat.obj
 0002:00011434       $unwind$doexit$fin$0       0000000180075434     LIBCMTD:crt0dat.obj
 0002:0001143c       $unwind$_exit_app          000000018007543c     LIBCMTD:crt0dat.obj
 0002:00011444       $unwind$_get_heap_handle   0000000180075444     LIBCMTD:heapinit.obj
 0002:0001144c       $unwind$_heap_init         000000018007544c     LIBCMTD:heapinit.obj
 0002:00011454       $unwind$_ioinit            0000000180075454     LIBCMTD:ioinit.obj
 0002:00011474       $unwind$_ioinit$fin$0      0000000180075474     LIBCMTD:ioinit.obj
 0002:0001147c       $unwind$_ioterm            000000018007547c     LIBCMTD:ioinit.obj
 0002:00011484       $unwind$_setargv           0000000180075484     LIBCMTD:stdargv.obj
 0002:0001148c       $unwind$parse_cmdline      000000018007548c     LIBCMTD:stdargv.obj
 0002:00011494       $unwind$_setenvp           0000000180075494     LIBCMTD:stdenvp.obj
 0002:0001149c       $unwind$_nh_malloc         000000018007549c     LIBCMTD:dbgheap.obj
 0002:000114a4       $unwind$_heap_alloc        00000001800754a4     LIBCMTD:dbgheap.obj
 0002:000114ac       $unwind$_CrtSetDebugFillThreshold 00000001800754ac     LIBCMTD:dbgheap.obj
 0002:000114b4       $unwind$_CrtSetBreakAlloc  00000001800754b4     LIBCMTD:dbgheap.obj
 0002:000114bc       $unwind$_malloc_dbg        00000001800754bc     LIBCMTD:dbgheap.obj
 0002:000114c4       $unwind$_calloc_dbg        00000001800754c4     LIBCMTD:dbgheap.obj
 0002:000114cc       $unwind$_realloc_dbg       00000001800754cc     LIBCMTD:dbgheap.obj
 0002:000114ec       $unwind$_realloc_dbg$fin$0 00000001800754ec     LIBCMTD:dbgheap.obj
 0002:000114f4       $unwind$_recalloc_dbg      00000001800754f4     LIBCMTD:dbgheap.obj
 0002:000114fc       $unwind$_expand_dbg        00000001800754fc     LIBCMTD:dbgheap.obj
 0002:0001151c       $unwind$_expand_dbg$fin$0  000000018007551c     LIBCMTD:dbgheap.obj
 0002:00011524       $unwind$_free_dbg          0000000180075524     LIBCMTD:dbgheap.obj
 0002:00011544       $unwind$_free_dbg$fin$0    0000000180075544     LIBCMTD:dbgheap.obj
 0002:0001154c       $unwind$_msize_dbg         000000018007554c     LIBCMTD:dbgheap.obj
 0002:0001156c       $unwind$_msize_dbg$fin$0   000000018007556c     LIBCMTD:dbgheap.obj
 0002:00011574       $unwind$_aligned_msize_dbg 0000000180075574     LIBCMTD:dbgheap.obj
 0002:0001157c       $unwind$_aligned_malloc_dbg 000000018007557c     LIBCMTD:dbgheap.obj
 0002:00011584       $unwind$_aligned_realloc_dbg 0000000180075584     LIBCMTD:dbgheap.obj
 0002:0001158c       $unwind$_aligned_recalloc_dbg 000000018007558c     LIBCMTD:dbgheap.obj
 0002:00011594       $unwind$_aligned_offset_malloc_dbg 0000000180075594     LIBCMTD:dbgheap.obj
 0002:0001159c       $unwind$_aligned_offset_realloc_dbg 000000018007559c     LIBCMTD:dbgheap.obj
 0002:000115a4       $unwind$_aligned_offset_recalloc_dbg 00000001800755a4     LIBCMTD:dbgheap.obj
 0002:000115ac       $unwind$_aligned_free_dbg  00000001800755ac     LIBCMTD:dbgheap.obj
 0002:000115b4       $unwind$_CrtSetAllocHook   00000001800755b4     LIBCMTD:dbgheap.obj
 0002:000115bc       $unwind$_CrtCheckMemory    00000001800755bc     LIBCMTD:dbgheap.obj
 0002:000115dc       $unwind$_CrtCheckMemory$fin$0 00000001800755dc     LIBCMTD:dbgheap.obj
 0002:000115e4       $unwind$_CrtSetDbgFlag     00000001800755e4     LIBCMTD:dbgheap.obj
 0002:00011604       $unwind$_CrtSetDbgFlag$fin$0 0000000180075604     LIBCMTD:dbgheap.obj
 0002:0001160c       $unwind$_CrtDoForAllClientObjects 000000018007560c     LIBCMTD:dbgheap.obj
 0002:0001162c       $unwind$_CrtDoForAllClientObjects$fin$0 000000018007562c     LIBCMTD:dbgheap.obj
 0002:00011634       $unwind$_CrtIsValidPointer 0000000180075634     LIBCMTD:dbgheap.obj
 0002:0001163c       $unwind$_CrtIsValidHeapPointer 000000018007563c     LIBCMTD:dbgheap.obj
 0002:00011644       $unwind$_CrtIsMemoryBlock  0000000180075644     LIBCMTD:dbgheap.obj
 0002:00011664       $unwind$_CrtIsMemoryBlock$fin$0 0000000180075664     LIBCMTD:dbgheap.obj
 0002:0001166c       $unwind$_CrtReportBlockType 000000018007566c     LIBCMTD:dbgheap.obj
 0002:00011674       $unwind$_CrtSetDumpClient  0000000180075674     LIBCMTD:dbgheap.obj
 0002:0001167c       $unwind$_CrtMemCheckpoint  000000018007567c     LIBCMTD:dbgheap.obj
 0002:0001169c       $unwind$_CrtMemCheckpoint$fin$0 000000018007569c     LIBCMTD:dbgheap.obj
 0002:000116a4       $unwind$_CrtMemDifference  00000001800756a4     LIBCMTD:dbgheap.obj
 0002:000116ac       $unwind$_CrtMemDumpAllObjectsSince 00000001800756ac     LIBCMTD:dbgheap.obj
 0002:000116b4       $unwind$_CrtMemDumpStatistics 00000001800756b4     LIBCMTD:dbgheap.obj
 0002:000116bc       $unwind$_CrtDumpMemoryLeaks 00000001800756bc     LIBCMTD:dbgheap.obj
 0002:000116cc       $unwind$_CrtSetCheckCount  00000001800756cc     LIBCMTD:dbgheap.obj
 0002:000116d4       $unwind$_nh_malloc_dbg     00000001800756d4     LIBCMTD:dbgheap.obj
 0002:000116dc       $unwind$_heap_alloc_dbg    00000001800756dc     LIBCMTD:dbgheap.obj
 0002:000116e4       $unwind$_free_dbg_nolock   00000001800756e4     LIBCMTD:dbgheap.obj
 0002:000116ec       $unwind$_CrtSetDbgBlockType 00000001800756ec     LIBCMTD:dbgheap.obj
 0002:0001170c       $unwind$_CrtSetDbgBlockType$fin$0 000000018007570c     LIBCMTD:dbgheap.obj
 0002:00011714       $unwind$_invoke_watson_if_oneof 0000000180075714     LIBCMTD:dbgheap.obj
 0002:0001171c       $unwind$_recalloc          000000018007571c     LIBCMTD:dbgheap.obj
 0002:00011724       $unwind$_aligned_free      0000000180075724     LIBCMTD:dbgheap.obj
 0002:0001172c       $unwind$_aligned_malloc    000000018007572c     LIBCMTD:dbgheap.obj
 0002:00011734       $unwind$_aligned_offset_malloc 0000000180075734     LIBCMTD:dbgheap.obj
 0002:0001173c       $unwind$_aligned_realloc   000000018007573c     LIBCMTD:dbgheap.obj
 0002:00011744       $unwind$_aligned_recalloc  0000000180075744     LIBCMTD:dbgheap.obj
 0002:0001174c       $unwind$_aligned_offset_realloc 000000018007574c     LIBCMTD:dbgheap.obj
 0002:00011754       $unwind$_aligned_offset_recalloc 0000000180075754     LIBCMTD:dbgheap.obj
 0002:0001175c       $unwind$_aligned_msize     000000018007575c     LIBCMTD:dbgheap.obj
 0002:00011764       $unwind$_expand            0000000180075764     LIBCMTD:dbgheap.obj
 0002:0001176c       $unwind$_msize             000000018007576c     LIBCMTD:dbgheap.obj
 0002:00011774       $unwind$_heap_alloc_dbg_impl 0000000180075774     LIBCMTD:dbgheap.obj
 0002:00011794       $unwind$_heap_alloc_dbg_impl$fin$0 0000000180075794     LIBCMTD:dbgheap.obj
 0002:0001179c       $unwind$CheckBytes         000000018007579c     LIBCMTD:dbgheap.obj
 0002:000117a4       $unwind$_nh_malloc_dbg_impl 00000001800757a4     LIBCMTD:dbgheap.obj
 0002:000117ac       $unwind$_calloc_dbg_impl   00000001800757ac     LIBCMTD:dbgheap.obj
 0002:000117b4       $unwind$realloc_help       00000001800757b4     LIBCMTD:dbgheap.obj
 0002:000117bc       $unwind$_free_nolock       00000001800757bc     LIBCMTD:dbgheap.obj
 0002:000117c4       $unwind$_printMemBlockData 00000001800757c4     LIBCMTD:dbgheap.obj
 0002:000117d4       $unwind$?__crtIsBadReadPtr@@YAHPEBX_K@Z 00000001800757d4     LIBCMTD:dbgheap.obj
 0002:000117f4       $unwind$?filt$0@?0??__crtIsBadReadPtr@@YAHPEBX_K@Z@4HA 00000001800757f4     LIBCMTD:dbgheap.obj
 0002:000117fc       $unwind$?_CrtMemDumpAllObjectsSince_stat@@YAXPEBU_CrtMemState@@PEAUlocaleinfo_struct@@@Z 00000001800757fc     LIBCMTD:dbgheap.obj
 0002:0001181c       $unwind$?fin$0@?0??_CrtMemDumpAllObjectsSince_stat@@YAXPEBU_CrtMemState@@PEAUlocaleinfo_struct@@@Z@4HA 000000018007581c     LIBCMTD:dbgheap.obj
 0002:00011824       $unwind$__security_init_cookie 0000000180075824     LIBCMTD:gs_support.obj
 0002:0001182c       $unwind$__crtGetEnvironmentStringsA 000000018007582c     LIBCMTD:a_env.obj
 0002:00011834       $unwind$__crtIsPackagedApp 0000000180075834     LIBCMTD:winapisupp.obj
 0002:0001183c       $unwind$__crtGetShowWindowMode 000000018007583c     LIBCMTD:winapisupp.obj
 0002:00011844       $unwind$__crtSetUnhandledExceptionFilter 0000000180075844     LIBCMTD:winapisupp.obj
 0002:0001184c       $unwind$__crtUnhandledException 000000018007584c     LIBCMTD:winapisupp.obj
 0002:00011854       $unwind$__crtTerminateProcess 0000000180075854     LIBCMTD:winapisupp.obj
 0002:0001185c       $unwind$__crtCaptureCurrentContext 000000018007585c     LIBCMTD:winapisupp.obj
 0002:00011864       $unwind$__crtCapturePreviousContext 0000000180075864     LIBCMTD:winapisupp.obj
 0002:0001186c       $unwind$__crtFlsAlloc      000000018007586c     LIBCMTD:winapisupp.obj
 0002:00011874       $unwind$__crtFlsFree       0000000180075874     LIBCMTD:winapisupp.obj
 0002:0001187c       $unwind$__crtFlsGetValue   000000018007587c     LIBCMTD:winapisupp.obj
 0002:00011884       $unwind$__crtFlsSetValue   0000000180075884     LIBCMTD:winapisupp.obj
 0002:0001188c       $unwind$__crtInitializeCriticalSectionEx 000000018007588c     LIBCMTD:winapisupp.obj
 0002:00011894       $unwind$__crtCreateEventExW 0000000180075894     LIBCMTD:winapisupp.obj
 0002:0001189c       $unwind$__crtCreateSemaphoreExW 000000018007589c     LIBCMTD:winapisupp.obj
 0002:000118a4       $unwind$__crtSetThreadStackGuarantee 00000001800758a4     LIBCMTD:winapisupp.obj
 0002:000118ac       $unwind$__crtCreateThreadpoolTimer 00000001800758ac     LIBCMTD:winapisupp.obj
 0002:000118b4       $unwind$__crtSetThreadpoolTimer 00000001800758b4     LIBCMTD:winapisupp.obj
 0002:000118bc       $unwind$__crtWaitForThreadpoolTimerCallbacks 00000001800758bc     LIBCMTD:winapisupp.obj
 0002:000118c4       $unwind$__crtCloseThreadpoolTimer 00000001800758c4     LIBCMTD:winapisupp.obj
 0002:000118cc       $unwind$__crtCreateThreadpoolWait 00000001800758cc     LIBCMTD:winapisupp.obj
 0002:000118d4       $unwind$__crtSetThreadpoolWait 00000001800758d4     LIBCMTD:winapisupp.obj
 0002:000118dc       $unwind$__crtCloseThreadpoolWait 00000001800758dc     LIBCMTD:winapisupp.obj
 0002:000118e4       $unwind$__crtFlushProcessWriteBuffers 00000001800758e4     LIBCMTD:winapisupp.obj
 0002:000118ec       $unwind$__crtFreeLibraryWhenCallbackReturns 00000001800758ec     LIBCMTD:winapisupp.obj
 0002:000118f4       $unwind$__crtGetCurrentProcessorNumber 00000001800758f4     LIBCMTD:winapisupp.obj
 0002:000118fc       $unwind$__crtGetLogicalProcessorInformation 00000001800758fc     LIBCMTD:winapisupp.obj
 0002:00011904       $unwind$__crtCreateSymbolicLinkW 0000000180075904     LIBCMTD:winapisupp.obj
 0002:0001190c       $unwind$__crtGetFileInformationByHandleEx 000000018007590c     LIBCMTD:winapisupp.obj
 0002:00011914       $unwind$__crtSetFileInformationByHandle 0000000180075914     LIBCMTD:winapisupp.obj
 0002:0001191c       $unwind$__crtGetTickCount64 000000018007591c     LIBCMTD:winapisupp.obj
 0002:00011924       $unwind$__crtSleep         0000000180075924     LIBCMTD:winapisupp.obj
 0002:0001192c       $unwind$__crtLoadWinApiPointers 000000018007592c     LIBCMTD:winapisupp.obj
 0002:00011934       $unwind$__IsPackagedAppHelper 0000000180075934     LIBCMTD:winapisupp.obj
 0002:0001193c       $unwind$_RTC_Initialize    000000018007593c     LIBCMTD:initsect.obj
 0002:00011948       $unwind$_RTC_Terminate     0000000180075948     LIBCMTD:initsect.obj
 0002:00011954       $unwind$__C_specific_handler 0000000180075954     LIBCMTD:chandler.obj
 0002:0001195c       $unwind$_errno             000000018007595c     LIBCMTD:dosmap.obj
 0002:00011964       $unwind$_set_errno         0000000180075964     LIBCMTD:dosmap.obj
 0002:0001196c       $unwind$_get_errno         000000018007596c     LIBCMTD:dosmap.obj
 0002:00011974       $unwind$__doserrno         0000000180075974     LIBCMTD:dosmap.obj
 0002:0001197c       $unwind$_set_doserrno      000000018007597c     LIBCMTD:dosmap.obj
 0002:00011984       $unwind$_get_doserrno      0000000180075984     LIBCMTD:dosmap.obj
 0002:0001198c       $unwind$_dosmaperr         000000018007598c     LIBCMTD:dosmap.obj
 0002:00011994       $unwind$_get_errno_from_oserr 0000000180075994     LIBCMTD:dosmap.obj
 0002:0001199c       $unwind$fesetexceptflag    000000018007599c     LIBCMTD:fesetexceptflag.obj
 0002:000119a4       $unwind$_lock              00000001800759a4     LIBCMTD:mlock.obj
 0002:000119ac       $unwind$_unlock            00000001800759ac     LIBCMTD:mlock.obj
 0002:000119b4       $unwind$_mtinitlocknum     00000001800759b4     LIBCMTD:mlock.obj
 0002:000119d4       $unwind$_mtinitlocknum$fin$0 00000001800759d4     LIBCMTD:mlock.obj
 0002:000119dc       $unwind$_mtinitlocks       00000001800759dc     LIBCMTD:mlock.obj
 0002:000119e4       $unwind$_mtdeletelocks     00000001800759e4     LIBCMTD:mlock.obj
 0002:000119ec       $unwind$_lockerr_exit      00000001800759ec     LIBCMTD:mlock.obj
 0002:000119f4       $unwind$__updatetlocinfo   00000001800759f4     LIBCMTD:localref.obj
 0002:00011a14       $unwind$__updatetlocinfo$fin$0 0000000180075a14     LIBCMTD:localref.obj
 0002:00011a1c       $unwind$__addlocaleref     0000000180075a1c     LIBCMTD:localref.obj
 0002:00011a24       $unwind$__removelocaleref  0000000180075a24     LIBCMTD:localref.obj
 0002:00011a2c       $unwind$__freetlocinfo     0000000180075a2c     LIBCMTD:localref.obj
 0002:00011a34       $unwind$_updatetlocinfoEx_nolock 0000000180075a34     LIBCMTD:localref.obj
 0002:00011a3c       $unwind$__updatetmbcinfo   0000000180075a3c     LIBCMTD:mbctype.obj
 0002:00011a5c       $unwind$__updatetmbcinfo$fin$0 0000000180075a5c     LIBCMTD:mbctype.obj
 0002:00011a64       $unwind$_setmbcp           0000000180075a64     LIBCMTD:mbctype.obj
 0002:00011a88       $unwind$_setmbcp$fin$0     0000000180075a88     LIBCMTD:mbctype.obj
 0002:00011a90       $unwind$_getmbcp           0000000180075a90     LIBCMTD:mbctype.obj
 0002:00011a98       $unwind$__initmbctable     0000000180075a98     LIBCMTD:mbctype.obj
 0002:00011aa0       $unwind$_setmbcp_nolock    0000000180075aa0     LIBCMTD:mbctype.obj
 0002:00011ab0       $unwind$?getSystemCP@@YAHH@Z 0000000180075ab0     LIBCMTD:mbctype.obj
 0002:00011ac0       $stateUnwindMap$?getSystemCP@@YAHH@Z 0000000180075ac0     LIBCMTD:mbctype.obj
 0002:00011ac8       $ip2state$?getSystemCP@@YAHH@Z 0000000180075ac8     LIBCMTD:mbctype.obj
 0002:00011b10       $unwind$?dtor$0@?0??getSystemCP@@YAHH@Z@4HA 0000000180075b10     LIBCMTD:mbctype.obj
 0002:00011b18       $unwind$?CPtoLocaleName@@YAPEB_WH@Z 0000000180075b18     LIBCMTD:mbctype.obj
 0002:00011b20       $unwind$?setSBCS@@YAXPEAUthreadmbcinfostruct@@@Z 0000000180075b20     LIBCMTD:mbctype.obj
 0002:00011b28       $unwind$?setSBUpLow@@YAXPEAUthreadmbcinfostruct@@@Z 0000000180075b28     LIBCMTD:mbctype.obj
 0002:00011b38       $unwind$_except1           0000000180075b38     LIBCMTD:fpexcept.obj
 0002:00011b48       $unwind$_except2           0000000180075b48     LIBCMTD:fpexcept.obj
 0002:00011b58       $unwind$_handle_qnan1      0000000180075b58     LIBCMTD:fpexcept.obj
 0002:00011b60       $unwind$_handle_qnan2      0000000180075b60     LIBCMTD:fpexcept.obj
 0002:00011b68       $unwind$_errcode           0000000180075b68     LIBCMTD:fpexcept.obj
 0002:00011b70       $unwind$_set_errno_from_matherr 0000000180075b70     LIBCMTD:fpexcept.obj
 0002:00011b78       $unwind$_handle_exc        0000000180075b78     LIBCMTD:fpexcept.obj
 0002:00011b80       $unwind$_raise_excf        0000000180075b80     LIBCMTD:fpexcept.obj
 0002:00011b88       $unwind$_raise_exc         0000000180075b88     LIBCMTD:fpexcept.obj
 0002:00011b90       $unwind$_umatherr          0000000180075b90     LIBCMTD:fpexcept.obj
 0002:00011b98       $unwind$_get_fname         0000000180075b98     LIBCMTD:fpexcept.obj
 0002:00011ba0       $unwind$_raise_exc_ex      0000000180075ba0     LIBCMTD:fpexcept.obj
 0002:00011ba8       $unwind$_clrfp             0000000180075ba8     LIBCMTD:fpctrl.obj
 0002:00011bb0       $unwind$_ctrlfp            0000000180075bb0     LIBCMTD:fpctrl.obj
 0002:00011bd0       $unwind$_ctrlfp$filt$0     0000000180075bd0     LIBCMTD:fpctrl.obj
 0002:00011bd8       $unwind$_statfp            0000000180075bd8     LIBCMTD:fpctrl.obj
 0002:00011be0       $unwind$_set_statfp        0000000180075be0     LIBCMTD:fpctrl.obj
 0002:00011be8       $unwind$_invalid_parameter 0000000180075be8     LIBCMTD:invarg.obj
 0002:00011bf0       $unwind$_invoke_watson     0000000180075bf0     LIBCMTD:invarg.obj
 0002:00011bf8       $unwind$_call_reportfault  0000000180075bf8     LIBCMTD:invarg.obj
 0002:00011c0c       $unwind$_set_invalid_parameter_handler 0000000180075c0c     LIBCMTD:invarg.obj
 0002:00011c14       $unwind$_get_invalid_parameter_handler 0000000180075c14     LIBCMTD:invarg.obj
 0002:00011c1c       $unwind$?_invalid_parameter@@YAXPEBG00I_K@Z 0000000180075c1c     LIBCMTD:invarg.obj
 0002:00011c24       $unwind$?_invoke_watson@@YAXPEBG00I_K@Z 0000000180075c24     LIBCMTD:invarg.obj
 0002:00011c2c       $unwind$isalpha            0000000180075c2c     LIBCMTD:_ctype.obj
 0002:00011c34       $unwind$_isalpha_l         0000000180075c34     LIBCMTD:_ctype.obj
 0002:00011c3c       $unwind$isupper            0000000180075c3c     LIBCMTD:_ctype.obj
 0002:00011c44       $unwind$_isupper_l         0000000180075c44     LIBCMTD:_ctype.obj
 0002:00011c4c       $unwind$islower            0000000180075c4c     LIBCMTD:_ctype.obj
 0002:00011c54       $unwind$_islower_l         0000000180075c54     LIBCMTD:_ctype.obj
 0002:00011c5c       $unwind$isdigit            0000000180075c5c     LIBCMTD:_ctype.obj
 0002:00011c64       $unwind$_isdigit_l         0000000180075c64     LIBCMTD:_ctype.obj
 0002:00011c6c       $unwind$isxdigit           0000000180075c6c     LIBCMTD:_ctype.obj
 0002:00011c74       $unwind$_isxdigit_l        0000000180075c74     LIBCMTD:_ctype.obj
 0002:00011c7c       $unwind$isspace            0000000180075c7c     LIBCMTD:_ctype.obj
 0002:00011c84       $unwind$_isspace_l         0000000180075c84     LIBCMTD:_ctype.obj
 0002:00011c8c       $unwind$ispunct            0000000180075c8c     LIBCMTD:_ctype.obj
 0002:00011c94       $unwind$_ispunct_l         0000000180075c94     LIBCMTD:_ctype.obj
 0002:00011c9c       $unwind$isblank            0000000180075c9c     LIBCMTD:_ctype.obj
 0002:00011ca4       $unwind$_isblank_l         0000000180075ca4     LIBCMTD:_ctype.obj
 0002:00011cac       $unwind$isalnum            0000000180075cac     LIBCMTD:_ctype.obj
 0002:00011cb4       $unwind$_isalnum_l         0000000180075cb4     LIBCMTD:_ctype.obj
 0002:00011cbc       $unwind$isprint            0000000180075cbc     LIBCMTD:_ctype.obj
 0002:00011cc4       $unwind$_isprint_l         0000000180075cc4     LIBCMTD:_ctype.obj
 0002:00011ccc       $unwind$isgraph            0000000180075ccc     LIBCMTD:_ctype.obj
 0002:00011cd4       $unwind$_isgraph_l         0000000180075cd4     LIBCMTD:_ctype.obj
 0002:00011cdc       $unwind$iscntrl            0000000180075cdc     LIBCMTD:_ctype.obj
 0002:00011ce4       $unwind$_iscntrl_l         0000000180075ce4     LIBCMTD:_ctype.obj
 0002:00011cec       $unwind$__isascii          0000000180075cec     LIBCMTD:_ctype.obj
 0002:00011cf4       $unwind$__iscsymf          0000000180075cf4     LIBCMTD:_ctype.obj
 0002:00011cfc       $unwind$__iscsym           0000000180075cfc     LIBCMTD:_ctype.obj
 0002:00011d04       $unwind$_iscsymf_l         0000000180075d04     LIBCMTD:_ctype.obj
 0002:00011d0c       $unwind$_iscsym_l          0000000180075d0c     LIBCMTD:_ctype.obj
 0002:00011d14       $unwind$tolower            0000000180075d14     LIBCMTD:tolower.obj
 0002:00011d1c       $unwind$_tolower_l         0000000180075d1c     LIBCMTD:tolower.obj
 0002:00011d28       $xdatasym                  0000000180075d28     LIBCMTD:memset.obj
 0002:00011d2c       $unwind$strcpy_s           0000000180075d2c     LIBCMTD:strcpy_s.obj
 0002:00011d38       $xdatasym                  0000000180075d38     LIBCMTD:strlen.obj
 0002:00011d40       $xdatasym                  0000000180075d40     LIBCMTD:memcpy.obj
 0002:00011d44       $unwind$strrchr            0000000180075d44     LIBCMTD:strrchr.obj
 0002:00011d4c       $unwind$_fptostr           0000000180075d4c     LIBCMTD:_fptostr.obj
 0002:00011d54       $unwind$_atodbl            0000000180075d54     LIBCMTD:atodbl.obj
 0002:00011d5c       $unwind$_atoldbl           0000000180075d5c     LIBCMTD:atodbl.obj
 0002:00011d64       $unwind$_atoflt            0000000180075d64     LIBCMTD:atodbl.obj
 0002:00011d6c       $unwind$_atodbl_l          0000000180075d6c     LIBCMTD:atodbl.obj
 0002:00011d7c       $unwind$_atoldbl_l         0000000180075d7c     LIBCMTD:atodbl.obj
 0002:00011d8c       $unwind$_atoflt_l          0000000180075d8c     LIBCMTD:atodbl.obj
 0002:00011d94       $unwind$__crt_atoflt_l     0000000180075d94     LIBCMTD:atodbl.obj
 0002:00011da4       $unwind$_fltout2           0000000180075da4     LIBCMTD:cfout.obj
 0002:00011db8       $unwind$__dtold            0000000180075db8     LIBCMTD:cfout.obj
 0002:00011dc0       $unwind$_CrtSetReportHookW2 0000000180075dc0     LIBCMTD:dbgrptw.obj
 0002:00011de0       $unwind$_CrtSetReportHookW2$fin$0 0000000180075de0     LIBCMTD:dbgrptw.obj
 0002:00011de8       $unwind$_CrtDbgReportW     0000000180075de8     LIBCMTD:dbgrptw.obj
 0002:00011df0       $unwind$_CrtDbgReportWV    0000000180075df0     LIBCMTD:dbgrptw.obj
 0002:00011df8       $unwind$__crtMessageWindowW 0000000180075df8     LIBCMTD:dbgrptw.obj
 0002:00011e08       $unwind$?_CrtDbgReportW@@YAHHPEBGH00ZZ 0000000180075e08     LIBCMTD:dbgrptw.obj
 0002:00011e10       $unwind$_set_output_format 0000000180075e10     LIBCMTD:outputformat.obj
 0002:00011e18       $unwind$_fptrap            0000000180075e18     LIBCMTD:crt0fp.obj
 0002:00011e20       $unwind$_GET_RTERRMSG      0000000180075e20     LIBCMTD:crt0msg.obj
 0002:00011e28       $unwind$_FF_MSGBANNER      0000000180075e28     LIBCMTD:crt0msg.obj
 0002:00011e30       $unwind$_NMSG_WRITE        0000000180075e30     LIBCMTD:crt0msg.obj
 0002:00011e40       $unwind$_ValidateImageBase 0000000180075e40     LIBCMTD:pesect.obj
 0002:00011e48       $unwind$_FindPESection     0000000180075e48     LIBCMTD:pesect.obj
 0002:00011e50       $unwind$_IsNonwritableInCurrentImage 0000000180075e50     LIBCMTD:pesect.obj
 0002:00011e70       $unwind$_IsNonwritableInCurrentImage$filt$0 0000000180075e70     LIBCMTD:pesect.obj
 0002:00011e78       $unwind$atexit             0000000180075e78     LIBCMTD:onexit.obj
 0002:00011e80       $unwind$_onexit            0000000180075e80     LIBCMTD:onexit.obj
 0002:00011ea0       $unwind$_onexit$fin$0      0000000180075ea0     LIBCMTD:onexit.obj
 0002:00011ea8       $unwind$__onexitinit       0000000180075ea8     LIBCMTD:onexit.obj
 0002:00011eb0       $unwind$_onexit_nolock     0000000180075eb0     LIBCMTD:onexit.obj
 0002:00011eb8       $unwind$?terminate@@YAXXZ  0000000180075eb8     LIBCMTD:hooks.obj
 0002:00011ed8       $unwind$?filt$0@?0??terminate@@YAXXZ@4HA 0000000180075ed8     LIBCMTD:hooks.obj
 0002:00011ee0       $unwind$?unexpected@@YAXXZ 0000000180075ee0     LIBCMTD:hooks.obj
 0002:00011ee8       $unwind$?_inconsistency@@YAXXZ 0000000180075ee8     LIBCMTD:hooks.obj
 0002:00011f08       $unwind$?filt$0@?0??_inconsistency@@YAXXZ@4HA 0000000180075f08     LIBCMTD:hooks.obj
 0002:00011f10       $unwind$_initp_eh_hooks    0000000180075f10     LIBCMTD:hooks.obj
 0002:00011f18       $unwind$_callnewh          0000000180075f18     LIBCMTD:handler.obj
 0002:00011f20       $unwind$?_query_new_handler@@YAP6AH_K@ZXZ 0000000180075f20     LIBCMTD:handler.obj
 0002:00011f28       $unwind$?_set_new_handler@@YAP6AH_K@ZP6AH0@Z@Z 0000000180075f28     LIBCMTD:handler.obj
 0002:00011f30       $unwind$?_set_new_handler@@YAP6AH_K@ZH@Z 0000000180075f30     LIBCMTD:handler.obj
 0002:00011f38       $unwind$__getlocaleinfo    0000000180075f38     LIBCMTD:inithelp.obj
 0002:00011f48       $unwind$__fpecode          0000000180075f48     LIBCMTD:winsig.obj
 0002:00011f50       $unwind$__pxcptinfoptrs    0000000180075f50     LIBCMTD:winsig.obj
 0002:00011f58       $unwind$signal             0000000180075f58     LIBCMTD:winsig.obj
 0002:00011f78       $unwind$signal$fin$0       0000000180075f78     LIBCMTD:winsig.obj
 0002:00011f80       $unwind$raise              0000000180075f80     LIBCMTD:winsig.obj
 0002:00011fa0       $unwind$raise$fin$0        0000000180075fa0     LIBCMTD:winsig.obj
 0002:00011fa8       $unwind$__get_sigabrt      0000000180075fa8     LIBCMTD:winsig.obj
 0002:00011fb0       $unwind$siglookup          0000000180075fb0     LIBCMTD:winsig.obj
 0002:00011fb8       $unwind$ctrlevent_capture  0000000180075fb8     LIBCMTD:winsig.obj
 0002:00011fd8       $unwind$ctrlevent_capture$fin$0 0000000180075fd8     LIBCMTD:winsig.obj
 0002:00011fe0       $unwind$rand_s             0000000180075fe0     LIBCMTD:rand_s.obj
 0002:00011fe8       $unwind$_stbuf             0000000180075fe8     LIBCMTD:_sftbuf.obj
 0002:00011ff0       $unwind$_ftbuf             0000000180075ff0     LIBCMTD:_sftbuf.obj
 0002:00011ff8       $xdatasym                  0000000180075ff8     LIBCMTD:jmpuwind.obj
 0002:0001200c       $unwind$_lock_file         000000018007600c     LIBCMTD:_file.obj
 0002:00012014       $unwind$_unlock_file       0000000180076014     LIBCMTD:_file.obj
 0002:0001201c       $unwind$_lock_file2        000000018007601c     LIBCMTD:_file.obj
 0002:00012024       $unwind$_unlock_file2      0000000180076024     LIBCMTD:_file.obj
 0002:0001202c       $unwind$__initstdio        000000018007602c     LIBCMTD:_file.obj
 0002:00012034       $unwind$__endstdio         0000000180076034     LIBCMTD:_file.obj
 0002:0001203c       $unwind$_ismbbkalnum       000000018007603c     LIBCMTD:ismbbyte.obj
 0002:00012044       $unwind$_ismbbkalnum_l     0000000180076044     LIBCMTD:ismbbyte.obj
 0002:0001204c       $unwind$_ismbbkana         000000018007604c     LIBCMTD:ismbbyte.obj
 0002:00012054       $unwind$_ismbbkana_l       0000000180076054     LIBCMTD:ismbbyte.obj
 0002:0001205c       $unwind$_ismbbkpunct       000000018007605c     LIBCMTD:ismbbyte.obj
 0002:00012064       $unwind$_ismbbkpunct_l     0000000180076064     LIBCMTD:ismbbyte.obj
 0002:0001206c       $unwind$_ismbbkprint       000000018007606c     LIBCMTD:ismbbyte.obj
 0002:00012074       $unwind$_ismbbkprint_l     0000000180076074     LIBCMTD:ismbbyte.obj
 0002:0001207c       $unwind$_ismbbalpha        000000018007607c     LIBCMTD:ismbbyte.obj
 0002:00012084       $unwind$_ismbbalpha_l      0000000180076084     LIBCMTD:ismbbyte.obj
 0002:0001208c       $unwind$_ismbbpunct        000000018007608c     LIBCMTD:ismbbyte.obj
 0002:00012094       $unwind$_ismbbpunct_l      0000000180076094     LIBCMTD:ismbbyte.obj
 0002:0001209c       $unwind$_ismbbblank        000000018007609c     LIBCMTD:ismbbyte.obj
 0002:000120a4       $unwind$_ismbbblank_l      00000001800760a4     LIBCMTD:ismbbyte.obj
 0002:000120ac       $unwind$_ismbbalnum        00000001800760ac     LIBCMTD:ismbbyte.obj
 0002:000120b4       $unwind$_ismbbalnum_l      00000001800760b4     LIBCMTD:ismbbyte.obj
 0002:000120bc       $unwind$_ismbbprint        00000001800760bc     LIBCMTD:ismbbyte.obj
 0002:000120c4       $unwind$_ismbbprint_l      00000001800760c4     LIBCMTD:ismbbyte.obj
 0002:000120cc       $unwind$_ismbbgraph        00000001800760cc     LIBCMTD:ismbbyte.obj
 0002:000120d4       $unwind$_ismbbgraph_l      00000001800760d4     LIBCMTD:ismbbyte.obj
 0002:000120dc       $unwind$_ismbblead         00000001800760dc     LIBCMTD:ismbbyte.obj
 0002:000120e4       $unwind$_ismbblead_l       00000001800760e4     LIBCMTD:ismbbyte.obj
 0002:000120ec       $unwind$_ismbbtrail        00000001800760ec     LIBCMTD:ismbbyte.obj
 0002:000120f4       $unwind$_ismbbtrail_l      00000001800760f4     LIBCMTD:ismbbyte.obj
 0002:000120fc       $unwind$?x_ismbbtype_l@@YAHPEAUlocaleinfo_struct@@IHH@Z 00000001800760fc     LIBCMTD:ismbbyte.obj
 0002:0001210c       $stateUnwindMap$?x_ismbbtype_l@@YAHPEAUlocaleinfo_struct@@IHH@Z 000000018007610c     LIBCMTD:ismbbyte.obj
 0002:00012114       $ip2state$?x_ismbbtype_l@@YAHPEAUlocaleinfo_struct@@IHH@Z 0000000180076114     LIBCMTD:ismbbyte.obj
 0002:0001212c       $unwind$?dtor$0@?0??x_ismbbtype_l@@YAHPEAUlocaleinfo_struct@@IHH@Z@4HA 000000018007612c     LIBCMTD:ismbbyte.obj
 0002:00012134       $unwind$_isctype           0000000180076134     LIBCMTD:isctype.obj
 0002:0001213c       $unwind$_isctype_l         000000018007613c     LIBCMTD:isctype.obj
 0002:00012144       $unwind$_chvalidator       0000000180076144     LIBCMTD:isctype.obj
 0002:0001214c       $unwind$_chvalidator_l     000000018007614c     LIBCMTD:isctype.obj
 0002:00012154       $unwind$_free_base         0000000180076154     LIBCMTD:free.obj
 0002:0001215c       $unwind$_realloc_base      000000018007615c     LIBCMTD:realloc.obj
 0002:00012164       $unwind$_expand_base       0000000180076164     LIBCMTD:expand.obj
 0002:0001216c       $unwind$_is_LFH_enabled    000000018007616c     LIBCMTD:expand.obj
 0002:00012174       $unwind$_CrtSetReportHook2 0000000180076174     LIBCMTD:dbgrpt.obj
 0002:00012194       $unwind$_CrtSetReportHook2$fin$0 0000000180076194     LIBCMTD:dbgrpt.obj
 0002:0001219c       $unwind$_CrtDbgReport      000000018007619c     LIBCMTD:dbgrpt.obj
 0002:000121a4       $unwind$_CrtDbgReportV     00000001800761a4     LIBCMTD:dbgrpt.obj
 0002:000121ac       $unwind$__crtMessageWindowA 00000001800761ac     LIBCMTD:dbgrpt.obj
 0002:000121bc       $unwind$_heapchk           00000001800761bc     LIBCMTD:heapchk.obj
 0002:000121c4       $unwind$_heapset           00000001800761c4     LIBCMTD:heapchk.obj
 0002:000121cc       $unwind$_snprintf_s        00000001800761cc     LIBCMTD:sprintf.obj
 0002:000121d4       $unwind$sprintf_s          00000001800761d4     LIBCMTD:sprintf.obj
 0002:000121dc       $unwind$_scprintf          00000001800761dc     LIBCMTD:sprintf.obj
 0002:000121e4       $unwind$sprintf            00000001800761e4     LIBCMTD:sprintf.obj
 0002:000121f0       $unwind$_sprintf_p         00000001800761f0     LIBCMTD:sprintf.obj
 0002:000121f8       $unwind$_scprintf_p        00000001800761f8     LIBCMTD:sprintf.obj
 0002:00012200       $unwind$_sprintf_l         0000000180076200     LIBCMTD:sprintf.obj
 0002:00012208       $unwind$_sprintf_p_l       0000000180076208     LIBCMTD:sprintf.obj
 0002:00012210       $unwind$_sprintf_s_l       0000000180076210     LIBCMTD:sprintf.obj
 0002:00012218       $unwind$_scprintf_l        0000000180076218     LIBCMTD:sprintf.obj
 0002:00012220       $unwind$_scprintf_p_l      0000000180076220     LIBCMTD:sprintf.obj
 0002:00012228       $unwind$_snprintf_s_l      0000000180076228     LIBCMTD:sprintf.obj
 0002:00012230       $unwind$_malloc_base       0000000180076230     LIBCMTD:malloc.obj
 0002:00012238       $unwind$_heap_alloc_base   0000000180076238     LIBCMTD:malloc.obj
 0002:00012240       $unwind$fetestexcept       0000000180076240     LIBCMTD:fetestexcept.obj
 0002:00012248       $unwind$_setfpcontrolword  0000000180076248     LIBCMTD:_fenvutils.obj
 0002:00012250       $unwind$_setfpstatusword   0000000180076250     LIBCMTD:_fenvutils.obj
 0002:00012258       $unwind$_getfpcontrolword  0000000180076258     LIBCMTD:_fenvutils.obj
 0002:00012260       $unwind$_getfpstatusword   0000000180076260     LIBCMTD:_fenvutils.obj
 0002:00012268       $unwind$__get_machine_control 0000000180076268     LIBCMTD:_fenvutils.obj
 0002:00012270       $unwind$__get_machine_status 0000000180076270     LIBCMTD:_fenvutils.obj
 0002:00012278       $unwind$__get_abstract_control 0000000180076278     LIBCMTD:_fenvutils.obj
 0002:00012280       $unwind$__get_abstract_status 0000000180076280     LIBCMTD:_fenvutils.obj
 0002:00012288       $unwind$__init_monetary    0000000180076288     LIBCMTD:initmon.obj
 0002:00012294       $unwind$__free_lconv_mon   0000000180076294     LIBCMTD:initmon.obj
 0002:0001229c       $unwind$fix_grouping       000000018007629c     LIBCMTD:initmon.obj
 0002:000122a4       $unwind$__init_numeric     00000001800762a4     LIBCMTD:initnum.obj
 0002:000122b0       $unwind$__free_lconv_num   00000001800762b0     LIBCMTD:initnum.obj
 0002:000122b8       $unwind$fix_grouping       00000001800762b8     LIBCMTD:initnum.obj
 0002:000122c0       $unwind$__init_time        00000001800762c0     LIBCMTD:inittime.obj
 0002:000122c8       $unwind$_get_lc_time       00000001800762c8     LIBCMTD:inittime.obj
 0002:000122d0       $unwind$__free_lc_time     00000001800762d0     LIBCMTD:inittime.obj
 0002:000122d8       $unwind$localeconv         00000001800762d8     LIBCMTD:lconv.obj
 0002:000122e0       $unwind$__pctype_func      00000001800762e0     LIBCMTD:ctype.obj
 0002:000122e8       $unwind$__crtLCMapStringA  00000001800762e8     LIBCMTD:a_map.obj
 0002:000122f0       $unwind$_MallocaIsSizeInRange 00000001800762f0     LIBCMTD:a_map.obj
 0002:000122f8       $unwind$_freea             00000001800762f8     LIBCMTD:a_map.obj
 0002:00012300       $unwind$?strncnt@@YAHPEBDH@Z 0000000180076300     LIBCMTD:a_map.obj
 0002:00012308       $unwind$?__crtLCMapStringA_stat@@YAHPEAUlocaleinfo_struct@@PEB_WKPEBDHPEADHHH@Z 0000000180076308     LIBCMTD:a_map.obj
 0002:00012310       $unwind$__crtGetStringTypeA 0000000180076310     LIBCMTD:a_str.obj
 0002:00012318       $unwind$?__crtGetStringTypeA_stat@@YAHPEAUlocaleinfo_struct@@KPEBDHPEAGHH@Z 0000000180076318     LIBCMTD:a_str.obj
 0002:00012320       $unwind$?_ExecutionInCatch@@YAHPEAU_xDISPATCHER_CONTEXT@@PEBU_s_FuncInfo@@@Z 0000000180076320     LIBCMTD:trnsctrl.obj
 0002:00012328       $unwind$?__FrameUnwindToEmptyState@@YAXPEA_KPEAU_xDISPATCHER_CONTEXT@@PEBU_s_FuncInfo@@@Z 0000000180076328     LIBCMTD:trnsctrl.obj
 0002:00012330       $unwind$_FindAndUnlinkFrame 0000000180076330     LIBCMTD:trnsctrl.obj
 0002:00012338       $unwind$_CreateFrameInfo   0000000180076338     LIBCMTD:trnsctrl.obj
 0002:00012340       $unwind$_IsExceptionObjectToBeDestroyed 0000000180076340     LIBCMTD:trnsctrl.obj
 0002:00012348       $unwind$_UnwindNestedFrames 0000000180076348     LIBCMTD:trnsctrl.obj
 0002:0001235c       $unwind$_CallSETranslator  000000018007635c     LIBCMTD:trnsctrl.obj
 0002:0001237c       $unwind$_CallSETranslator$filt$0 000000018007637c     LIBCMTD:trnsctrl.obj
 0002:00012384       $unwind$_GetImageBase      0000000180076384     LIBCMTD:trnsctrl.obj
 0002:0001238c       $unwind$_GetThrowImageBase 000000018007638c     LIBCMTD:trnsctrl.obj
 0002:00012394       $unwind$_SetImageBase      0000000180076394     LIBCMTD:trnsctrl.obj
 0002:0001239c       $unwind$_SetThrowImageBase 000000018007639c     LIBCMTD:trnsctrl.obj
 0002:000123a4       $unwind$?_GetRangeOfTrysToCheck@@YAPEBU_s_TryBlockMapEntry@@PEA_KPEBU_s_FuncInfo@@HHPEAI2PEAU_xDISPATCHER_CONTEXT@@@Z 00000001800763a4     LIBCMTD:trnsctrl.obj
 0002:000123ac       $unwind$?_GetEstablisherFrame@@YAPEA_KPEA_KPEAU_xDISPATCHER_CONTEXT@@PEBU_s_FuncInfo@@0@Z 00000001800763ac     LIBCMTD:trnsctrl.obj
 0002:000123b4       $unwind$_MoveContext       00000001800763b4     LIBCMTD:trnsctrl.obj
 0002:000123bc       $unwind$?_CatchTryBlock@@YAPEBU_s_TryBlockMapEntry@@PEBU_s_FuncInfo@@H@Z 00000001800763bc     LIBCMTD:trnsctrl.obj
 0002:000123c4       $unwind$__CxxFrameHandler3 00000001800763c4     LIBCMTD:trnsctrl.obj
 0002:000123cc       $unwind$__CxxFrameHandler2 00000001800763cc     LIBCMTD:trnsctrl.obj
 0002:000123d4       $unwind$__CxxFrameHandler  00000001800763d4     LIBCMTD:trnsctrl.obj
 0002:000123dc       $unwind$?__SehTransFilter@@YAHPEAU_EXCEPTION_POINTERS@@PEAUEHExceptionRecord@@PEA_KPEAU_CONTEXT@@PEAU_xDISPATCHER_CONTEXT@@PEBU_s_FuncInfo@@PEAH@Z 00000001800763dc     LIBCMTD:trnsctrl.obj
 0002:000123e4       $unwind$_set_exp           00000001800763e4     LIBCMTD:util.obj
 0002:000123ec       $unwind$_set_bexp          00000001800763ec     LIBCMTD:util.obj
 0002:000123f4       $unwind$_add_exp           00000001800763f4     LIBCMTD:util.obj
 0002:000123fc       $unwind$_get_exp           00000001800763fc     LIBCMTD:util.obj
 0002:00012404       $unwind$_decomp            0000000180076404     LIBCMTD:util.obj
 0002:00012410       $xdatasym                  0000000180076410     LIBCMTD:fpsr.obj
 0002:00012418       $unwind$_configthreadlocale 0000000180076418     LIBCMTD:wsetloca.obj
 0002:00012420       $unwind$_get_current_locale 0000000180076420     LIBCMTD:wsetloca.obj
 0002:00012450       $unwind$_get_current_locale$fin$0 0000000180076450     LIBCMTD:wsetloca.obj
 0002:00012458       $unwind$_get_current_locale$fin$1 0000000180076458     LIBCMTD:wsetloca.obj
 0002:00012460       $unwind$_create_locale     0000000180076460     LIBCMTD:wsetloca.obj
 0002:00012470       $unwind$_free_locale       0000000180076470     LIBCMTD:wsetloca.obj
 0002:000124a0       $unwind$_free_locale$fin$0 00000001800764a0     LIBCMTD:wsetloca.obj
 0002:000124a8       $unwind$_free_locale$fin$1 00000001800764a8     LIBCMTD:wsetloca.obj
 0002:000124b0       $unwind$__get_current_locale 00000001800764b0     LIBCMTD:wsetloca.obj
 0002:000124b8       $unwind$__create_locale    00000001800764b8     LIBCMTD:wsetloca.obj
 0002:000124c0       $unwind$__free_locale      00000001800764c0     LIBCMTD:wsetloca.obj
 0002:000124c8       $unwind$_wsetlocale        00000001800764c8     LIBCMTD:wsetloca.obj
 0002:00012508       $unwind$_wsetlocale$fin$0  0000000180076508     LIBCMTD:wsetloca.obj
 0002:00012510       $unwind$_wsetlocale$fin$1  0000000180076510     LIBCMTD:wsetloca.obj
 0002:00012518       $unwind$_wsetlocale$fin$2  0000000180076518     LIBCMTD:wsetloca.obj
 0002:00012520       $unwind$_wcreate_locale    0000000180076520     LIBCMTD:wsetloca.obj
 0002:00012528       $unwind$__copy_locale_name 0000000180076528     LIBCMTD:wsetloca.obj
 0002:00012530       $unwind$_locterm           0000000180076530     LIBCMTD:wsetloca.obj
 0002:00012550       $unwind$_locterm$fin$0     0000000180076550     LIBCMTD:wsetloca.obj
 0002:00012558       $unwind$_expandlocale      0000000180076558     LIBCMTD:wsetloca.obj
 0002:00012568       $unwind$_wcscats           0000000180076568     LIBCMTD:wsetloca.obj
 0002:00012570       $unwind$__lc_lctowcs       0000000180076570     LIBCMTD:wsetloca.obj
 0002:00012578       $unwind$__lc_wcstolc       0000000180076578     LIBCMTD:wsetloca.obj
 0002:00012580       $unwind$_wsetlocale_set_cat 0000000180076580     LIBCMTD:wsetloca.obj
 0002:00012590       $unwind$_wsetlocale_get_all 0000000180076590     LIBCMTD:wsetloca.obj
 0002:00012598       $unwind$_wsetlocale_nolock 0000000180076598     LIBCMTD:wsetloca.obj
 0002:000125a8       $unwind$_copytlocinfo_nolock 00000001800765a8     LIBCMTD:wsetloca.obj
 0002:000125b4       $unwind$iswalpha           00000001800765b4     LIBCMTD:_wctype.obj
 0002:000125bc       $unwind$_iswalpha_l        00000001800765bc     LIBCMTD:_wctype.obj
 0002:000125c4       $unwind$iswupper           00000001800765c4     LIBCMTD:_wctype.obj
 0002:000125cc       $unwind$_iswupper_l        00000001800765cc     LIBCMTD:_wctype.obj
 0002:000125d4       $unwind$iswlower           00000001800765d4     LIBCMTD:_wctype.obj
 0002:000125dc       $unwind$_iswlower_l        00000001800765dc     LIBCMTD:_wctype.obj
 0002:000125e4       $unwind$iswdigit           00000001800765e4     LIBCMTD:_wctype.obj
 0002:000125ec       $unwind$_iswdigit_l        00000001800765ec     LIBCMTD:_wctype.obj
 0002:000125f4       $unwind$iswxdigit          00000001800765f4     LIBCMTD:_wctype.obj
 0002:000125fc       $unwind$_iswxdigit_l       00000001800765fc     LIBCMTD:_wctype.obj
 0002:00012604       $unwind$iswspace           0000000180076604     LIBCMTD:_wctype.obj
 0002:0001260c       $unwind$_iswspace_l        000000018007660c     LIBCMTD:_wctype.obj
 0002:00012614       $unwind$iswpunct           0000000180076614     LIBCMTD:_wctype.obj
 0002:0001261c       $unwind$_iswpunct_l        000000018007661c     LIBCMTD:_wctype.obj
 0002:00012624       $unwind$iswblank           0000000180076624     LIBCMTD:_wctype.obj
 0002:0001262c       $unwind$_iswblank_l        000000018007662c     LIBCMTD:_wctype.obj
 0002:00012634       $unwind$iswalnum           0000000180076634     LIBCMTD:_wctype.obj
 0002:0001263c       $unwind$_iswalnum_l        000000018007663c     LIBCMTD:_wctype.obj
 0002:00012644       $unwind$iswprint           0000000180076644     LIBCMTD:_wctype.obj
 0002:0001264c       $unwind$_iswprint_l        000000018007664c     LIBCMTD:_wctype.obj
 0002:00012654       $unwind$iswgraph           0000000180076654     LIBCMTD:_wctype.obj
 0002:0001265c       $unwind$_iswgraph_l        000000018007665c     LIBCMTD:_wctype.obj
 0002:00012664       $unwind$iswcntrl           0000000180076664     LIBCMTD:_wctype.obj
 0002:0001266c       $unwind$_iswcntrl_l        000000018007666c     LIBCMTD:_wctype.obj
 0002:00012674       $unwind$iswascii           0000000180076674     LIBCMTD:_wctype.obj
 0002:0001267c       $unwind$__iswcsymf         000000018007667c     LIBCMTD:_wctype.obj
 0002:00012684       $unwind$_iswcsymf_l        0000000180076684     LIBCMTD:_wctype.obj
 0002:0001268c       $unwind$__iswcsym          000000018007668c     LIBCMTD:_wctype.obj
 0002:00012694       $unwind$_iswcsym_l         0000000180076694     LIBCMTD:_wctype.obj
 0002:0001269c       $unwind$isleadbyte         000000018007669c     LIBCMTD:_wctype.obj
 0002:000126a4       $unwind$_isleadbyte_l      00000001800766a4     LIBCMTD:_wctype.obj
 0002:000126ac       $unwind$__isa_available_init 00000001800766ac     LIBCMTD:cpu_disp.obj
 0002:000126bc       $unwind$_ld12tod           00000001800766bc     LIBCMTD:intrncvt.obj
 0002:000126c4       $unwind$_ld12tof           00000001800766c4     LIBCMTD:intrncvt.obj
 0002:000126cc       $unwind$_ld12told          00000001800766cc     LIBCMTD:intrncvt.obj
 0002:000126dc       $unwind$__addl             00000001800766dc     LIBCMTD:intrncvt.obj
 0002:000126e4       $unwind$_RoundMan          00000001800766e4     LIBCMTD:intrncvt.obj
 0002:000126ec       $unwind$_ZeroTail          00000001800766ec     LIBCMTD:intrncvt.obj
 0002:000126f4       $unwind$_IncMan            00000001800766f4     LIBCMTD:intrncvt.obj
 0002:000126fc       $unwind$_CopyMan           00000001800766fc     LIBCMTD:intrncvt.obj
 0002:00012704       $unwind$_FillZeroMan       0000000180076704     LIBCMTD:intrncvt.obj
 0002:0001270c       $unwind$_ShrMan            000000018007670c     LIBCMTD:intrncvt.obj
 0002:00012714       $unwind$_ld12cvt           0000000180076714     LIBCMTD:intrncvt.obj
 0002:00012724       $unwind$_IsZeroMan         0000000180076724     LIBCMTD:intrncvt.obj
 0002:0001272c       $unwind$__strgtold12_l     000000018007672c     LIBCMTD:strgtold.obj
 0002:0001273c       $unwind$__STRINGTOLD_L     000000018007673c     LIBCMTD:strgtold.obj
 0002:0001274c       $unwind$__shl_12           000000018007674c     LIBCMTD:strgtold.obj
 0002:00012754       $unwind$__shr_12           0000000180076754     LIBCMTD:strgtold.obj
 0002:0001275c       $unwind$__multtenpow12     000000018007675c     LIBCMTD:strgtold.obj
 0002:00012770       $unwind$__ld12mul          0000000180076770     LIBCMTD:strgtold.obj
 0002:00012780       $unwind$__add_12           0000000180076780     LIBCMTD:x10fout.obj
 0002:00012788       $unwind$$I10_OUTPUT        0000000180076788     LIBCMTD:x10fout.obj
 0002:0001279c       $unwind$memcpy_s           000000018007679c     LIBCMTD:memcpy_s.obj
 0002:000127a4       $unwind$wcscpy_s           00000001800767a4     LIBCMTD:wcscpy_s.obj
 0002:000127ac       $unwind$wcslen             00000001800767ac     LIBCMTD:wcslen.obj
 0002:000127b4       $unwind$_scwprintf         00000001800767b4     LIBCMTD:swprintf.obj
 0002:000127bc       $unwind$swprintf_s         00000001800767bc     LIBCMTD:swprintf.obj
 0002:000127c4       $unwind$_snwprintf_s       00000001800767c4     LIBCMTD:swprintf.obj
 0002:000127cc       $unwind$_swprintf_p        00000001800767cc     LIBCMTD:swprintf.obj
 0002:000127d4       $unwind$_scwprintf_p       00000001800767d4     LIBCMTD:swprintf.obj
 0002:000127dc       $unwind$_swprintf_p_l      00000001800767dc     LIBCMTD:swprintf.obj
 0002:000127e4       $unwind$_swprintf_s_l      00000001800767e4     LIBCMTD:swprintf.obj
 0002:000127ec       $unwind$_scwprintf_l       00000001800767ec     LIBCMTD:swprintf.obj
 0002:000127f4       $unwind$_scwprintf_p_l     00000001800767f4     LIBCMTD:swprintf.obj
 0002:000127fc       $unwind$_snwprintf_s_l     00000001800767fc     LIBCMTD:swprintf.obj
 0002:00012804       $unwind$_swprintf          0000000180076804     LIBCMTD:swprintf.obj
 0002:00012810       $unwind$__swprintf_l       0000000180076810     LIBCMTD:swprintf.obj
 0002:00012818       $unwind$__crtMessageBoxW   0000000180076818     LIBCMTD:crtmboxw.obj
 0002:0001282c       $unwind$__crtMessageBoxWaitThreadW 000000018007682c     LIBCMTD:crtmboxw.obj
 0002:00012834       $unwind$_CrtSetReportHook  0000000180076834     LIBCMTD:dbgrptt.obj
 0002:0001283c       $unwind$_CrtSetReportMode  000000018007683c     LIBCMTD:dbgrptt.obj
 0002:00012844       $unwind$_CrtSetReportFile  0000000180076844     LIBCMTD:dbgrptt.obj
 0002:0001284c       $unwind$_VCrtDbgReportA    000000018007684c     LIBCMTD:dbgrptt.obj
 0002:00012884       $unwind$_VCrtDbgReportA$fin$0 0000000180076884     LIBCMTD:dbgrptt.obj
 0002:0001288c       $unwind$_VCrtDbgReportA$fin$1 000000018007688c     LIBCMTD:dbgrptt.obj
 0002:00012894       $unwind$_VCrtDbgReportW    0000000180076894     LIBCMTD:dbgrptt.obj
 0002:000128cc       $unwind$_VCrtDbgReportW$fin$0 00000001800768cc     LIBCMTD:dbgrptt.obj
 0002:000128d4       $unwind$_VCrtDbgReportW$fin$1 00000001800768d4     LIBCMTD:dbgrptt.obj
 0002:000128e0       $xdatasym                  00000001800768e0     LIBCMTD:chkstk.obj
 0002:000128e8       $unwind$wcscat_s           00000001800768e8     LIBCMTD:wcscat_s.obj
 0002:000128f0       $unwind$wcsncpy_s          00000001800768f0     LIBCMTD:wcsncpy_s.obj
 0002:000128f8       $unwind$_set_error_mode    00000001800768f8     LIBCMTD:errmode.obj
 0002:00012900       $unwind$abort              0000000180076900     LIBCMTD:abort.obj
 0002:00012908       $unwind$_set_abort_behavior 0000000180076908     LIBCMTD:abort.obj
 0002:00012910       $unwind$strncpy_s          0000000180076910     LIBCMTD:strncpy_s.obj
 0002:00012918       $unwind$__crtGetLocaleInfoA 0000000180076918     LIBCMTD:a_loc.obj
 0002:00012920       $unwind$?__crtGetLocaleInfoA_stat@@YAHPEAUlocaleinfo_struct@@PEB_WKPEADH@Z 0000000180076920     LIBCMTD:a_loc.obj
 0002:00012928       $unwind$__crtDownlevelLocaleNameToLCID 0000000180076928     LIBCMTD:winapinls.obj
 0002:00012930       $unwind$__crtDownlevelLCIDToLocaleName 0000000180076930     LIBCMTD:winapinls.obj
 0002:00012938       $unwind$__crtCompareStringEx 0000000180076938     LIBCMTD:winapinls.obj
 0002:00012940       $unwind$__crtEnumSystemLocalesEx 0000000180076940     LIBCMTD:winapinls.obj
 0002:00012948       $unwind$__crtGetDateFormatEx 0000000180076948     LIBCMTD:winapinls.obj
 0002:00012950       $unwind$__crtGetLocaleInfoEx 0000000180076950     LIBCMTD:winapinls.obj
 0002:00012958       $unwind$__crtGetTimeFormatEx 0000000180076958     LIBCMTD:winapinls.obj
 0002:00012960       $unwind$__crtGetUserDefaultLocaleName 0000000180076960     LIBCMTD:winapinls.obj
 0002:00012968       $unwind$__crtIsValidLocaleName 0000000180076968     LIBCMTD:winapinls.obj
 0002:00012970       $unwind$__crtLCMapStringEx 0000000180076970     LIBCMTD:winapinls.obj
 0002:00012978       $unwind$__wcsnicmp_ascii   0000000180076978     LIBCMTD:winapinls.obj
 0002:00012980       $unwind$GetTableIndexFromLocaleName 0000000180076980     LIBCMTD:winapinls.obj
 0002:00012988       $unwind$GetTableIndexFromLcid 0000000180076988     LIBCMTD:winapinls.obj
 0002:00012990       $unwind$__crtEnumLocalesProc 0000000180076990     LIBCMTD:winapinls.obj
 0002:00012998       $unwind$_fileno            0000000180076998     LIBCMTD:fileno.obj
 0002:000129a0       $unwind$_isatty            00000001800769a0     LIBCMTD:isatty.obj
 0002:000129a8       $unwind$fflush             00000001800769a8     LIBCMTD:fflush.obj
 0002:000129c8       $unwind$fflush$fin$0       00000001800769c8     LIBCMTD:fflush.obj
 0002:000129d0       $unwind$_flushall          00000001800769d0     LIBCMTD:fflush.obj
 0002:000129d8       $unwind$_fflush_nolock     00000001800769d8     LIBCMTD:fflush.obj
 0002:000129e0       $unwind$_flush             00000001800769e0     LIBCMTD:fflush.obj
 0002:000129e8       $unwind$flsall             00000001800769e8     LIBCMTD:fflush.obj
 0002:00012a18       $unwind$flsall$fin$0       0000000180076a18     LIBCMTD:fflush.obj
 0002:00012a20       $unwind$flsall$fin$1       0000000180076a20     LIBCMTD:fflush.obj
 0002:00012a28       $unwind$_fcloseall         0000000180076a28     LIBCMTD:closeall.obj
 0002:00012a48       $unwind$_fcloseall$fin$0   0000000180076a48     LIBCMTD:closeall.obj
 0002:00012a50       $unwind$_flsbuf            0000000180076a50     LIBCMTD:_flsbuf.obj
 0002:00012a58       $unwind$vsprintf           0000000180076a58     LIBCMTD:vsprintf.obj
 0002:00012a60       $unwind$_vscprintf         0000000180076a60     LIBCMTD:vsprintf.obj
 0002:00012a68       $unwind$_vscprintf_p       0000000180076a68     LIBCMTD:vsprintf.obj
 0002:00012a70       $unwind$_vsprintf_l        0000000180076a70     LIBCMTD:vsprintf.obj
 0002:00012a7c       $unwind$_vscprintf_l       0000000180076a7c     LIBCMTD:vsprintf.obj
 0002:00012a84       $unwind$_vscprintf_p_l     0000000180076a84     LIBCMTD:vsprintf.obj
 0002:00012a8c       $unwind$_vscprintf_helper  0000000180076a8c     LIBCMTD:vsprintf.obj
 0002:00012a94       $unwind$_vsnprintf_s       0000000180076a94     LIBCMTD:vsnprnc.obj
 0002:00012a9c       $unwind$vsprintf_s         0000000180076a9c     LIBCMTD:vsnprnc.obj
 0002:00012aa4       $unwind$_vsnprintf_c       0000000180076aa4     LIBCMTD:vsnprnc.obj
 0002:00012aac       $unwind$_vsprintf_p        0000000180076aac     LIBCMTD:vsnprnc.obj
 0002:00012ab4       $unwind$_vsprintf_p_l      0000000180076ab4     LIBCMTD:vsnprnc.obj
 0002:00012abc       $unwind$_vsprintf_s_l      0000000180076abc     LIBCMTD:vsnprnc.obj
 0002:00012ac4       $unwind$_vsnprintf_c_l     0000000180076ac4     LIBCMTD:vsnprnc.obj
 0002:00012acc       $unwind$_vsnprintf_s_l     0000000180076acc     LIBCMTD:vsnprnc.obj
 0002:00012ad4       $unwind$_vsnprintf_helper  0000000180076ad4     LIBCMTD:vsnprnc.obj
 0002:00012ae0       $unwind$_output_l          0000000180076ae0     LIBCMTD:output.obj
 0002:00012af0       $unwind$write_char         0000000180076af0     LIBCMTD:output.obj
 0002:00012af8       $unwind$write_multi_char   0000000180076af8     LIBCMTD:output.obj
 0002:00012b00       $unwind$write_string       0000000180076b00     LIBCMTD:output.obj
 0002:00012b08       $unwind$get_int_arg        0000000180076b08     LIBCMTD:output.obj
 0002:00012b10       $unwind$get_short_arg      0000000180076b10     LIBCMTD:output.obj
 0002:00012b18       $unwind$get_int64_arg      0000000180076b18     LIBCMTD:output.obj
 0002:00012b20       $unwind$fegetexceptflag    0000000180076b20     LIBCMTD:fegetexceptflag.obj
 0002:00012b28       $unwind$_clearfp           0000000180076b28     LIBCMTD:ieee.obj
 0002:00012b30       $unwind$_controlfp         0000000180076b30     LIBCMTD:ieee.obj
 0002:00012b38       $unwind$_set_controlfp     0000000180076b38     LIBCMTD:ieee.obj
 0002:00012b40       $unwind$_statusfp          0000000180076b40     LIBCMTD:ieee.obj
 0002:00012b48       $unwind$_fpreset           0000000180076b48     LIBCMTD:ieee.obj
 0002:00012b50       $unwind$_control87         0000000180076b50     LIBCMTD:ieee.obj
 0002:00012b70       $unwind$_control87$filt$0  0000000180076b70     LIBCMTD:ieee.obj
 0002:00012b78       $unwind$_abstract_sw       0000000180076b78     LIBCMTD:ieee.obj
 0002:00012b80       $unwind$_abstract_cw       0000000180076b80     LIBCMTD:ieee.obj
 0002:00012b88       $unwind$_hw_cw             0000000180076b88     LIBCMTD:ieee.obj
 0002:00012b90       $unwind$free               0000000180076b90     LIBCMTD:dbgfree.obj
 0002:00012b98       $unwind$malloc             0000000180076b98     LIBCMTD:dbgmalloc.obj
 0002:00012ba0       $unwind$__CxxExceptionFilter 0000000180076ba0     LIBCMTD:frame.obj
 0002:00012bc4       $unwind$__CxxExceptionFilter$fin$0 0000000180076bc4     LIBCMTD:frame.obj
 0002:00012bcc       $unwind$__CxxRegisterExceptionObject 0000000180076bcc     LIBCMTD:frame.obj
 0002:00012bd4       $unwind$__CxxDetectRethrow 0000000180076bd4     LIBCMTD:frame.obj
 0002:00012bdc       $unwind$__CxxUnregisterExceptionObject 0000000180076bdc     LIBCMTD:frame.obj
 0002:00012be4       $unwind$?_is_exception_typeof@@YAHAEBVtype_info@@PEAU_EXCEPTION_POINTERS@@@Z 0000000180076be4     LIBCMTD:frame.obj
 0002:00012bec       $unwind$?__uncaught_exception@@YA_NXZ 0000000180076bec     LIBCMTD:frame.obj
 0002:00012bf4       $unwind$__CxxCallCatchBlock 0000000180076bf4     LIBCMTD:frame.obj
 0002:00012c24       $unwind$__CxxCallCatchBlock$filt$0 0000000180076c24     LIBCMTD:frame.obj
 0002:00012c2c       $unwind$__CxxCallCatchBlock$fin$1 0000000180076c2c     LIBCMTD:frame.obj
 0002:00012c34       $unwind$??0bad_exception@std@@QEAA@PEBD@Z 0000000180076c34     LIBCMTD:frame.obj
 0002:00012c3c       $unwind$??1bad_exception@std@@UEAA@XZ 0000000180076c3c     LIBCMTD:frame.obj
 0002:00012c44       $unwind$??0bad_exception@std@@QEAA@AEBV01@@Z 0000000180076c44     LIBCMTD:frame.obj
 0002:00012c4c       $unwind$??_Gbad_exception@std@@UEAAPEAXI@Z 0000000180076c4c     LIBCMTD:frame.obj
 0002:00012c54       $unwind$__FrameUnwindToState 0000000180076c54     LIBCMTD:frame.obj
 0002:00012c84       $unwind$__FrameUnwindToState$filt$0 0000000180076c84     LIBCMTD:frame.obj
 0002:00012c8c       $unwind$__FrameUnwindToState$fin$1 0000000180076c8c     LIBCMTD:frame.obj
 0002:00012c94       $unwind$?FindHandler@@YAXPEAUEHExceptionRecord@@PEA_KPEAU_CONTEXT@@PEAU_xDISPATCHER_CONTEXT@@PEBU_s_FuncInfo@@EH1@Z 0000000180076c94     LIBCMTD:frame.obj
 0002:00012c9c       $unwind$?CatchIt@@YAXPEAUEHExceptionRecord@@PEA_KPEAU_CONTEXT@@PEAU_xDISPATCHER_CONTEXT@@PEBU_s_FuncInfo@@PEBU_s_HandlerType@@PEBU_s_CatchableType@@PEBU_s_TryBlockMapEntry@@H1EE@Z 0000000180076c9c     LIBCMTD:frame.obj
 0002:00012ca4       $unwind$__BuildCatchObject 0000000180076ca4     LIBCMTD:frame.obj
 0002:00012cc4       $unwind$__BuildCatchObject$filt$0 0000000180076cc4     LIBCMTD:frame.obj
 0002:00012ccc       $unwind$__TypeMatch        0000000180076ccc     LIBCMTD:frame.obj
 0002:00012cd4       $unwind$__AdjustPointer    0000000180076cd4     LIBCMTD:frame.obj
 0002:00012cdc       $unwind$__GetPlatformExceptionInfo 0000000180076cdc     LIBCMTD:frame.obj
 0002:00012ce4       $unwind$?FindHandlerForForeignException@@YAXPEAUEHExceptionRecord@@PEA_KPEAU_CONTEXT@@PEAU_xDISPATCHER_CONTEXT@@PEBU_s_FuncInfo@@HH1@Z 0000000180076ce4     LIBCMTD:frame.obj
 0002:00012cec       $unwind$__FrameUnwindFilter 0000000180076cec     LIBCMTD:frame.obj
 0002:00012cf4       $unwind$?ExFilterRethrow@@YAHPEAU_EXCEPTION_POINTERS@@PEAUEHExceptionRecord@@PEAH@Z 0000000180076cf4     LIBCMTD:frame.obj
 0002:00012cfc       $unwind$__DestructExceptionObject 0000000180076cfc     LIBCMTD:frame.obj
 0002:00012d1c       $unwind$__DestructExceptionObject$filt$0 0000000180076d1c     LIBCMTD:frame.obj
 0002:00012d24       $unwind$?IsInExceptionSpec@@YAEPEAUEHExceptionRecord@@PEBU_s_ESTypeList@@@Z 0000000180076d24     LIBCMTD:frame.obj
 0002:00012d2c       $unwind$?Is_bad_exception_allowed@@YAEPEBU_s_ESTypeList@@@Z 0000000180076d2c     LIBCMTD:frame.obj
 0002:00012d34       $unwind$__InternalCxxFrameHandler 0000000180076d34     LIBCMTD:frame.obj
 0002:00012d3c       $unwind$?__RethrowException@@YAXPEAUEHExceptionRecord@@@Z 0000000180076d3c     LIBCMTD:frame.obj
 0002:00012d44       $unwind$__BuildCatchObjectHelper 0000000180076d44     LIBCMTD:frame.obj
 0002:00012d64       $unwind$__BuildCatchObjectHelper$filt$0 0000000180076d64     LIBCMTD:frame.obj
 0002:00012d6c       $unwind$?__GetCurrentState@@YAHPEA_KPEAU_xDISPATCHER_CONTEXT@@PEBU_s_FuncInfo@@@Z 0000000180076d6c     LIBCMTD:ehstate.obj
 0002:00012d74       $unwind$?__SetUnwindTryBlock@@YAXPEA_KPEAU_xDISPATCHER_CONTEXT@@PEBU_s_FuncInfo@@H@Z 0000000180076d74     LIBCMTD:ehstate.obj
 0002:00012d7c       $unwind$?__GetUnwindTryBlock@@YAHPEA_KPEAU_xDISPATCHER_CONTEXT@@PEBU_s_FuncInfo@@@Z 0000000180076d7c     LIBCMTD:ehstate.obj
 0002:00012d84       $unwind$?__StateFromControlPc@@YAHPEBU_s_FuncInfo@@PEAU_xDISPATCHER_CONTEXT@@@Z 0000000180076d84     LIBCMTD:ehstate.obj
 0002:00012d8c       $unwind$?__StateFromIp@@YAHPEBU_s_FuncInfo@@PEAU_xDISPATCHER_CONTEXT@@_J@Z 0000000180076d8c     LIBCMTD:ehstate.obj
 0002:00012d94       $unwind$___mb_cur_max_func 0000000180076d94     LIBCMTD:initctyp.obj
 0002:00012d9c       $unwind$___mb_cur_max_l_func 0000000180076d9c     LIBCMTD:initctyp.obj
 0002:00012da4       $unwind$___lc_locale_name_func 0000000180076da4     LIBCMTD:initctyp.obj
 0002:00012dac       $unwind$___lc_codepage_func 0000000180076dac     LIBCMTD:initctyp.obj
 0002:00012db4       $unwind$___lc_collate_cp_func 0000000180076db4     LIBCMTD:initctyp.obj
 0002:00012dbc       $unwind$__init_ctype       0000000180076dbc     LIBCMTD:initctyp.obj
 0002:00012dd0       $xdatasym                  0000000180076dd0     LIBCMTD:memcmp.obj
 0002:00012dd4       $unwind$wcscmp             0000000180076dd4     LIBCMTD:wcscmp.obj
 0002:00012ddc       $unwind$wcscspn            0000000180076ddc     LIBCMTD:wcscspn.obj
 0002:00012de4       $unwind$wcsnlen            0000000180076de4     LIBCMTD:wcslen_s.obj
 0002:00012dec       $unwind$wcspbrk            0000000180076dec     LIBCMTD:wcspbrk.obj
 0002:00012df4       $unwind$__get_qualified_locale 0000000180076df4     LIBCMTD:getqloc.obj
 0002:00012dfc       $unwind$TranslateName      0000000180076dfc     LIBCMTD:getqloc.obj
 0002:00012e04       $unwind$GetLocaleNameFromLangCountry 0000000180076e04     LIBCMTD:getqloc.obj
 0002:00012e0c       $unwind$LangCountryEnumProcEx 0000000180076e0c     LIBCMTD:getqloc.obj
 0002:00012e1c       $unwind$GetLocaleNameFromLanguage 0000000180076e1c     LIBCMTD:getqloc.obj
 0002:00012e24       $unwind$LanguageEnumProcEx 0000000180076e24     LIBCMTD:getqloc.obj
 0002:00012e34       $unwind$GetLocaleNameFromDefault 0000000180076e34     LIBCMTD:getqloc.obj
 0002:00012e44       $unwind$ProcessCodePage    0000000180076e44     LIBCMTD:getqloc.obj
 0002:00012e4c       $unwind$TestDefaultCountry 0000000180076e4c     LIBCMTD:getqloc.obj
 0002:00012e5c       $unwind$TestDefaultLanguage 0000000180076e5c     LIBCMTD:getqloc.obj
 0002:00012e64       $unwind$GetPrimaryLen      0000000180076e64     LIBCMTD:getqloc.obj
 0002:00012e6c       $unwind$__get_qualified_locale_downlevel 0000000180076e6c     LIBCMTD:getqloc_downlevel.obj
 0002:00012e7c       $unwind$TranslateName      0000000180076e7c     LIBCMTD:getqloc_downlevel.obj
 0002:00012e84       $unwind$GetLcidFromLangCountry 0000000180076e84     LIBCMTD:getqloc_downlevel.obj
 0002:00012e8c       $unwind$LangCountryEnumProc 0000000180076e8c     LIBCMTD:getqloc_downlevel.obj
 0002:00012e9c       $unwind$GetLcidFromLanguage 0000000180076e9c     LIBCMTD:getqloc_downlevel.obj
 0002:00012ea4       $unwind$LanguageEnumProc   0000000180076ea4     LIBCMTD:getqloc_downlevel.obj
 0002:00012eb4       $unwind$GetLcidFromCountry 0000000180076eb4     LIBCMTD:getqloc_downlevel.obj
 0002:00012ebc       $unwind$CountryEnumProc    0000000180076ebc     LIBCMTD:getqloc_downlevel.obj
 0002:00012ecc       $unwind$GetLcidFromDefault 0000000180076ecc     LIBCMTD:getqloc_downlevel.obj
 0002:00012ed4       $unwind$ProcessCodePage    0000000180076ed4     LIBCMTD:getqloc_downlevel.obj
 0002:00012edc       $unwind$TestDefaultCountry 0000000180076edc     LIBCMTD:getqloc_downlevel.obj
 0002:00012ee4       $unwind$TestDefaultLanguage 0000000180076ee4     LIBCMTD:getqloc_downlevel.obj
 0002:00012eec       $unwind$LcidFromHexString  0000000180076eec     LIBCMTD:getqloc_downlevel.obj
 0002:00012ef4       $unwind$GetPrimaryLen      0000000180076ef4     LIBCMTD:getqloc_downlevel.obj
 0002:00012efc       $unwind$iswctype           0000000180076efc     LIBCMTD:iswctype.obj
 0002:00012f04       $unwind$_iswctype_l        0000000180076f04     LIBCMTD:iswctype.obj
 0002:00012f0c       $unwind$is_wctype          0000000180076f0c     LIBCMTD:iswctype.obj
 0002:00012f14       $unwind$__mtold12          0000000180076f14     LIBCMTD:mantold.obj
 0002:00012f28       $unwind$_vscwprintf_p      0000000180076f28     LIBCMTD:vswprint.obj
 0002:00012f30       $unwind$_vscwprintf_p_l    0000000180076f30     LIBCMTD:vswprint.obj
 0002:00012f38       $unwind$_vswprintf         0000000180076f38     LIBCMTD:vswprint.obj
 0002:00012f40       $unwind$__vswprintf_l      0000000180076f40     LIBCMTD:vswprint.obj
 0002:00012f48       $unwind$_vscwprintf        0000000180076f48     LIBCMTD:vswprint.obj
 0002:00012f50       $unwind$_vscwprintf_l      0000000180076f50     LIBCMTD:vswprint.obj
 0002:00012f58       $unwind$_vswprintf_l       0000000180076f58     LIBCMTD:vswprint.obj
 0002:00012f64       $unwind$_vscwprintf_helper 0000000180076f64     LIBCMTD:vswprint.obj
 0002:00012f6c       $unwind$vswprintf_s        0000000180076f6c     LIBCMTD:vswprnc.obj
 0002:00012f74       $unwind$_vswprintf_c       0000000180076f74     LIBCMTD:vswprnc.obj
 0002:00012f7c       $unwind$_vsnwprintf_s      0000000180076f7c     LIBCMTD:vswprnc.obj
 0002:00012f84       $unwind$_vswprintf_p       0000000180076f84     LIBCMTD:vswprnc.obj
 0002:00012f8c       $unwind$_vswprintf_c_l     0000000180076f8c     LIBCMTD:vswprnc.obj
 0002:00012f94       $unwind$_vswprintf_p_l     0000000180076f94     LIBCMTD:vswprnc.obj
 0002:00012f9c       $unwind$_vswprintf_s_l     0000000180076f9c     LIBCMTD:vswprnc.obj
 0002:00012fa4       $unwind$_vsnwprintf_s_l    0000000180076fa4     LIBCMTD:vswprnc.obj
 0002:00012fac       $unwind$_vswprintf_helper  0000000180076fac     LIBCMTD:vswprnc.obj
 0002:00012fb8       $unwind$_woutput_l         0000000180076fb8     LIBCMTD:woutput.obj
 0002:00012fc8       $unwind$write_char         0000000180076fc8     LIBCMTD:woutput.obj
 0002:00012fd0       $unwind$write_multi_char   0000000180076fd0     LIBCMTD:woutput.obj
 0002:00012fd8       $unwind$write_string       0000000180076fd8     LIBCMTD:woutput.obj
 0002:00012fe0       $unwind$strcat_s           0000000180076fe0     LIBCMTD:strcat_s.obj
 0002:00012fe8       $unwind$_itoa_s            0000000180076fe8     LIBCMTD:xtoas.obj
 0002:00012ff0       $unwind$_i64toa_s          0000000180076ff0     LIBCMTD:xtoas.obj
 0002:00012ff8       $unwind$_ui64toa_s         0000000180076ff8     LIBCMTD:xtoas.obj
 0002:00013000       $unwind$_ltoa_s            0000000180077000     LIBCMTD:xtoas.obj
 0002:00013008       $unwind$_ultoa_s           0000000180077008     LIBCMTD:xtoas.obj
 0002:00013010       $unwind$xtoa_s             0000000180077010     LIBCMTD:xtoas.obj
 0002:00013018       $unwind$x64toa_s           0000000180077018     LIBCMTD:xtoas.obj
 0002:00013020       $unwind$mbstowcs_s         0000000180077020     LIBCMTD:mbstowcs.obj
 0002:00013028       $unwind$mbstowcs           0000000180077028     LIBCMTD:mbstowcs.obj
 0002:00013030       $unwind$_mbstowcs_s_l      0000000180077030     LIBCMTD:mbstowcs.obj
 0002:00013038       $unwind$_mbstowcs_l        0000000180077038     LIBCMTD:mbstowcs.obj
 0002:00013040       $unwind$_mbstowcs_l_helper 0000000180077040     LIBCMTD:mbstowcs.obj
 0002:00013048       $unwind$wcstombs_s         0000000180077048     LIBCMTD:wcstombs.obj
 0002:00013050       $unwind$wcstombs           0000000180077050     LIBCMTD:wcstombs.obj
 0002:00013058       $unwind$_wcstombs_s_l      0000000180077058     LIBCMTD:wcstombs.obj
 0002:00013060       $unwind$_wcstombs_l        0000000180077060     LIBCMTD:wcstombs.obj
 0002:00013068       $unwind$?wcsncnt@@YA_KPEB_W_K@Z 0000000180077068     LIBCMTD:wcstombs.obj
 0002:00013070       $unwind$_wcstombs_l_helper 0000000180077070     LIBCMTD:wcstombs.obj
 0002:00013080       $unwind$_itow_s            0000000180077080     LIBCMTD:xtows.obj
 0002:00013088       $unwind$_ltow_s            0000000180077088     LIBCMTD:xtows.obj
 0002:00013090       $unwind$_ultow_s           0000000180077090     LIBCMTD:xtows.obj
 0002:00013098       $unwind$_i64tow_s          0000000180077098     LIBCMTD:xtows.obj
 0002:000130a0       $unwind$_ui64tow_s         00000001800770a0     LIBCMTD:xtows.obj
 0002:000130a8       $unwind$xtow_s             00000001800770a8     LIBCMTD:xtows.obj
 0002:000130b0       $unwind$x64tow_s           00000001800770b0     LIBCMTD:xtows.obj
 0002:000130b8       $unwind$__GSHandlerCheck_SEH 00000001800770b8     LIBCMTD:gshandlerseh.obj
 0002:000130c0       $unwind$_commit            00000001800770c0     LIBCMTD:commit.obj
 0002:000130e0       $unwind$_commit$fin$0      00000001800770e0     LIBCMTD:commit.obj
 0002:000130e8       $unwind$_write             00000001800770e8     LIBCMTD:write.obj
 0002:00013108       $unwind$_write$fin$0       0000000180077108     LIBCMTD:write.obj
 0002:00013110       $unwind$_write_nolock      0000000180077110     LIBCMTD:write.obj
 0002:00013120       $unwind$fclose             0000000180077120     LIBCMTD:fclose.obj
 0002:00013140       $unwind$fclose$fin$0       0000000180077140     LIBCMTD:fclose.obj
 0002:00013148       $unwind$_fclose_nolock     0000000180077148     LIBCMTD:fclose.obj
 0002:00013150       $unwind$_lseeki64          0000000180077150     LIBCMTD:lseeki64.obj
 0002:00013170       $unwind$_lseeki64$fin$0    0000000180077170     LIBCMTD:lseeki64.obj
 0002:00013178       $unwind$_lseeki64_nolock   0000000180077178     LIBCMTD:lseeki64.obj
 0002:00013180       $unwind$_getbuf            0000000180077180     LIBCMTD:_getbuf.obj
 0002:00013188       $unwind$_output_p_l        0000000180077188     LIBCMTD:outputp.obj
 0002:00013198       $unwind$_validate_param_reuseA 0000000180077198     LIBCMTD:outputp.obj
 0002:000131a0       $unwind$write_char         00000001800771a0     LIBCMTD:outputp.obj
 0002:000131a8       $unwind$write_multi_char   00000001800771a8     LIBCMTD:outputp.obj
 0002:000131b0       $unwind$write_string       00000001800771b0     LIBCMTD:outputp.obj
 0002:000131b8       $unwind$get_crtdouble_arg  00000001800771b8     LIBCMTD:outputp.obj
 0002:000131c0       $unwind$_output_s_l        00000001800771c0     LIBCMTD:outputs.obj
 0002:000131d0       $unwind$write_char         00000001800771d0     LIBCMTD:outputs.obj
 0002:000131d8       $unwind$write_multi_char   00000001800771d8     LIBCMTD:outputs.obj
 0002:000131e0       $unwind$write_string       00000001800771e0     LIBCMTD:outputs.obj
 0002:000131e8       $unwind$printf             00000001800771e8     LIBCMTD:printf.obj
 0002:00013208       $unwind$printf$fin$0       0000000180077208     LIBCMTD:printf.obj
 0002:00013210       $unwind$printf_s           0000000180077210     LIBCMTD:printf.obj
 0002:00013218       $unwind$_printf_p          0000000180077218     LIBCMTD:printf.obj
 0002:00013220       $unwind$_set_printf_count_output 0000000180077220     LIBCMTD:printf.obj
 0002:00013228       $unwind$_get_printf_count_output 0000000180077228     LIBCMTD:printf.obj
 0002:00013230       $unwind$_printf_l          0000000180077230     LIBCMTD:printf.obj
 0002:00013238       $unwind$_printf_p_l        0000000180077238     LIBCMTD:printf.obj
 0002:00013240       $unwind$_printf_s_l        0000000180077240     LIBCMTD:printf.obj
 0002:00013248       $unwind$wctomb             0000000180077248     LIBCMTD:wctomb.obj
 0002:00013250       $unwind$_wctomb_l          0000000180077250     LIBCMTD:wctomb.obj
 0002:00013258       $unwind$wctomb_s           0000000180077258     LIBCMTD:wctomb.obj
 0002:00013260       $unwind$_wctomb_s_l        0000000180077260     LIBCMTD:wctomb.obj
 0002:00013268       $unwind$??3@YAXPEAX@Z      0000000180077268     LIBCMTD:dbgdel.obj
 0002:00013288       $unwind$?fin$0@?0???3@YAXPEAX@Z@4HA 0000000180077288     LIBCMTD:dbgdel.obj
 0002:00013290       $xdatasym                  0000000180077290     LIBCMTD:strcmp.obj
 0002:00013294       $unwind$?_ValidateRead@@YAHPEBXI@Z 0000000180077294     LIBCMTD:validate.obj
 0002:0001329c       $unwind$?_ValidateWrite@@YAHPEAXI@Z 000000018007729c     LIBCMTD:validate.obj
 0002:000132a4       $unwind$?_ValidateExecute@@YAHP6A_JXZ@Z 00000001800772a4     LIBCMTD:validate.obj
 0002:000132b0       $xdatasym                  00000001800772b0     LIBCMTD:handlers.obj
 0002:000132b8       $unwind$??1type_info@@UEAA@XZ 00000001800772b8     LIBCMTD:typinfo.obj
 0002:000132c0       $unwind$??8type_info@@QEBA_NAEBV0@@Z 00000001800772c0     LIBCMTD:typinfo.obj
 0002:000132c8       $unwind$??9type_info@@QEBA_NAEBV0@@Z 00000001800772c8     LIBCMTD:typinfo.obj
 0002:000132d0       $unwind$?before@type_info@@QEBA_NAEBV1@@Z 00000001800772d0     LIBCMTD:typinfo.obj
 0002:000132d8       $unwind$?name@type_info@@QEBAPEBDPEAU__type_info_node@@@Z 00000001800772d8     LIBCMTD:typinfo.obj
 0002:000132e0       $unwind$?_type_info_dtor_internal_method@type_info@@QEAAXXZ 00000001800772e0     LIBCMTD:typinfo.obj
 0002:000132e8       $unwind$?_name_internal_method@type_info@@QEBAPEBDPEAU__type_info_node@@@Z 00000001800772e8     LIBCMTD:typinfo.obj
 0002:000132f0       $unwind$??_Gtype_info@@UEAAPEAXI@Z 00000001800772f0     LIBCMTD:typinfo.obj
 0002:000132f8       $unwind$??0exception@std@@QEAA@AEBQEBD@Z 00000001800772f8     LIBCMTD:stdexcpt.obj
 0002:00013300       $unwind$??0exception@std@@QEAA@AEBV01@@Z 0000000180077300     LIBCMTD:stdexcpt.obj
 0002:00013308       $unwind$??4exception@std@@QEAAAEAV01@AEBV01@@Z 0000000180077308     LIBCMTD:stdexcpt.obj
 0002:00013310       $unwind$??1exception@std@@UEAA@XZ 0000000180077310     LIBCMTD:stdexcpt.obj
 0002:00013318       $unwind$?what@exception@std@@UEBAPEBDXZ 0000000180077318     LIBCMTD:stdexcpt.obj
 0002:00013320       $unwind$?_Copy_str@exception@std@@AEAAXPEBD@Z 0000000180077320     LIBCMTD:stdexcpt.obj
 0002:00013328       $unwind$?_Tidy@exception@std@@AEAAXXZ 0000000180077328     LIBCMTD:stdexcpt.obj
 0002:00013330       $unwind$??_Gexception@std@@UEAAPEAXI@Z 0000000180077330     LIBCMTD:stdexcpt.obj
 0002:00013338       $unwind$??0bad_cast@std@@QEAA@PEBD@Z 0000000180077338     LIBCMTD:stdexcpt.obj
 0002:00013340       $unwind$??0bad_cast@std@@QEAA@AEBV01@@Z 0000000180077340     LIBCMTD:stdexcpt.obj
 0002:00013348       $unwind$??1bad_cast@std@@UEAA@XZ 0000000180077348     LIBCMTD:stdexcpt.obj
 0002:00013350       $unwind$??_Gbad_cast@std@@UEAAPEAXI@Z 0000000180077350     LIBCMTD:stdexcpt.obj
 0002:00013358       $unwind$??0bad_typeid@std@@QEAA@PEBD@Z 0000000180077358     LIBCMTD:stdexcpt.obj
 0002:00013360       $unwind$??0bad_typeid@std@@QEAA@AEBV01@@Z 0000000180077360     LIBCMTD:stdexcpt.obj
 0002:00013368       $unwind$??1bad_typeid@std@@UEAA@XZ 0000000180077368     LIBCMTD:stdexcpt.obj
 0002:00013370       $unwind$??_Gbad_typeid@std@@UEAAPEAXI@Z 0000000180077370     LIBCMTD:stdexcpt.obj
 0002:00013378       $unwind$??0__non_rtti_object@std@@QEAA@PEBD@Z 0000000180077378     LIBCMTD:stdexcpt.obj
 0002:00013380       $unwind$??0__non_rtti_object@std@@QEAA@AEBV01@@Z 0000000180077380     LIBCMTD:stdexcpt.obj
 0002:00013388       $unwind$??1__non_rtti_object@std@@UEAA@XZ 0000000180077388     LIBCMTD:stdexcpt.obj
 0002:00013390       $unwind$??_G__non_rtti_object@std@@UEAAPEAXI@Z 0000000180077390     LIBCMTD:stdexcpt.obj
 0002:00013398       $unwind$_CxxThrowException 0000000180077398     LIBCMTD:throw.obj
 0002:000133a4       $unwind$_wtoi              00000001800773a4     LIBCMTD:wtox.obj
 0002:000133ac       $unwind$_wtoi_l            00000001800773ac     LIBCMTD:wtox.obj
 0002:000133b4       $unwind$_wtol              00000001800773b4     LIBCMTD:wtox.obj
 0002:000133bc       $unwind$_wtol_l            00000001800773bc     LIBCMTD:wtox.obj
 0002:000133c4       $unwind$_wtoll             00000001800773c4     LIBCMTD:wtox.obj
 0002:000133cc       $unwind$_wtoll_l           00000001800773cc     LIBCMTD:wtox.obj
 0002:000133d4       $unwind$_wtoi64            00000001800773d4     LIBCMTD:wtox.obj
 0002:000133dc       $unwind$_wtoi64_l          00000001800773dc     LIBCMTD:wtox.obj
 0002:000133e4       $unwind$wcschr             00000001800773e4     LIBCMTD:wcschr.obj
 0002:000133ec       $unwind$_wcsicmp           00000001800773ec     LIBCMTD:wcsicmp.obj
 0002:000133f4       $unwind$_wcsicmp_l         00000001800773f4     LIBCMTD:wcsicmp.obj
 0002:000133fc       $unwind$_wcsnicmp          00000001800773fc     LIBCMTD:wcsnicmp.obj
 0002:00013404       $unwind$_wcsnicmp_l        0000000180077404     LIBCMTD:wcsnicmp.obj
 0002:0001340c       $unwind$_woutput_p_l       000000018007740c     LIBCMTD:woutputp.obj
 0002:0001341c       $unwind$_validate_param_reuseW 000000018007741c     LIBCMTD:woutputp.obj
 0002:00013424       $unwind$write_char         0000000180077424     LIBCMTD:woutputp.obj
 0002:0001342c       $unwind$write_multi_char   000000018007742c     LIBCMTD:woutputp.obj
 0002:00013434       $unwind$write_string       0000000180077434     LIBCMTD:woutputp.obj
 0002:0001343c       $unwind$_woutput_s_l       000000018007743c     LIBCMTD:woutputs.obj
 0002:0001344c       $unwind$write_char         000000018007744c     LIBCMTD:woutputs.obj
 0002:00013454       $unwind$write_multi_char   0000000180077454     LIBCMTD:woutputs.obj
 0002:0001345c       $unwind$write_string       000000018007745c     LIBCMTD:woutputs.obj
 0002:00013464       $unwind$fputwc             0000000180077464     LIBCMTD:fputwc.obj
 0002:00013484       $unwind$fputwc$fin$0       0000000180077484     LIBCMTD:fputwc.obj
 0002:0001348c       $unwind$putwc              000000018007748c     LIBCMTD:fputwc.obj
 0002:00013494       $unwind$_fputwc_nolock     0000000180077494     LIBCMTD:fputwc.obj
 0002:000134a4       $unwind$mbtowc             00000001800774a4     LIBCMTD:mbtowc.obj
 0002:000134ac       $unwind$_mbtowc_l          00000001800774ac     LIBCMTD:mbtowc.obj
 0002:000134b4       $unwind$_alloc_osfhnd      00000001800774b4     LIBCMTD:osfinfo.obj
 0002:000134e4       $unwind$_alloc_osfhnd$fin$0 00000001800774e4     LIBCMTD:osfinfo.obj
 0002:000134ec       $unwind$_alloc_osfhnd$fin$1 00000001800774ec     LIBCMTD:osfinfo.obj
 0002:000134f4       $unwind$_free_osfhnd       00000001800774f4     LIBCMTD:osfinfo.obj
 0002:000134fc       $unwind$_set_osfhnd        00000001800774fc     LIBCMTD:osfinfo.obj
 0002:00013504       $unwind$__lock_fhandle     0000000180077504     LIBCMTD:osfinfo.obj
 0002:00013524       $unwind$__lock_fhandle$fin$0 0000000180077524     LIBCMTD:osfinfo.obj
 0002:0001352c       $unwind$_unlock_fhandle    000000018007752c     LIBCMTD:osfinfo.obj
 0002:00013534       $unwind$_get_osfhandle     0000000180077534     LIBCMTD:osfinfo.obj
 0002:0001353c       $unwind$_open_osfhandle    000000018007753c     LIBCMTD:osfinfo.obj
 0002:0001355c       $unwind$_open_osfhandle$fin$0 000000018007755c     LIBCMTD:osfinfo.obj
 0002:00013564       $unwind$_putwch            0000000180077564     LIBCMTD:putwch.obj
 0002:00013584       $unwind$_putwch$fin$0      0000000180077584     LIBCMTD:putwch.obj
 0002:0001358c       $unwind$_putwch_nolock     000000018007758c     LIBCMTD:putwch.obj
 0002:00013594       $unwind$_close             0000000180077594     LIBCMTD:close.obj
 0002:000135b4       $unwind$_close$fin$0       00000001800775b4     LIBCMTD:close.obj
 0002:000135bc       $unwind$_close_nolock      00000001800775bc     LIBCMTD:close.obj
 0002:000135c4       $unwind$_freebuf           00000001800775c4     LIBCMTD:_freebuf.obj
 0002:000135cc       $unwind$strtol             00000001800775cc     LIBCMTD:strtol.obj
 0002:000135d4       $unwind$_strtol_l          00000001800775d4     LIBCMTD:strtol.obj
 0002:000135dc       $unwind$strtoul            00000001800775dc     LIBCMTD:strtol.obj
 0002:000135e4       $unwind$_strtoul_l         00000001800775e4     LIBCMTD:strtol.obj
 0002:000135ec       $unwind$?strtoxl@@YAKPEAUlocaleinfo_struct@@PEBDPEAPEBDHH@Z 00000001800775ec     LIBCMTD:strtol.obj
 0002:000135fc       $stateUnwindMap$?strtoxl@@YAKPEAUlocaleinfo_struct@@PEBDPEAPEBDHH@Z 00000001800775fc     LIBCMTD:strtol.obj
 0002:00013604       $ip2state$?strtoxl@@YAKPEAUlocaleinfo_struct@@PEBDPEAPEBDHH@Z 0000000180077604     LIBCMTD:strtol.obj
 0002:0001364c       $unwind$?dtor$0@?0??strtoxl@@YAKPEAUlocaleinfo_struct@@PEBDPEAPEBDHH@Z@4HA 000000018007764c     LIBCMTD:strtol.obj
 0002:00013654       $unwind$vprintf            0000000180077654     LIBCMTD:vprintf.obj
 0002:0001365c       $unwind$vprintf_s          000000018007765c     LIBCMTD:vprintf.obj
 0002:00013664       $unwind$_vprintf_p         0000000180077664     LIBCMTD:vprintf.obj
 0002:0001366c       $unwind$_vprintf_l         000000018007766c     LIBCMTD:vprintf.obj
 0002:00013674       $unwind$_vprintf_p_l       0000000180077674     LIBCMTD:vprintf.obj
 0002:0001367c       $unwind$_vprintf_s_l       000000018007767c     LIBCMTD:vprintf.obj
 0002:00013684       $unwind$vprintf_helper     0000000180077684     LIBCMTD:vprintf.obj
 0002:000136a4       $unwind$vprintf_helper$fin$0 00000001800776a4     LIBCMTD:vprintf.obj
 0002:000136ac       $unwind$?_Name_base@type_info@@CAPEBDPEBV1@PEAU__type_info_node@@@Z 00000001800776ac     LIBCMTD:typname.obj
 0002:000136cc       $unwind$?fin$0@?0??_Name_base@type_info@@CAPEBDPEBV1@PEAU__type_info_node@@@Z@4HA 00000001800776cc     LIBCMTD:typname.obj
 0002:000136d4       $unwind$?_Type_info_dtor@type_info@@CAXPEAV1@@Z 00000001800776d4     LIBCMTD:typname.obj
 0002:000136f4       $unwind$?fin$0@?0??_Type_info_dtor@type_info@@CAXPEAV1@@Z@4HA 00000001800776f4     LIBCMTD:typname.obj
 0002:000136fc       $unwind$?_Name_base_internal@type_info@@CAPEBDPEBV1@PEAU__type_info_node@@@Z 00000001800776fc     LIBCMTD:typname.obj
 0002:0001371c       $unwind$?fin$0@?0??_Name_base_internal@type_info@@CAPEBDPEBV1@PEAU__type_info_node@@@Z@4HA 000000018007771c     LIBCMTD:typname.obj
 0002:00013724       $unwind$?_Type_info_dtor_internal@type_info@@CAXPEAV1@@Z 0000000180077724     LIBCMTD:typname.obj
 0002:00013744       $unwind$?fin$0@?0??_Type_info_dtor_internal@type_info@@CAXPEAV1@@Z@4HA 0000000180077744     LIBCMTD:typname.obj
 0002:0001374c       $unwind$__unDNameHelper    000000018007774c     LIBCMTD:typname.obj
 0002:00013754       $unwind$__clean_type_info_names_internal 0000000180077754     LIBCMTD:typname.obj
 0002:00013774       $unwind$__clean_type_info_names_internal$fin$0 0000000180077774     LIBCMTD:typname.obj
 0002:0001377c       $unwind$wcstol             000000018007777c     LIBCMTD:wcstol.obj
 0002:00013784       $unwind$_wcstol_l          0000000180077784     LIBCMTD:wcstol.obj
 0002:0001378c       $unwind$wcstoul            000000018007778c     LIBCMTD:wcstol.obj
 0002:00013794       $unwind$_wcstoul_l         0000000180077794     LIBCMTD:wcstol.obj
 0002:0001379c       $unwind$?wcstoxl@@YAKPEB_WPEAPEB_WHH@Z 000000018007779c     LIBCMTD:wcstol.obj
 0002:000137a4       $unwind$wcstoll            00000001800777a4     LIBCMTD:wcstoq.obj
 0002:000137ac       $unwind$_wcstoll_l         00000001800777ac     LIBCMTD:wcstoq.obj
 0002:000137b4       $unwind$wcstoull           00000001800777b4     LIBCMTD:wcstoq.obj
 0002:000137bc       $unwind$_wcstoull_l        00000001800777bc     LIBCMTD:wcstoq.obj
 0002:000137c4       $unwind$wcstold            00000001800777c4     LIBCMTD:wcstoq.obj
 0002:000137cc       $unwind$_wcstold_l         00000001800777cc     LIBCMTD:wcstoq.obj
 0002:000137d4       $unwind$wcstof             00000001800777d4     LIBCMTD:wcstoq.obj
 0002:000137dc       $unwind$_wcstof_l          00000001800777dc     LIBCMTD:wcstoq.obj
 0002:000137e4       $unwind$_wcstoi64          00000001800777e4     LIBCMTD:wcstoq.obj
 0002:000137ec       $unwind$_wcstoi64_l        00000001800777ec     LIBCMTD:wcstoq.obj
 0002:000137f4       $unwind$_wcstoui64         00000001800777f4     LIBCMTD:wcstoq.obj
 0002:000137fc       $unwind$_wcstoui64_l       00000001800777fc     LIBCMTD:wcstoq.obj
 0002:00013804       $unwind$?wcstoxq@@YA_KPEAUlocaleinfo_struct@@PEB_WPEAPEB_WHH@Z 0000000180077804     LIBCMTD:wcstoq.obj
 0002:00013814       $stateUnwindMap$?wcstoxq@@YA_KPEAUlocaleinfo_struct@@PEB_WPEAPEB_WHH@Z 0000000180077814     LIBCMTD:wcstoq.obj
 0002:0001381c       $ip2state$?wcstoxq@@YA_KPEAUlocaleinfo_struct@@PEB_WPEAPEB_WHH@Z 000000018007781c     LIBCMTD:wcstoq.obj
 0002:00013864       $unwind$?dtor$0@?0??wcstoxq@@YA_KPEAUlocaleinfo_struct@@PEB_WPEAPEB_WHH@Z@4HA 0000000180077864     LIBCMTD:wcstoq.obj
 0002:0001386c       $unwind$wcstoimax          000000018007786c     LIBCMTD:wcstoq.obj
 0002:00013874       $unwind$_wcstoimax_l       0000000180077874     LIBCMTD:wcstoq.obj
 0002:0001387c       $unwind$wcstoumax          000000018007787c     LIBCMTD:wcstoq.obj
 0002:00013884       $unwind$_wcstoumax_l       0000000180077884     LIBCMTD:wcstoq.obj
 0002:0001388c       $unwind$towlower           000000018007788c     LIBCMTD:towlower.obj
 0002:00013894       $unwind$_towlower_l        0000000180077894     LIBCMTD:towlower.obj
 0002:0001389c       $unwind$_flswbuf           000000018007789c     LIBCMTD:_flswbuf.obj
 0002:000138a4       $unwind$__initconout       00000001800778a4     LIBCMTD:initcon.obj
 0002:000138ac       $unwind$__termconout       00000001800778ac     LIBCMTD:initcon.obj
 0002:000138b4       $unwind$__unDName          00000001800778b4     LIBCMTD:undname.obj
 0002:000138d4       $unwind$__unDName$fin$0    00000001800778d4     LIBCMTD:undname.obj
 0002:000138dc       $unwind$__unDNameEx        00000001800778dc     LIBCMTD:undname.obj
 0002:000138fc       $unwind$__unDNameEx$fin$0  00000001800778fc     LIBCMTD:undname.obj
 0002:00013904       $unwind$?und_strlen@@YAIPEBD@Z 0000000180077904     LIBCMTD:undname.obj
 0002:0001390c       $unwind$?und_memcpy@@YAXPEADPEBDI@Z 000000018007790c     LIBCMTD:undname.obj
 0002:00013914       $unwind$?getMemory@_HeapManager@@QEAAPEAX_KH@Z 0000000180077914     LIBCMTD:undname.obj
 0002:0001391c       $unwind$?Destructor@_HeapManager@@QEAAXXZ 000000018007791c     LIBCMTD:undname.obj
 0002:00013924       $unwind$??2@YAPEAX_KAEAV_HeapManager@@H@Z 0000000180077924     LIBCMTD:undname.obj
 0002:0001392c       $unwind$??0DName@@QEAA@D@Z 000000018007792c     LIBCMTD:undname.obj
 0002:00013934       $unwind$??0DName@@QEAA@AEBV0@@Z 0000000180077934     LIBCMTD:undname.obj
 0002:0001393c       $unwind$??0DName@@QEAA@PEBD@Z 000000018007793c     LIBCMTD:undname.obj
 0002:00013944       $unwind$??0DName@@QEAA@AEAPEBDD@Z 0000000180077944     LIBCMTD:undname.obj
 0002:0001394c       $unwind$??0DName@@QEAA@W4DNameStatus@@@Z 000000018007794c     LIBCMTD:undname.obj
 0002:00013954       $unwind$??0DName@@QEAA@PEAV0@@Z 0000000180077954     LIBCMTD:undname.obj
 0002:0001395c       $unwind$??0DName@@QEAA@_K@Z 000000018007795c     LIBCMTD:undname.obj
 0002:0001396c       $unwind$??0DName@@QEAA@_J@Z 000000018007796c     LIBCMTD:undname.obj
 0002:0001397c       $unwind$?isValid@DName@@QEBAHXZ 000000018007797c     LIBCMTD:undname.obj
 0002:00013984       $unwind$?isEmpty@DName@@QEBAHXZ 0000000180077984     LIBCMTD:undname.obj
 0002:0001398c       $unwind$?isUDC@DName@@QEBAHXZ 000000018007798c     LIBCMTD:undname.obj
 0002:00013994       $unwind$?setIsUDC@DName@@QEAAXXZ 0000000180077994     LIBCMTD:undname.obj
 0002:0001399c       $unwind$?isUDTThunk@DName@@QEBAHXZ 000000018007799c     LIBCMTD:undname.obj
 0002:000139a4       $unwind$?length@DName@@QEBAHXZ 00000001800779a4     LIBCMTD:undname.obj
 0002:000139ac       $unwind$?getLastChar@DName@@QEBADXZ 00000001800779ac     LIBCMTD:undname.obj
 0002:000139b4       $unwind$?getString@DName@@QEBAPEADPEADH@Z 00000001800779b4     LIBCMTD:undname.obj
 0002:000139bc       $unwind$?getString@DName@@QEBAPEADPEAD0@Z 00000001800779bc     LIBCMTD:undname.obj
 0002:000139c4       $unwind$?dbGetString@DName@@QEBAPEADXZ 00000001800779c4     LIBCMTD:undname.obj
 0002:000139cc       $unwind$??HDName@@QEBA?AV0@PEBD@Z 00000001800779cc     LIBCMTD:undname.obj
 0002:000139d4       $unwind$??HDName@@QEBA?AV0@AEBV0@@Z 00000001800779d4     LIBCMTD:undname.obj
 0002:000139dc       $unwind$??HDName@@QEBA?AV0@D@Z 00000001800779dc     LIBCMTD:undname.obj
 0002:000139e4       $unwind$??HDName@@QEBA?AV0@PEAV0@@Z 00000001800779e4     LIBCMTD:undname.obj
 0002:000139ec       $unwind$??HDName@@QEBA?AV0@W4DNameStatus@@@Z 00000001800779ec     LIBCMTD:undname.obj
 0002:000139f4       $unwind$??YDName@@QEAAAEAV0@D@Z 00000001800779f4     LIBCMTD:undname.obj
 0002:000139fc       $unwind$??YDName@@QEAAAEAV0@PEBD@Z 00000001800779fc     LIBCMTD:undname.obj
 0002:00013a04       $unwind$??YDName@@QEAAAEAV0@PEAV0@@Z 0000000180077a04     LIBCMTD:undname.obj
 0002:00013a0c       $unwind$??YDName@@QEAAAEAV0@W4DNameStatus@@@Z 0000000180077a0c     LIBCMTD:undname.obj
 0002:00013a14       $unwind$??YDName@@QEAAAEAV0@AEBV0@@Z 0000000180077a14     LIBCMTD:undname.obj
 0002:00013a1c       $unwind$??_5DName@@QEAAAEAV0@AEBV0@@Z 0000000180077a1c     LIBCMTD:undname.obj
 0002:00013a24       $unwind$??4DName@@QEAAAEAV0@PEBD@Z 0000000180077a24     LIBCMTD:undname.obj
 0002:00013a2c       $unwind$??4DName@@QEAAAEAV0@AEBV0@@Z 0000000180077a2c     LIBCMTD:undname.obj
 0002:00013a34       $unwind$??4DName@@QEAAAEAV0@D@Z 0000000180077a34     LIBCMTD:undname.obj
 0002:00013a3c       $unwind$??4DName@@QEAAAEAV0@PEAV0@@Z 0000000180077a3c     LIBCMTD:undname.obj
 0002:00013a44       $unwind$??4DName@@QEAAAEAV0@W4DNameStatus@@@Z 0000000180077a44     LIBCMTD:undname.obj
 0002:00013a4c       $unwind$??H@YA?AVDName@@DAEBV0@@Z 0000000180077a4c     LIBCMTD:undname.obj
 0002:00013a54       $unwind$??H@YA?AVDName@@PEBDAEBV0@@Z 0000000180077a54     LIBCMTD:undname.obj
 0002:00013a5c       $unwind$??H@YA?AVDName@@W4DNameStatus@@AEBV0@@Z 0000000180077a5c     LIBCMTD:undname.obj
 0002:00013a64       $unwind$?append@DName@@AEAAXPEAVDNameNode@@@Z 0000000180077a64     LIBCMTD:undname.obj
 0002:00013a6c       $unwind$?doPchar@DName@@AEAAXPEBDH@Z 0000000180077a6c     LIBCMTD:undname.obj
 0002:00013a74       $unwind$?isFull@Replicator@@QEBAHXZ 0000000180077a74     LIBCMTD:undname.obj
 0002:00013a7c       $unwind$??YReplicator@@QEAAAEAV0@AEBVDName@@@Z 0000000180077a7c     LIBCMTD:undname.obj
 0002:00013a84       $unwind$??AReplicator@@QEBA?AVDName@@H@Z 0000000180077a84     LIBCMTD:undname.obj
 0002:00013a8c       $unwind$?getDecoratedName@UnDecorator@@CA?AVDName@@XZ 0000000180077a8c     LIBCMTD:undname.obj
 0002:00013a94       $unwind$?getSymbolName@UnDecorator@@CA?AVDName@@XZ 0000000180077a94     LIBCMTD:undname.obj
 0002:00013a9c       $unwind$?getZName@UnDecorator@@CA?AVDName@@_N0@Z 0000000180077a9c     LIBCMTD:undname.obj
 0002:00013aac       $unwind$?getOperatorName@UnDecorator@@CA?AVDName@@_NPEA_N@Z 0000000180077aac     LIBCMTD:undname.obj
 0002:00013ab4       $unwind$?getScope@UnDecorator@@CA?AVDName@@XZ 0000000180077ab4     LIBCMTD:undname.obj
 0002:00013abc       $unwind$?getScopedName@UnDecorator@@CA?AVDName@@XZ 0000000180077abc     LIBCMTD:undname.obj
 0002:00013ac4       $unwind$?getSignedDimension@UnDecorator@@CA?AVDName@@XZ 0000000180077ac4     LIBCMTD:undname.obj
 0002:00013acc       $unwind$?getDimension@UnDecorator@@CA?AVDName@@_N@Z 0000000180077acc     LIBCMTD:undname.obj
 0002:00013ad4       $unwind$?getNumberOfDimensions@UnDecorator@@CAHXZ 0000000180077ad4     LIBCMTD:undname.obj
 0002:00013adc       $unwind$?getTemplateName@UnDecorator@@CA?AVDName@@_N@Z 0000000180077adc     LIBCMTD:undname.obj
 0002:00013ae4       $unwind$?getTemplateArgumentList@UnDecorator@@CA?AVDName@@XZ 0000000180077ae4     LIBCMTD:undname.obj
 0002:00013af4       $unwind$?getTemplateConstant@UnDecorator@@CA?AVDName@@XZ 0000000180077af4     LIBCMTD:undname.obj
 0002:00013b04       $unwind$?composeDeclaration@UnDecorator@@CA?AVDName@@AEBV2@@Z 0000000180077b04     LIBCMTD:undname.obj
 0002:00013b0c       $unwind$?getTypeEncoding@UnDecorator@@CAHXZ 0000000180077b0c     LIBCMTD:undname.obj
 0002:00013b14       $unwind$?getBasedType@UnDecorator@@CA?AVDName@@XZ 0000000180077b14     LIBCMTD:undname.obj
 0002:00013b1c       $unwind$?getECSUName@UnDecorator@@CA?AVDName@@XZ 0000000180077b1c     LIBCMTD:undname.obj
 0002:00013b24       $unwind$?getEnumType@UnDecorator@@CA?AVDName@@XZ 0000000180077b24     LIBCMTD:undname.obj
 0002:00013b2c       $unwind$?getCallingConvention@UnDecorator@@CA?AVDName@@XZ 0000000180077b2c     LIBCMTD:undname.obj
 0002:00013b34       $unwind$?getReturnType@UnDecorator@@CA?AVDName@@PEAV2@@Z 0000000180077b34     LIBCMTD:undname.obj
 0002:00013b3c       $unwind$?getDataType@UnDecorator@@CA?AVDName@@PEAV2@@Z 0000000180077b3c     LIBCMTD:undname.obj
 0002:00013b44       $unwind$?getPrimaryDataType@UnDecorator@@CA?AVDName@@AEBV2@@Z 0000000180077b44     LIBCMTD:undname.obj
 0002:00013b4c       $unwind$?getDataIndirectType@UnDecorator@@CA?AVDName@@AEBV2@PEBD0H@Z 0000000180077b4c     LIBCMTD:undname.obj
 0002:00013b54       $unwind$?getExtendedDataIndirectType@UnDecorator@@CA?AVDName@@AEAPEBDAEA_NH@Z 0000000180077b54     LIBCMTD:undname.obj
 0002:00013b5c       $unwind$?getDataIndirectType@UnDecorator@@CA?AVDName@@XZ 0000000180077b5c     LIBCMTD:undname.obj
 0002:00013b64       $unwind$?getBasicDataType@UnDecorator@@CA?AVDName@@AEBV2@@Z 0000000180077b64     LIBCMTD:undname.obj
 0002:00013b6c       $unwind$?getECSUDataType@UnDecorator@@CA?AVDName@@XZ 0000000180077b6c     LIBCMTD:undname.obj
 0002:00013b74       $unwind$?getPtrRefType@UnDecorator@@CA?AVDName@@AEBV2@0PEBD@Z 0000000180077b74     LIBCMTD:undname.obj
 0002:00013b7c       $unwind$?getPtrRefDataType@UnDecorator@@CA?AVDName@@AEBV2@H@Z 0000000180077b7c     LIBCMTD:undname.obj
 0002:00013b84       $unwind$?getArrayType@UnDecorator@@CA?AVDName@@AEBV2@@Z 0000000180077b84     LIBCMTD:undname.obj
 0002:00013b8c       $unwind$?getFunctionIndirectType@UnDecorator@@CA?AVDName@@AEBV2@@Z 0000000180077b8c     LIBCMTD:undname.obj
 0002:00013b94       $unwind$?getArgumentTypes@UnDecorator@@CA?AVDName@@XZ 0000000180077b94     LIBCMTD:undname.obj
 0002:00013b9c       $unwind$?getArgumentList@UnDecorator@@CA?AVDName@@XZ 0000000180077b9c     LIBCMTD:undname.obj
 0002:00013ba4       $unwind$?getThrowTypes@UnDecorator@@CA?AVDName@@XZ 0000000180077ba4     LIBCMTD:undname.obj
 0002:00013bac       $unwind$?getRestrictionSpec@UnDecorator@@CA?AVDName@@XZ 0000000180077bac     LIBCMTD:undname.obj
 0002:00013bb4       $unwind$?getDispatchTarget@UnDecorator@@CA?AVDName@@XZ 0000000180077bb4     LIBCMTD:undname.obj
 0002:00013bbc       $unwind$?getLexicalFrame@UnDecorator@@CA?AVDName@@XZ 0000000180077bbc     LIBCMTD:undname.obj
 0002:00013bc4       $unwind$?getStorageConvention@UnDecorator@@CA?AVDName@@XZ 0000000180077bc4     LIBCMTD:undname.obj
 0002:00013bcc       $unwind$?getThisType@UnDecorator@@CA?AVDName@@XZ 0000000180077bcc     LIBCMTD:undname.obj
 0002:00013bd4       $unwind$?getPointerType@UnDecorator@@CA?AVDName@@AEBV2@0@Z 0000000180077bd4     LIBCMTD:undname.obj
 0002:00013bdc       $unwind$?getPointerTypeArray@UnDecorator@@CA?AVDName@@AEBV2@0@Z 0000000180077bdc     LIBCMTD:undname.obj
 0002:00013be4       $unwind$?getReferenceType@UnDecorator@@CA?AVDName@@AEBV2@0PEBD@Z 0000000180077be4     LIBCMTD:undname.obj
 0002:00013bec       $unwind$?getExternalDataType@UnDecorator@@CA?AVDName@@AEBV2@@Z 0000000180077bec     LIBCMTD:undname.obj
 0002:00013bf4       $unwind$?getDisplacement@UnDecorator@@CA?AVDName@@XZ 0000000180077bf4     LIBCMTD:undname.obj
 0002:00013bfc       $unwind$?getCallIndex@UnDecorator@@CA?AVDName@@XZ 0000000180077bfc     LIBCMTD:undname.obj
 0002:00013c04       $unwind$?getGuardNumber@UnDecorator@@CA?AVDName@@XZ 0000000180077c04     LIBCMTD:undname.obj
 0002:00013c0c       $unwind$?getVfTableType@UnDecorator@@CA?AVDName@@AEBV2@@Z 0000000180077c0c     LIBCMTD:undname.obj
 0002:00013c14       $unwind$?getVbTableType@UnDecorator@@CA?AVDName@@AEBV2@@Z 0000000180077c14     LIBCMTD:undname.obj
 0002:00013c1c       $unwind$?getVdispMapType@UnDecorator@@CA?AVDName@@AEBV2@@Z 0000000180077c1c     LIBCMTD:undname.obj
 0002:00013c24       $unwind$?getVCallThunkType@UnDecorator@@CA?AVDName@@XZ 0000000180077c24     LIBCMTD:undname.obj
 0002:00013c2c       $unwind$?getStringEncoding@UnDecorator@@CA?AVDName@@PEADH@Z 0000000180077c2c     LIBCMTD:undname.obj
 0002:00013c34       $unwind$??0UnDecorator@@QEAA@PEADPEBDHP6APEADJ@ZK@Z 0000000180077c34     LIBCMTD:undname.obj
 0002:00013c3c       $unwind$?doUnderScore@UnDecorator@@SAHXZ 0000000180077c3c     LIBCMTD:undname.obj
 0002:00013c44       $unwind$?doMSKeywords@UnDecorator@@SAHXZ 0000000180077c44     LIBCMTD:undname.obj
 0002:00013c4c       $unwind$?doPtr64@UnDecorator@@SAHXZ 0000000180077c4c     LIBCMTD:undname.obj
 0002:00013c54       $unwind$?doFunctionReturns@UnDecorator@@SAHXZ 0000000180077c54     LIBCMTD:undname.obj
 0002:00013c5c       $unwind$?doAllocationModel@UnDecorator@@SAHXZ 0000000180077c5c     LIBCMTD:undname.obj
 0002:00013c64       $unwind$?doAllocationLanguage@UnDecorator@@SAHXZ 0000000180077c64     LIBCMTD:undname.obj
 0002:00013c6c       $unwind$?doThisTypes@UnDecorator@@SAHXZ 0000000180077c6c     LIBCMTD:undname.obj
 0002:00013c74       $unwind$?doAccessSpecifiers@UnDecorator@@SAHXZ 0000000180077c74     LIBCMTD:undname.obj
 0002:00013c7c       $unwind$?doThrowTypes@UnDecorator@@SAHXZ 0000000180077c7c     LIBCMTD:undname.obj
 0002:00013c84       $unwind$?doMemberTypes@UnDecorator@@SAHXZ 0000000180077c84     LIBCMTD:undname.obj
 0002:00013c8c       $unwind$?doEcsu@UnDecorator@@SAHXZ 0000000180077c8c     LIBCMTD:undname.obj
 0002:00013c94       $unwind$?doEllipsis@UnDecorator@@SAHXZ 0000000180077c94     LIBCMTD:undname.obj
 0002:00013c9c       $unwind$?doRestrictionSpec@UnDecorator@@SAHXZ 0000000180077c9c     LIBCMTD:undname.obj
 0002:00013ca4       $unwind$?UScore@UnDecorator@@SAPEBDW4Tokens@@@Z 0000000180077ca4     LIBCMTD:undname.obj
 0002:00013cac       $unwind$??BUnDecorator@@QEAAPEADXZ 0000000180077cac     LIBCMTD:undname.obj
 0002:00013cb4       $unwind$??0charNode@@QEAA@D@Z 0000000180077cb4     LIBCMTD:undname.obj
 0002:00013cbc       $unwind$??0pcharNode@@QEAA@PEBDH@Z 0000000180077cbc     LIBCMTD:undname.obj
 0002:00013cc4       $unwind$?getLastChar@pcharNode@@UEBADXZ 0000000180077cc4     LIBCMTD:undname.obj
 0002:00013ccc       $unwind$?getString@pcharNode@@UEBAPEADPEAD0@Z 0000000180077ccc     LIBCMTD:undname.obj
 0002:00013cd4       $unwind$??0pDNameNode@@QEAA@PEAVDName@@@Z 0000000180077cd4     LIBCMTD:undname.obj
 0002:00013cdc       $unwind$?length@pDNameNode@@UEBAHXZ 0000000180077cdc     LIBCMTD:undname.obj
 0002:00013ce4       $unwind$?getLastChar@pDNameNode@@UEBADXZ 0000000180077ce4     LIBCMTD:undname.obj
 0002:00013cec       $unwind$?getString@pDNameNode@@UEBAPEADPEAD0@Z 0000000180077cec     LIBCMTD:undname.obj
 0002:00013cf4       $unwind$??0DNameStatusNode@@AEAA@W4DNameStatus@@@Z 0000000180077cf4     LIBCMTD:undname.obj
 0002:00013cfc       $unwind$?make@DNameStatusNode@@SAPEAV1@W4DNameStatus@@@Z 0000000180077cfc     LIBCMTD:undname.obj
 0002:00013d0c       $stateUnwindMap$?make@DNameStatusNode@@SAPEAV1@W4DNameStatus@@@Z 0000000180077d0c     LIBCMTD:undname.obj
 0002:00013d14       $ip2state$?make@DNameStatusNode@@SAPEAV1@W4DNameStatus@@@Z 0000000180077d14     LIBCMTD:undname.obj
 0002:00013d2c       $unwind$?dtor$0@?0??make@DNameStatusNode@@SAPEAV1@W4DNameStatus@@@Z@4HA 0000000180077d2c     LIBCMTD:undname.obj
 0002:00013d34       $unwind$?getLastChar@DNameStatusNode@@UEBADXZ 0000000180077d34     LIBCMTD:undname.obj
 0002:00013d3c       $unwind$?getString@DNameStatusNode@@UEBAPEADPEAD0@Z 0000000180077d3c     LIBCMTD:undname.obj
 0002:00013d44       $unwind$??0pairNode@@QEAA@PEAVDNameNode@@0@Z 0000000180077d44     LIBCMTD:undname.obj
 0002:00013d4c       $unwind$?length@pairNode@@UEBAHXZ 0000000180077d4c     LIBCMTD:undname.obj
 0002:00013d54       $unwind$?getLastChar@pairNode@@UEBADXZ 0000000180077d54     LIBCMTD:undname.obj
 0002:00013d5c       $unwind$?getString@pairNode@@UEBAPEADPEAD0@Z 0000000180077d5c     LIBCMTD:undname.obj
 0002:00013d64       $unwind$?getStringHelper@@YAPEADPEAD00H@Z 0000000180077d64     LIBCMTD:undname.obj
 0002:00013d6c       $unwind$wcstod             0000000180077d6c     LIBCMTD:wcstod.obj
 0002:00013d74       $unwind$_wcstod_l          0000000180077d74     LIBCMTD:wcstod.obj
 0002:00013d84       $unwind$__crtLCMapStringW  0000000180077d84     LIBCMTD:w_map.obj
 0002:00013d8c       $unwind$_set_purecall_handler 0000000180077d8c     LIBCMTD:purevirt.obj
 0002:00013d94       $unwind$_get_purecall_handler 0000000180077d94     LIBCMTD:purevirt.obj
 0002:00013d9c       $unwind$_purecall          0000000180077d9c     LIBCMTD:purevirt.obj
 0002:00013da4       $unwind$atoi               0000000180077da4     LIBCMTD:atox.obj
 0002:00013dac       $unwind$_atoi_l            0000000180077dac     LIBCMTD:atox.obj
 0002:00013db4       $unwind$atol               0000000180077db4     LIBCMTD:atox.obj
 0002:00013dbc       $unwind$_atol_l            0000000180077dbc     LIBCMTD:atox.obj
 0002:00013dc4       $unwind$atoll              0000000180077dc4     LIBCMTD:atox.obj
 0002:00013dcc       $unwind$_atoll_l           0000000180077dcc     LIBCMTD:atox.obj
 0002:00013dd4       $unwind$_atoi64            0000000180077dd4     LIBCMTD:atox.obj
 0002:00013ddc       $unwind$_atoi64_l          0000000180077ddc     LIBCMTD:atox.obj
 0002:00013de4       $unwind$_wfltin2           0000000180077de4     LIBCMTD:wcfin.obj
 0002:00013df4       $unwind$_strtoi64          0000000180077df4     LIBCMTD:strtoq.obj
 0002:00013dfc       $unwind$_strtoi64_l        0000000180077dfc     LIBCMTD:strtoq.obj
 0002:00013e04       $unwind$_strtoui64         0000000180077e04     LIBCMTD:strtoq.obj
 0002:00013e0c       $unwind$_strtoui64_l       0000000180077e0c     LIBCMTD:strtoq.obj
 0002:00013e14       $unwind$strtoll            0000000180077e14     LIBCMTD:strtoq.obj
 0002:00013e1c       $unwind$_strtoll_l         0000000180077e1c     LIBCMTD:strtoq.obj
 0002:00013e24       $unwind$strtoull           0000000180077e24     LIBCMTD:strtoq.obj
 0002:00013e2c       $unwind$_strtoull_l        0000000180077e2c     LIBCMTD:strtoq.obj
 0002:00013e34       $unwind$strtold            0000000180077e34     LIBCMTD:strtoq.obj
 0002:00013e3c       $unwind$_strtold_l         0000000180077e3c     LIBCMTD:strtoq.obj
 0002:00013e44       $unwind$strtof             0000000180077e44     LIBCMTD:strtoq.obj
 0002:00013e4c       $unwind$_strtof_l          0000000180077e4c     LIBCMTD:strtoq.obj
 0002:00013e54       $unwind$?strtoxq@@YA_KPEAUlocaleinfo_struct@@PEBDPEAPEBDHH@Z 0000000180077e54     LIBCMTD:strtoq.obj
 0002:00013e64       $stateUnwindMap$?strtoxq@@YA_KPEAUlocaleinfo_struct@@PEBDPEAPEBDHH@Z 0000000180077e64     LIBCMTD:strtoq.obj
 0002:00013e6c       $ip2state$?strtoxq@@YA_KPEAUlocaleinfo_struct@@PEBDPEAPEBDHH@Z 0000000180077e6c     LIBCMTD:strtoq.obj
 0002:00013ea4       $unwind$?dtor$0@?0??strtoxq@@YA_KPEAUlocaleinfo_struct@@PEBDPEAPEBDHH@Z@4HA 0000000180077ea4     LIBCMTD:strtoq.obj
 0002:00013eac       $unwind$strtoimax          0000000180077eac     LIBCMTD:strtoq.obj
 0002:00013eb4       $unwind$_strtoimax_l       0000000180077eb4     LIBCMTD:strtoq.obj
 0002:00013ebc       $unwind$strtoumax          0000000180077ebc     LIBCMTD:strtoq.obj
 0002:00013ec4       $unwind$_strtoumax_l       0000000180077ec4     LIBCMTD:strtoq.obj
 0002:00013ecc       $unwind$__wstrgtold12_l    0000000180077ecc     LIBCMTD:wstrgtold.obj
 0002:00013edc       $unwind$__WSTRINGTOLD_L    0000000180077edc     LIBCMTD:wstrgtold.obj
 0002:00013eec       $unwind$strtod             0000000180077eec     LIBCMTD:strtod.obj
 0002:00013ef4       $unwind$_strtod_l          0000000180077ef4     LIBCMTD:strtod.obj
 0002:00013f04       $unwind$_fltin2            0000000180077f04     LIBCMTD:cfin.obj
 0002:00013fa0       .edata                     0000000180077fa0     handmade.exp
 0002:00013fc8       rgpv                       0000000180077fc8     handmade.exp
 0002:00013fd0       rgszName                   0000000180077fd0     handmade.exp
 0002:00013fd8       rgwOrd                     0000000180077fd8     handmade.exp
 0002:00013fdc       szName                     0000000180077fdc     handmade.exp
 0002:00013fe9       $N00001                    0000000180077fe9     handmade.exp
 0002:00013ffd       $N00002                    0000000180077ffd     handmade.exp
 0002:00014940       .idata$6                   0000000180078940     kernel32:KERNEL32.dll
 0003:000000d8       _lRequestCurr              00000001800790d8     LIBCMTD:dbgheap.obj
 0003:000000dc       _bNoMansLandFill           00000001800790dc     LIBCMTD:dbgheap.obj
 0003:000000dd       _bAlignLandFill            00000001800790dd     LIBCMTD:dbgheap.obj
 0003:000000de       _bDeadLandFill             00000001800790de     LIBCMTD:dbgheap.obj
 0003:000000df       _bCleanLandFill            00000001800790df     LIBCMTD:dbgheap.obj
 0003:000000e0       ?isPackaged@?1??__crtIsPackagedApp@@9@9 00000001800790e0     LIBCMTD:winapisupp.obj
 0003:000000f0       errtable                   00000001800790f0     LIBCMTD:dosmap.obj
 0003:00000258       ErrnoNoMem                 0000000180079258     LIBCMTD:dosmap.obj
 0003:0000025c       DoserrorNoMem              000000018007925c     LIBCMTD:dosmap.obj
 0003:00000260       _locktable                 0000000180079260     LIBCMTD:mlock.obj
 0003:00000d28       __rgctypeflag              0000000180079d28     LIBCMTD:mbctype.obj
 0003:00000d30       __rgcode_page_info         0000000180079d30     LIBCMTD:mbctype.obj
 0003:00000e30       ?_names@?1??_get_fname@@9@9 0000000180079e30     LIBCMTD:fpexcept.obj
 0003:00001000       ?dazSupported@?1??_ctrlfp@@9@9 000000018007a000     LIBCMTD:fpctrl.obj
 0003:00001010       dotdotdot                  000000018007a010     LIBCMTD:dbgrptw.obj
 0003:000013e0       dotdotdot                  000000018007a3e0     LIBCMTD:dbgrpt.obj
 0003:000014e0       _ctype_loc_style           000000018007a4e0     LIBCMTD:wsetloca.obj
 0003:000014f0       DoubleFormat               000000018007a4f0     LIBCMTD:intrncvt.obj
 0003:00001508       FloatFormat                000000018007a508     LIBCMTD:intrncvt.obj
 0003:00001a38       __proc_attached            000000018007aa38     LIBCMTD:dllcrt0.obj
 0003:00001a40       GS_ExceptionRecord         000000018007aa40     LIBCMTD:gs_report.obj
 0003:00001ae0       GS_ContextRecord           000000018007aae0     LIBCMTD:gs_report.obj
 0003:00001fb0       DebuggerWasPresent         000000018007afb0     LIBCMTD:gs_report.obj
 0003:00002220       ?_pgmname@?1??_setargv@@9@9 000000018007b220     LIBCMTD:stdargv.obj
 0003:0000232c       check_frequency            000000018007b32c     LIBCMTD:dbgheap.obj
 0003:00002338       check_counter              000000018007b338     LIBCMTD:dbgheap.obj
 0003:00002340       _lTotalAlloc               000000018007b340     LIBCMTD:dbgheap.obj
 0003:00002348       _lCurAlloc                 000000018007b348     LIBCMTD:dbgheap.obj
 0003:00002350       _lMaxAlloc                 000000018007b350     LIBCMTD:dbgheap.obj
 0003:00002358       _pFirstBlock               000000018007b358     LIBCMTD:dbgheap.obj
 0003:00002360       _pLastBlock                000000018007b360     LIBCMTD:dbgheap.obj
 0003:00002370       lclcritsects               000000018007b370     LIBCMTD:mlock.obj
 0003:000025e8       fSystemSet                 000000018007b5e8     LIBCMTD:mbctype.obj
 0003:00002610       ?outmsg@?L@??_NMSG_WRITE@@9@9 000000018007b610     LIBCMTD:crt0msg.obj
 0003:00002c50       ctrlc_action               000000018007bc50     LIBCMTD:winsig.obj
 0003:00002c58       ctrlbreak_action           000000018007bc58     LIBCMTD:winsig.obj
 0003:00002c60       abort_action               000000018007bc60     LIBCMTD:winsig.obj
 0003:00002c68       term_action                000000018007bc68     LIBCMTD:winsig.obj
 0003:00002c70       ConsoleCtrlHandler_Installed 000000018007bc70     LIBCMTD:winsig.obj
 0003:00002c78       g_pfnRtlGenRandom          000000018007bc78     LIBCMTD:rand_s.obj
 0003:00002ca8       ?pfnMessageBox@?1??__crtMessageBoxW@@9@9 000000018007bca8     LIBCMTD:crtmboxw.obj
 0003:00002cb0       ?pfnGetActiveWindow@?1??__crtMessageBoxW@@9@9 000000018007bcb0     LIBCMTD:crtmboxw.obj
 0003:00002cb8       ?pfnGetLastActivePopup@?1??__crtMessageBoxW@@9@9 000000018007bcb8     LIBCMTD:crtmboxw.obj
 0003:00002cc0       ?pfnGetProcessWindowStation@?1??__crtMessageBoxW@@9@9 000000018007bcc0     LIBCMTD:crtmboxw.obj
 0003:00002cc8       ?pfnGetUserObjectInformation@?1??__crtMessageBoxW@@9@9 000000018007bcc8     LIBCMTD:crtmboxw.obj
 0003:00002cd8       __crtCallProc              000000018007bcd8     LIBCMTD:winapinls.obj
 0003:00002ce8       __enable_percent_n         000000018007bce8     LIBCMTD:printf.obj
 0003:00002cf0       __type_info_root_node      000000018007bcf0     LIBCMTD:typname.obj
 0003:00002d48       heap                       000000018007bd48     LIBCMTD:undname.obj
 0003:00002d70       ?buf@?1??dbGetString@DName@@QEBAPEADXZ@4PADA 000000018007bd70     LIBCMTD:undname.obj
 0004:00000000       $pdata$?PushSize_@@YAPEAXPEAUmemory_arena@@_K@Z 000000018007d000     handmade.obj
 0004:0000000c       $pdata$?InitializeWorld@@YAXPEAUworld@@M@Z 000000018007d00c     handmade.obj
 0004:00000018       $pdata$?GameOutputSound@@YAXPEAUgame_state@@PEAUgame_sound_output_buffer@@H@Z 000000018007d018     handmade.obj
 0004:00000024       $pdata$?DrawRectangle@@YAXPEAUgame_offscreen_buffer@@Tv2@@1MMM@Z 000000018007d024     handmade.obj
 0004:00000030       $pdata$?DrawBitmap@@YAXPEAUgame_offscreen_buffer@@PEAUloaded_bitmap@@MMM@Z 000000018007d030     handmade.obj
 0004:0000003c       $pdata$?DEBUGLoadBMP@@YA?AUloaded_bitmap@@PEAUthread_context@@P6A?AUdebug_read_file_result@@0PEAD@Z1@Z 000000018007d03c     handmade.obj
 0004:00000048       $pdata$?AddLowEntity@@YA?AUadd_low_entity_result@@PEAUgame_state@@W4entity_type@@PEAUworld_position@@@Z 000000018007d048     handmade.obj
 0004:00000054       $pdata$?AddWall@@YA?AUadd_low_entity_result@@PEAUgame_state@@III@Z 000000018007d054     handmade.obj
 0004:00000060       $pdata$?AddPlayer@@YA?AUadd_low_entity_result@@PEAUgame_state@@@Z 000000018007d060     handmade.obj
 0004:0000006c       $pdata$?AddMonstar@@YA?AUadd_low_entity_result@@PEAUgame_state@@III@Z 000000018007d06c     handmade.obj
 0004:00000078       $pdata$?AddFamiliar@@YA?AUadd_low_entity_result@@PEAUgame_state@@III@Z 000000018007d078     handmade.obj
 0004:00000084       $pdata$?TestWall@@YAHMMMMMPEAMMM@Z 000000018007d084     handmade.obj
 0004:00000090       $pdata$?MoveEntity@@YAXPEAUgame_state@@Uentity@@MTv2@@@Z 000000018007d090     handmade.obj
 0004:0000009c       $pdata$?SetCamera@@YAXPEAUgame_state@@Uworld_position@@@Z 000000018007d09c     handmade.obj
 0004:000000a8       $pdata$?PushPiece@@YAXPEAUentity_visible_piece_group@@PEAUloaded_bitmap@@Tv2@@M2MM@Z 000000018007d0a8     handmade.obj
 0004:000000b4       $pdata$GameUpdateAndRender 000000018007d0b4     handmade.obj
 0004:000000c0       $pdata$GameGetSoundSamples 000000018007d0c0     handmade.obj
 0004:000000cc       $pdata$??D@YA?ATv2@@MT0@@Z 000000018007d0cc     handmade.obj
 0004:000000d8       $pdata$??D@YA?ATv2@@T0@M@Z 000000018007d0d8     handmade.obj
 0004:000000e4       $pdata$??G@YA?ATv2@@T0@0@Z 000000018007d0e4     handmade.obj
 0004:000000f0       $pdata$??G@YA?ATv2@@T0@@Z  000000018007d0f0     handmade.obj
 0004:000000fc       $pdata$??H@YA?ATv2@@T0@0@Z 000000018007d0fc     handmade.obj
 0004:00000108       $pdata$??X@YAAEATv2@@AEAT0@M@Z 000000018007d108     handmade.obj
 0004:00000114       $pdata$??Y@YAAEATv2@@AEAT0@T0@@Z 000000018007d114     handmade.obj
 0004:00000120       $pdata$?AbsoluteValue@@YAMM@Z 000000018007d120     handmade.obj
 0004:0000012c       $pdata$?AreInSameChunk@@YAHPEAUworld@@PEAUworld_position@@1@Z 000000018007d12c     handmade.obj
 0004:00000138       $pdata$?ChangeEntityLocation@@YAXPEAUmemory_arena@@PEAUworld@@IPEAUworld_position@@2@Z 000000018007d138     handmade.obj
 0004:00000144       $pdata$?ChunkPositionFromTilePosition@@YA?AUworld_position@@PEAUworld@@HHH@Z 000000018007d144     handmade.obj
 0004:00000150       $pdata$?EntityFromHighIndex@@YA?AUentity@@PEAUgame_state@@I@Z 000000018007d150     handmade.obj
 0004:0000015c       $pdata$?FindLeastSignificantSetBit@@YA?AUbit_scan_result@@I@Z 000000018007d15c     handmade.obj
 0004:00000168       $pdata$?ForceEntityIntoHigh@@YA?AUentity@@PEAUgame_state@@I@Z 000000018007d168     handmade.obj
 0004:00000174       $pdata$?GetCameraSpaceP@@YA?ATv2@@PEAUgame_state@@PEAUlow_entity@@@Z 000000018007d174     handmade.obj
 0004:00000180       $pdata$?GetMaxCorner@@YA?ATv2@@Urectangle2@@@Z 000000018007d180     handmade.obj
 0004:0000018c       $pdata$?GetMinCorner@@YA?ATv2@@Urectangle2@@@Z 000000018007d18c     handmade.obj
 0004:00000198       $pdata$?GetWorldChunk@@YAPEAUworld_chunk@@PEAUworld@@HHHPEAUmemory_arena@@@Z 000000018007d198     handmade.obj
 0004:000001a4       $pdata$?Inner@@YAMTv2@@0@Z 000000018007d1a4     handmade.obj
 0004:000001b0       $pdata$?IsCanonical@@YAHPEAUworld@@M@Z 000000018007d1b0     handmade.obj
 0004:000001bc       $pdata$?IsCanonical@@YAHPEAUworld@@Tv2@@@Z 000000018007d1bc     handmade.obj
 0004:000001c8       $pdata$?IsInRectangle@@YAHUrectangle2@@Tv2@@@Z 000000018007d1c8     handmade.obj
 0004:000001d4       $pdata$?LengthSq@@YAMTv2@@@Z 000000018007d1d4     handmade.obj
 0004:000001e0       $pdata$?MakeEntityHighFrequency@@YAPEAUhigh_entity@@PEAUgame_state@@I@Z 000000018007d1e0     handmade.obj
 0004:000001ec       $pdata$?MakeEntityHighFrequency@@YAPEAUhigh_entity@@PEAUgame_state@@PEAUlow_entity@@ITv2@@@Z 000000018007d1ec     handmade.obj
 0004:000001f8       $pdata$?MakeEntityLowFrequency@@YAXPEAUgame_state@@I@Z 000000018007d1f8     handmade.obj
 0004:00000204       $pdata$?MapIntoChunkSpace@@YA?AUworld_position@@PEAUworld@@U1@Tv2@@@Z 000000018007d204     handmade.obj
 0004:00000210       $pdata$?OffsetAndCheckFrequencyByArea@@YAXPEAUgame_state@@Tv2@@Urectangle2@@@Z 000000018007d210     handmade.obj
 0004:0000021c       $pdata$?RecanonicalizeCoord@@YAXPEAUworld@@PEAHPEAM@Z 000000018007d21c     handmade.obj
 0004:00000228       $pdata$?RectCenterDim@@YA?AUrectangle2@@Tv2@@0@Z 000000018007d228     handmade.obj
 0004:00000234       $pdata$?RectCenterHalfDim@@YA?AUrectangle2@@Tv2@@0@Z 000000018007d234     handmade.obj
 0004:00000240       $pdata$?RotateLeft@@YAIIH@Z 000000018007d240     handmade.obj
 0004:0000024c       $pdata$?RoundReal32ToInt32@@YAIM@Z 000000018007d24c     handmade.obj
 0004:00000258       $pdata$?RoundReal32ToUInt32@@YAIM@Z 000000018007d258     handmade.obj
 0004:00000264       $pdata$?Sin@@YAMM@Z        000000018007d264     handmade.obj
 0004:00000270       $pdata$?Square@@YAMM@Z     000000018007d270     handmade.obj
 0004:0000027c       $pdata$?SquareRoot@@YAMM@Z 000000018007d27c     handmade.obj
 0004:00000288       $pdata$?Subtract@@YA?AUworld_difference@@PEAUworld@@PEAUworld_position@@1@Z 000000018007d288     handmade.obj
 0004:00000294       $pdata$?UpdateFamiliar@@YAXPEAUgame_state@@Uentity@@M@Z 000000018007d294     handmade.obj
 0004:000002a0       $pdata$?V2@@YA?ATv2@@MM@Z  000000018007d2a0     handmade.obj
 0004:000002ac       $pdata$?ValidateEntityPairs@@YAHPEAUgame_state@@@Z 000000018007d2ac     handmade.obj
 0004:000002b8       $pdata$?fabs@@YAMM@Z       000000018007d2b8     handmade.obj
 0004:000002c4       $pdata$GetController       000000018007d2c4     handmade.obj
 0004:000002d0       $pdata$roundf              000000018007d2d0     LIBCMTD:roundf.obj
 0004:000002dc       $pdata$rand                000000018007d2dc     LIBCMTD:rand.obj
 0004:000002e8       $pdata$srand               000000018007d2e8     LIBCMTD:rand.obj
 0004:000002f4       $pdata$__GSHandlerCheck    000000018007d2f4     LIBCMTD:gshandler.obj
 0004:00000300       $pdata$__GSHandlerCheckCommon 000000018007d300     LIBCMTD:gshandler.obj
 0004:00000324       $pdata$sqrtf               000000018007d324     LIBCMTD:sqrtf.obj
 0004:00000330       $pdata$_fpmath             000000018007d330     LIBCMTD:fpinit.obj
 0004:0000033c       $pdata$__setfflag          000000018007d33c     LIBCMTD:fpinit.obj
 0004:00000348       $pdata$_CRT_INIT           000000018007d348     LIBCMTD:dllcrt0.obj
 0004:00000354       $pdata$_DllMainCRTStartup  000000018007d354     LIBCMTD:dllcrt0.obj
 0004:00000360       $pdata$__DllMainCRTStartup 000000018007d360     LIBCMTD:dllcrt0.obj
 0004:0000036c       $pdata$__DllXcptFilter     000000018007d36c     LIBCMTD:dllcrt0.obj
 0004:00000378       $pdata$_d_int              000000018007d378     LIBCMTD:_test.obj
 0004:00000384       $pdata$_dtest              000000018007d384     LIBCMTD:_test.obj
 0004:00000390       $pdata$_fd_int             000000018007d390     LIBCMTD:_test.obj
 0004:0000039c       $pdata$_fdtest             000000018007d39c     LIBCMTD:_test.obj
 0004:000003a8       $pdata$_fperrraise         000000018007d3a8     LIBCMTD:_test.obj
 0004:000003b4       $pdata$_ld_int             000000018007d3b4     LIBCMTD:_test.obj
 0004:000003c0       $pdata$_ldtest             000000018007d3c0     LIBCMTD:_test.obj
 0004:000003cc       $pdata$__threadhandle      000000018007d3cc     LIBCMTD:tidtable.obj
 0004:000003d8       $pdata$__threadid          000000018007d3d8     LIBCMTD:tidtable.obj
 0004:000003e4       $pdata$_freefls            000000018007d3e4     LIBCMTD:tidtable.obj
 0004:000003f0       $pdata$_freeptd            000000018007d3f0     LIBCMTD:tidtable.obj
 0004:000003fc       $pdata$_getptd             000000018007d3fc     LIBCMTD:tidtable.obj
 0004:00000408       $pdata$_getptd_noexit      000000018007d408     LIBCMTD:tidtable.obj
 0004:00000414       $pdata$_initptd            000000018007d414     LIBCMTD:tidtable.obj
 0004:00000420       $pdata$_mtinit             000000018007d420     LIBCMTD:tidtable.obj
 0004:0000042c       $pdata$_mtterm             000000018007d42c     LIBCMTD:tidtable.obj
 0004:00000438       $pdata$__raise_securityfailure 000000018007d438     LIBCMTD:gs_report.obj
 0004:00000444       $pdata$__report_gsfailure  000000018007d444     LIBCMTD:gs_report.obj
 0004:00000450       $pdata$__report_rangecheckfailure 000000018007d450     LIBCMTD:gs_report.obj
 0004:0000045c       $pdata$__report_securityfailure 000000018007d45c     LIBCMTD:gs_report.obj
 0004:00000468       $pdata$__report_securityfailureEx 000000018007d468     LIBCMTD:gs_report.obj
 0004:00000474       $pdata$__fma3_lib_init     000000018007d474     LIBCMTD:fma3_available.obj
 0004:0000048c       $pdata$_cos_special        000000018007d48c     LIBCMTD:sincos_special.obj
 0004:00000498       $pdata$_cosf_special       000000018007d498     LIBCMTD:sincos_special.obj
 0004:000004a4       $pdata$_sin_special        000000018007d4a4     LIBCMTD:sincos_special.obj
 0004:000004b0       $pdata$_sincos_special     000000018007d4b0     LIBCMTD:sincos_special.obj
 0004:000004bc       $pdata$_sincosf_special    000000018007d4bc     LIBCMTD:sincos_special.obj
 0004:000004c8       $pdata$_sinf_special       000000018007d4c8     LIBCMTD:sincos_special.obj
 0004:000004d4       $pdata$_tan_special        000000018007d4d4     LIBCMTD:sincos_special.obj
 0004:000004e0       $pdata$_tanf_special       000000018007d4e0     LIBCMTD:sincos_special.obj
 0004:000004ec       $pdata$_call_matherr       000000018007d4ec     LIBCMTD:libm_error.obj
 0004:000004f8       $pdata$_exception_enabled  000000018007d4f8     LIBCMTD:libm_error.obj
 0004:00000504       $pdata$_handle_error       000000018007d504     LIBCMTD:libm_error.obj
 0004:00000510       $pdata$_handle_errorf      000000018007d510     LIBCMTD:libm_error.obj
 0004:0000051c       $pdata$??0_LocaleUpdate@@QEAA@PEAUlocaleinfo_struct@@@Z 000000018007d51c     LIBCMTD:cvt.obj
 0004:00000528       $pdata$?strrchr@@YAPEADPEADH@Z 000000018007d528     LIBCMTD:cvt.obj
 0004:00000534       $pdata$_cfltcvt            000000018007d534     LIBCMTD:cvt.obj
 0004:00000540       $pdata$_cfltcvt_l          000000018007d540     LIBCMTD:cvt.obj
 0004:0000054c       $pdata$_cftoa              000000018007d54c     LIBCMTD:cvt.obj
 0004:00000558       $pdata$_cftoa_l            000000018007d558     LIBCMTD:cvt.obj
 0004:00000564       $pdata$_cftoe              000000018007d564     LIBCMTD:cvt.obj
 0004:00000570       $pdata$_cftoe2_l           000000018007d570     LIBCMTD:cvt.obj
 0004:0000057c       $pdata$_cftoe_l            000000018007d57c     LIBCMTD:cvt.obj
 0004:00000588       $pdata$_cftof              000000018007d588     LIBCMTD:cvt.obj
 0004:00000594       $pdata$_cftof2_l           000000018007d594     LIBCMTD:cvt.obj
 0004:000005a0       $pdata$_cftof_l            000000018007d5a0     LIBCMTD:cvt.obj
 0004:000005ac       $pdata$_cftog              000000018007d5ac     LIBCMTD:cvt.obj
 0004:000005b8       $pdata$_cftog_l            000000018007d5b8     LIBCMTD:cvt.obj
 0004:000005c4       $pdata$_cropzeros          000000018007d5c4     LIBCMTD:cvt.obj
 0004:000005d0       $pdata$_cropzeros_l        000000018007d5d0     LIBCMTD:cvt.obj
 0004:000005dc       $pdata$_fassign            000000018007d5dc     LIBCMTD:cvt.obj
 0004:000005e8       $pdata$_fassign_l          000000018007d5e8     LIBCMTD:cvt.obj
 0004:000005f4       $pdata$_forcdecpt          000000018007d5f4     LIBCMTD:cvt.obj
 0004:00000600       $pdata$_forcdecpt_l        000000018007d600     LIBCMTD:cvt.obj
 0004:0000060c       $pdata$_invoke_watson_if_error 000000018007d60c     LIBCMTD:cvt.obj
 0004:00000618       $pdata$_positive           000000018007d618     LIBCMTD:cvt.obj
 0004:00000624       $pdata$_shift              000000018007d624     LIBCMTD:cvt.obj
 0004:00000630       $pdata$_initp_misc_cfltcvt_tab 000000018007d630     LIBCMTD:cmiscdat.obj
 0004:0000063c       $pdata$_XcptFilter         000000018007d63c     LIBCMTD:winxfltr.obj
 0004:00000648       $pdata$__CppXcptFilter     000000018007d648     LIBCMTD:winxfltr.obj
 0004:00000654       $pdata$xcptlookup          000000018007d654     LIBCMTD:winxfltr.obj
 0004:00000660       $pdata$__copy_path_to_wide_string 000000018007d660     LIBCMTD:crt0dat.obj
 0004:0000066c       $pdata$__copy_to_char      000000018007d66c     LIBCMTD:crt0dat.obj
 0004:00000678       $pdata$__crtCorExitProcess 000000018007d678     LIBCMTD:crt0dat.obj
 0004:00000684       $pdata$__crtExitProcess    000000018007d684     LIBCMTD:crt0dat.obj
 0004:00000690       $pdata$__freeCrtMemory     000000018007d690     LIBCMTD:crt0dat.obj
 0004:0000069c       $pdata$_amsg_exit          000000018007d69c     LIBCMTD:crt0dat.obj
 0004:000006a8       $pdata$_c_exit             000000018007d6a8     LIBCMTD:crt0dat.obj
 0004:000006b4       $pdata$_cexit              000000018007d6b4     LIBCMTD:crt0dat.obj
 0004:000006c0       $pdata$_cinit              000000018007d6c0     LIBCMTD:crt0dat.obj
 0004:000006cc       $pdata$_exit               000000018007d6cc     LIBCMTD:crt0dat.obj
 0004:000006d8       $pdata$_exit_app           000000018007d6d8     LIBCMTD:crt0dat.obj
 0004:000006e4       $pdata$_get_pgmptr         000000018007d6e4     LIBCMTD:crt0dat.obj
 0004:000006f0       $pdata$_get_wpgmptr        000000018007d6f0     LIBCMTD:crt0dat.obj
 0004:000006fc       $pdata$_init_pointers      000000018007d6fc     LIBCMTD:crt0dat.obj
 0004:00000708       $pdata$_initterm           000000018007d708     LIBCMTD:crt0dat.obj
 0004:00000714       $pdata$_initterm_e         000000018007d714     LIBCMTD:crt0dat.obj
 0004:00000720       $pdata$_lockexit           000000018007d720     LIBCMTD:crt0dat.obj
 0004:0000072c       $pdata$_unlockexit         000000018007d72c     LIBCMTD:crt0dat.obj
 0004:00000738       $pdata$doexit              000000018007d738     LIBCMTD:crt0dat.obj
 0004:00000744       $pdata$exit                000000018007d744     LIBCMTD:crt0dat.obj
 0004:00000750       $pdata$_get_heap_handle    000000018007d750     LIBCMTD:heapinit.obj
 0004:0000075c       $pdata$_heap_init          000000018007d75c     LIBCMTD:heapinit.obj
 0004:00000768       $pdata$_ioinit             000000018007d768     LIBCMTD:ioinit.obj
 0004:00000774       $pdata$_ioterm             000000018007d774     LIBCMTD:ioinit.obj
 0004:00000780       $pdata$_setargv            000000018007d780     LIBCMTD:stdargv.obj
 0004:0000078c       $pdata$parse_cmdline       000000018007d78c     LIBCMTD:stdargv.obj
 0004:00000798       $pdata$_setenvp            000000018007d798     LIBCMTD:stdenvp.obj
 0004:000007a4       $pdata$?_CrtMemDumpAllObjectsSince_stat@@YAXPEBU_CrtMemState@@PEAUlocaleinfo_struct@@@Z 000000018007d7a4     LIBCMTD:dbgheap.obj
 0004:000007b0       $pdata$?__crtIsBadReadPtr@@YAHPEBX_K@Z 000000018007d7b0     LIBCMTD:dbgheap.obj
 0004:000007bc       $pdata$CheckBytes          000000018007d7bc     LIBCMTD:dbgheap.obj
 0004:000007c8       $pdata$_CrtCheckMemory     000000018007d7c8     LIBCMTD:dbgheap.obj
 0004:000007d4       $pdata$_CrtDoForAllClientObjects 000000018007d7d4     LIBCMTD:dbgheap.obj
 0004:000007e0       $pdata$_CrtDumpMemoryLeaks 000000018007d7e0     LIBCMTD:dbgheap.obj
 0004:000007ec       $pdata$_CrtIsMemoryBlock   000000018007d7ec     LIBCMTD:dbgheap.obj
 0004:000007f8       $pdata$_CrtIsValidHeapPointer 000000018007d7f8     LIBCMTD:dbgheap.obj
 0004:00000804       $pdata$_CrtIsValidPointer  000000018007d804     LIBCMTD:dbgheap.obj
 0004:00000810       $pdata$_CrtMemCheckpoint   000000018007d810     LIBCMTD:dbgheap.obj
 0004:0000081c       $pdata$_CrtMemDifference   000000018007d81c     LIBCMTD:dbgheap.obj
 0004:00000828       $pdata$_CrtMemDumpAllObjectsSince 000000018007d828     LIBCMTD:dbgheap.obj
 0004:00000834       $pdata$_CrtMemDumpStatistics 000000018007d834     LIBCMTD:dbgheap.obj
 0004:00000840       $pdata$_CrtReportBlockType 000000018007d840     LIBCMTD:dbgheap.obj
 0004:0000084c       $pdata$_CrtSetAllocHook    000000018007d84c     LIBCMTD:dbgheap.obj
 0004:00000858       $pdata$_CrtSetBreakAlloc   000000018007d858     LIBCMTD:dbgheap.obj
 0004:00000864       $pdata$_CrtSetCheckCount   000000018007d864     LIBCMTD:dbgheap.obj
 0004:00000870       $pdata$_CrtSetDbgBlockType 000000018007d870     LIBCMTD:dbgheap.obj
 0004:0000087c       $pdata$_CrtSetDbgFlag      000000018007d87c     LIBCMTD:dbgheap.obj
 0004:00000888       $pdata$_CrtSetDebugFillThreshold 000000018007d888     LIBCMTD:dbgheap.obj
 0004:00000894       $pdata$_CrtSetDumpClient   000000018007d894     LIBCMTD:dbgheap.obj
 0004:000008a0       $pdata$_aligned_free       000000018007d8a0     LIBCMTD:dbgheap.obj
 0004:000008ac       $pdata$_aligned_free_dbg   000000018007d8ac     LIBCMTD:dbgheap.obj
 0004:000008b8       $pdata$_aligned_malloc     000000018007d8b8     LIBCMTD:dbgheap.obj
 0004:000008c4       $pdata$_aligned_malloc_dbg 000000018007d8c4     LIBCMTD:dbgheap.obj
 0004:000008d0       $pdata$_aligned_msize      000000018007d8d0     LIBCMTD:dbgheap.obj
 0004:000008dc       $pdata$_aligned_msize_dbg  000000018007d8dc     LIBCMTD:dbgheap.obj
 0004:000008e8       $pdata$_aligned_offset_malloc 000000018007d8e8     LIBCMTD:dbgheap.obj
 0004:000008f4       $pdata$_aligned_offset_malloc_dbg 000000018007d8f4     LIBCMTD:dbgheap.obj
 0004:00000900       $pdata$_aligned_offset_realloc 000000018007d900     LIBCMTD:dbgheap.obj
 0004:0000090c       $pdata$_aligned_offset_realloc_dbg 000000018007d90c     LIBCMTD:dbgheap.obj
 0004:00000918       $pdata$_aligned_offset_recalloc 000000018007d918     LIBCMTD:dbgheap.obj
 0004:00000924       $pdata$_aligned_offset_recalloc_dbg 000000018007d924     LIBCMTD:dbgheap.obj
 0004:00000930       $pdata$_aligned_realloc    000000018007d930     LIBCMTD:dbgheap.obj
 0004:0000093c       $pdata$_aligned_realloc_dbg 000000018007d93c     LIBCMTD:dbgheap.obj
 0004:00000948       $pdata$_aligned_recalloc   000000018007d948     LIBCMTD:dbgheap.obj
 0004:00000954       $pdata$_aligned_recalloc_dbg 000000018007d954     LIBCMTD:dbgheap.obj
 0004:00000960       $pdata$_calloc_dbg         000000018007d960     LIBCMTD:dbgheap.obj
 0004:0000096c       $pdata$_calloc_dbg_impl    000000018007d96c     LIBCMTD:dbgheap.obj
 0004:00000978       $pdata$_expand             000000018007d978     LIBCMTD:dbgheap.obj
 0004:00000984       $pdata$_expand_dbg         000000018007d984     LIBCMTD:dbgheap.obj
 0004:00000990       $pdata$_free_dbg           000000018007d990     LIBCMTD:dbgheap.obj
 0004:0000099c       $pdata$_free_dbg_nolock    000000018007d99c     LIBCMTD:dbgheap.obj
 0004:000009a8       $pdata$_free_nolock        000000018007d9a8     LIBCMTD:dbgheap.obj
 0004:000009b4       $pdata$_heap_alloc         000000018007d9b4     LIBCMTD:dbgheap.obj
 0004:000009c0       $pdata$_heap_alloc_dbg     000000018007d9c0     LIBCMTD:dbgheap.obj
 0004:000009cc       $pdata$_heap_alloc_dbg_impl 000000018007d9cc     LIBCMTD:dbgheap.obj
 0004:000009d8       $pdata$_invoke_watson_if_oneof 000000018007d9d8     LIBCMTD:dbgheap.obj
 0004:000009e4       $pdata$_malloc_dbg         000000018007d9e4     LIBCMTD:dbgheap.obj
 0004:000009f0       $pdata$_msize              000000018007d9f0     LIBCMTD:dbgheap.obj
 0004:000009fc       $pdata$_msize_dbg          000000018007d9fc     LIBCMTD:dbgheap.obj
 0004:00000a08       $pdata$_nh_malloc          000000018007da08     LIBCMTD:dbgheap.obj
 0004:00000a14       $pdata$_nh_malloc_dbg      000000018007da14     LIBCMTD:dbgheap.obj
 0004:00000a20       $pdata$_nh_malloc_dbg_impl 000000018007da20     LIBCMTD:dbgheap.obj
 0004:00000a2c       $pdata$_printMemBlockData  000000018007da2c     LIBCMTD:dbgheap.obj
 0004:00000a38       $pdata$_realloc_dbg        000000018007da38     LIBCMTD:dbgheap.obj
 0004:00000a44       $pdata$_recalloc           000000018007da44     LIBCMTD:dbgheap.obj
 0004:00000a50       $pdata$_recalloc_dbg       000000018007da50     LIBCMTD:dbgheap.obj
 0004:00000a5c       $pdata$realloc_help        000000018007da5c     LIBCMTD:dbgheap.obj
 0004:00000a68       $pdata$__security_init_cookie 000000018007da68     LIBCMTD:gs_support.obj
 0004:00000a74       $pdata$__crtGetEnvironmentStringsA 000000018007da74     LIBCMTD:a_env.obj
 0004:00000a80       $pdata$__IsPackagedAppHelper 000000018007da80     LIBCMTD:winapisupp.obj
 0004:00000a8c       $pdata$__crtCaptureCurrentContext 000000018007da8c     LIBCMTD:winapisupp.obj
 0004:00000a98       $pdata$__crtCapturePreviousContext 000000018007da98     LIBCMTD:winapisupp.obj
 0004:00000aa4       $pdata$__crtCloseThreadpoolTimer 000000018007daa4     LIBCMTD:winapisupp.obj
 0004:00000ab0       $pdata$__crtCloseThreadpoolWait 000000018007dab0     LIBCMTD:winapisupp.obj
 0004:00000abc       $pdata$__crtCreateEventExW 000000018007dabc     LIBCMTD:winapisupp.obj
 0004:00000ac8       $pdata$__crtCreateSemaphoreExW 000000018007dac8     LIBCMTD:winapisupp.obj
 0004:00000ad4       $pdata$__crtCreateSymbolicLinkW 000000018007dad4     LIBCMTD:winapisupp.obj
 0004:00000ae0       $pdata$__crtCreateThreadpoolTimer 000000018007dae0     LIBCMTD:winapisupp.obj
 0004:00000aec       $pdata$__crtCreateThreadpoolWait 000000018007daec     LIBCMTD:winapisupp.obj
 0004:00000af8       $pdata$__crtFlsAlloc       000000018007daf8     LIBCMTD:winapisupp.obj
 0004:00000b04       $pdata$__crtFlsFree        000000018007db04     LIBCMTD:winapisupp.obj
 0004:00000b10       $pdata$__crtFlsGetValue    000000018007db10     LIBCMTD:winapisupp.obj
 0004:00000b1c       $pdata$__crtFlsSetValue    000000018007db1c     LIBCMTD:winapisupp.obj
 0004:00000b28       $pdata$__crtFlushProcessWriteBuffers 000000018007db28     LIBCMTD:winapisupp.obj
 0004:00000b34       $pdata$__crtFreeLibraryWhenCallbackReturns 000000018007db34     LIBCMTD:winapisupp.obj
 0004:00000b40       $pdata$__crtGetCurrentProcessorNumber 000000018007db40     LIBCMTD:winapisupp.obj
 0004:00000b4c       $pdata$__crtGetFileInformationByHandleEx 000000018007db4c     LIBCMTD:winapisupp.obj
 0004:00000b58       $pdata$__crtGetLogicalProcessorInformation 000000018007db58     LIBCMTD:winapisupp.obj
 0004:00000b64       $pdata$__crtGetShowWindowMode 000000018007db64     LIBCMTD:winapisupp.obj
 0004:00000b70       $pdata$__crtGetTickCount64 000000018007db70     LIBCMTD:winapisupp.obj
 0004:00000b7c       $pdata$__crtInitializeCriticalSectionEx 000000018007db7c     LIBCMTD:winapisupp.obj
 0004:00000b88       $pdata$__crtIsPackagedApp  000000018007db88     LIBCMTD:winapisupp.obj
 0004:00000b94       $pdata$__crtLoadWinApiPointers 000000018007db94     LIBCMTD:winapisupp.obj
 0004:00000ba0       $pdata$__crtSetFileInformationByHandle 000000018007dba0     LIBCMTD:winapisupp.obj
 0004:00000bac       $pdata$__crtSetThreadStackGuarantee 000000018007dbac     LIBCMTD:winapisupp.obj
 0004:00000bb8       $pdata$__crtSetThreadpoolTimer 000000018007dbb8     LIBCMTD:winapisupp.obj
 0004:00000bc4       $pdata$__crtSetThreadpoolWait 000000018007dbc4     LIBCMTD:winapisupp.obj
 0004:00000bd0       $pdata$__crtSetUnhandledExceptionFilter 000000018007dbd0     LIBCMTD:winapisupp.obj
 0004:00000bdc       $pdata$__crtSleep          000000018007dbdc     LIBCMTD:winapisupp.obj
 0004:00000be8       $pdata$__crtTerminateProcess 000000018007dbe8     LIBCMTD:winapisupp.obj
 0004:00000bf4       $pdata$__crtUnhandledException 000000018007dbf4     LIBCMTD:winapisupp.obj
 0004:00000c00       $pdata$__crtWaitForThreadpoolTimerCallbacks 000000018007dc00     LIBCMTD:winapisupp.obj
 0004:00000c0c       $pdata$_RTC_Initialize     000000018007dc0c     LIBCMTD:initsect.obj
 0004:00000c18       $pdata$_RTC_Terminate      000000018007dc18     LIBCMTD:initsect.obj
 0004:00000c24       $pdata$__C_specific_handler 000000018007dc24     LIBCMTD:chandler.obj
 0004:00000c30       $pdata$__doserrno          000000018007dc30     LIBCMTD:dosmap.obj
 0004:00000c3c       $pdata$_dosmaperr          000000018007dc3c     LIBCMTD:dosmap.obj
 0004:00000c48       $pdata$_errno              000000018007dc48     LIBCMTD:dosmap.obj
 0004:00000c54       $pdata$_get_doserrno       000000018007dc54     LIBCMTD:dosmap.obj
 0004:00000c60       $pdata$_get_errno          000000018007dc60     LIBCMTD:dosmap.obj
 0004:00000c6c       $pdata$_get_errno_from_oserr 000000018007dc6c     LIBCMTD:dosmap.obj
 0004:00000c78       $pdata$_set_doserrno       000000018007dc78     LIBCMTD:dosmap.obj
 0004:00000c84       $pdata$_set_errno          000000018007dc84     LIBCMTD:dosmap.obj
 0004:00000c90       $pdata$fesetexceptflag     000000018007dc90     LIBCMTD:fesetexceptflag.obj
 0004:00000c9c       $pdata$_lock               000000018007dc9c     LIBCMTD:mlock.obj
 0004:00000ca8       $pdata$_lockerr_exit       000000018007dca8     LIBCMTD:mlock.obj
 0004:00000cb4       $pdata$_mtdeletelocks      000000018007dcb4     LIBCMTD:mlock.obj
 0004:00000cc0       $pdata$_mtinitlocknum      000000018007dcc0     LIBCMTD:mlock.obj
 0004:00000ccc       $pdata$_mtinitlocks        000000018007dccc     LIBCMTD:mlock.obj
 0004:00000cd8       $pdata$_unlock             000000018007dcd8     LIBCMTD:mlock.obj
 0004:00000ce4       $pdata$__addlocaleref      000000018007dce4     LIBCMTD:localref.obj
 0004:00000cf0       $pdata$__freetlocinfo      000000018007dcf0     LIBCMTD:localref.obj
 0004:00000cfc       $pdata$__removelocaleref   000000018007dcfc     LIBCMTD:localref.obj
 0004:00000d08       $pdata$__updatetlocinfo    000000018007dd08     LIBCMTD:localref.obj
 0004:00000d14       $pdata$_updatetlocinfoEx_nolock 000000018007dd14     LIBCMTD:localref.obj
 0004:00000d20       $pdata$__initmbctable      000000018007dd20     LIBCMTD:mbctype.obj
 0004:00000d2c       $pdata$?CPtoLocaleName@@YAPEB_WH@Z 000000018007dd2c     LIBCMTD:mbctype.obj
 0004:00000d38       $pdata$?getSystemCP@@YAHH@Z 000000018007dd38     LIBCMTD:mbctype.obj
 0004:00000d44       $pdata$?setSBCS@@YAXPEAUthreadmbcinfostruct@@@Z 000000018007dd44     LIBCMTD:mbctype.obj
 0004:00000d50       $pdata$?setSBUpLow@@YAXPEAUthreadmbcinfostruct@@@Z 000000018007dd50     LIBCMTD:mbctype.obj
 0004:00000d5c       $pdata$__updatetmbcinfo    000000018007dd5c     LIBCMTD:mbctype.obj
 0004:00000d68       $pdata$_getmbcp            000000018007dd68     LIBCMTD:mbctype.obj
 0004:00000d74       $pdata$_setmbcp            000000018007dd74     LIBCMTD:mbctype.obj
 0004:00000d80       $pdata$_setmbcp_nolock     000000018007dd80     LIBCMTD:mbctype.obj
 0004:00000d8c       $pdata$_errcode            000000018007dd8c     LIBCMTD:fpexcept.obj
 0004:00000d98       $pdata$_except1            000000018007dd98     LIBCMTD:fpexcept.obj
 0004:00000da4       $pdata$_except2            000000018007dda4     LIBCMTD:fpexcept.obj
 0004:00000db0       $pdata$_get_fname          000000018007ddb0     LIBCMTD:fpexcept.obj
 0004:00000dbc       $pdata$_handle_exc         000000018007ddbc     LIBCMTD:fpexcept.obj
 0004:00000dc8       $pdata$_handle_qnan1       000000018007ddc8     LIBCMTD:fpexcept.obj
 0004:00000dd4       $pdata$_handle_qnan2       000000018007ddd4     LIBCMTD:fpexcept.obj
 0004:00000de0       $pdata$_raise_exc          000000018007dde0     LIBCMTD:fpexcept.obj
 0004:00000dec       $pdata$_raise_exc_ex       000000018007ddec     LIBCMTD:fpexcept.obj
 0004:00000df8       $pdata$_raise_excf         000000018007ddf8     LIBCMTD:fpexcept.obj
 0004:00000e04       $pdata$_set_errno_from_matherr 000000018007de04     LIBCMTD:fpexcept.obj
 0004:00000e10       $pdata$_umatherr           000000018007de10     LIBCMTD:fpexcept.obj
 0004:00000e1c       $pdata$_clrfp              000000018007de1c     LIBCMTD:fpctrl.obj
 0004:00000e28       $pdata$_ctrlfp             000000018007de28     LIBCMTD:fpctrl.obj
 0004:00000e34       $pdata$_set_statfp         000000018007de34     LIBCMTD:fpctrl.obj
 0004:00000e40       $pdata$_statfp             000000018007de40     LIBCMTD:fpctrl.obj
 0004:00000e4c       $pdata$?_invalid_parameter@@YAXPEBG00I_K@Z 000000018007de4c     LIBCMTD:invarg.obj
 0004:00000e58       $pdata$?_invoke_watson@@YAXPEBG00I_K@Z 000000018007de58     LIBCMTD:invarg.obj
 0004:00000e64       $pdata$_call_reportfault   000000018007de64     LIBCMTD:invarg.obj
 0004:00000e70       $pdata$_get_invalid_parameter_handler 000000018007de70     LIBCMTD:invarg.obj
 0004:00000e7c       $pdata$_invalid_parameter  000000018007de7c     LIBCMTD:invarg.obj
 0004:00000e88       $pdata$_invoke_watson      000000018007de88     LIBCMTD:invarg.obj
 0004:00000e94       $pdata$_set_invalid_parameter_handler 000000018007de94     LIBCMTD:invarg.obj
 0004:00000ea0       $pdata$__isascii           000000018007dea0     LIBCMTD:_ctype.obj
 0004:00000eac       $pdata$__iscsym            000000018007deac     LIBCMTD:_ctype.obj
 0004:00000eb8       $pdata$__iscsymf           000000018007deb8     LIBCMTD:_ctype.obj
 0004:00000ec4       $pdata$_isalnum_l          000000018007dec4     LIBCMTD:_ctype.obj
 0004:00000ed0       $pdata$_isalpha_l          000000018007ded0     LIBCMTD:_ctype.obj
 0004:00000edc       $pdata$_isblank_l          000000018007dedc     LIBCMTD:_ctype.obj
 0004:00000ee8       $pdata$_iscntrl_l          000000018007dee8     LIBCMTD:_ctype.obj
 0004:00000ef4       $pdata$_iscsym_l           000000018007def4     LIBCMTD:_ctype.obj
 0004:00000f00       $pdata$_iscsymf_l          000000018007df00     LIBCMTD:_ctype.obj
 0004:00000f0c       $pdata$_isdigit_l          000000018007df0c     LIBCMTD:_ctype.obj
 0004:00000f18       $pdata$_isgraph_l          000000018007df18     LIBCMTD:_ctype.obj
 0004:00000f24       $pdata$_islower_l          000000018007df24     LIBCMTD:_ctype.obj
 0004:00000f30       $pdata$_isprint_l          000000018007df30     LIBCMTD:_ctype.obj
 0004:00000f3c       $pdata$_ispunct_l          000000018007df3c     LIBCMTD:_ctype.obj
 0004:00000f48       $pdata$_isspace_l          000000018007df48     LIBCMTD:_ctype.obj
 0004:00000f54       $pdata$_isupper_l          000000018007df54     LIBCMTD:_ctype.obj
 0004:00000f60       $pdata$_isxdigit_l         000000018007df60     LIBCMTD:_ctype.obj
 0004:00000f6c       $pdata$isalnum             000000018007df6c     LIBCMTD:_ctype.obj
 0004:00000f78       $pdata$isalpha             000000018007df78     LIBCMTD:_ctype.obj
 0004:00000f84       $pdata$isblank             000000018007df84     LIBCMTD:_ctype.obj
 0004:00000f90       $pdata$iscntrl             000000018007df90     LIBCMTD:_ctype.obj
 0004:00000f9c       $pdata$isdigit             000000018007df9c     LIBCMTD:_ctype.obj
 0004:00000fa8       $pdata$isgraph             000000018007dfa8     LIBCMTD:_ctype.obj
 0004:00000fb4       $pdata$islower             000000018007dfb4     LIBCMTD:_ctype.obj
 0004:00000fc0       $pdata$isprint             000000018007dfc0     LIBCMTD:_ctype.obj
 0004:00000fcc       $pdata$ispunct             000000018007dfcc     LIBCMTD:_ctype.obj
 0004:00000fd8       $pdata$isspace             000000018007dfd8     LIBCMTD:_ctype.obj
 0004:00000fe4       $pdata$isupper             000000018007dfe4     LIBCMTD:_ctype.obj
 0004:00000ff0       $pdata$isxdigit            000000018007dff0     LIBCMTD:_ctype.obj
 0004:00000ffc       $pdata$_tolower_l          000000018007dffc     LIBCMTD:tolower.obj
 0004:00001008       $pdata$tolower             000000018007e008     LIBCMTD:tolower.obj
 0004:00001020       $pdata$strcpy_s            000000018007e020     LIBCMTD:strcpy_s.obj
 0004:00001044       $pdata$strrchr             000000018007e044     LIBCMTD:strrchr.obj
 0004:00001050       $pdata$_fptostr            000000018007e050     LIBCMTD:_fptostr.obj
 0004:0000105c       $pdata$__crt_atoflt_l      000000018007e05c     LIBCMTD:atodbl.obj
 0004:00001068       $pdata$_atodbl             000000018007e068     LIBCMTD:atodbl.obj
 0004:00001074       $pdata$_atodbl_l           000000018007e074     LIBCMTD:atodbl.obj
 0004:00001080       $pdata$_atoflt             000000018007e080     LIBCMTD:atodbl.obj
 0004:0000108c       $pdata$_atoflt_l           000000018007e08c     LIBCMTD:atodbl.obj
 0004:00001098       $pdata$_atoldbl            000000018007e098     LIBCMTD:atodbl.obj
 0004:000010a4       $pdata$_atoldbl_l          000000018007e0a4     LIBCMTD:atodbl.obj
 0004:000010b0       $pdata$__dtold             000000018007e0b0     LIBCMTD:cfout.obj
 0004:000010bc       $pdata$_fltout2            000000018007e0bc     LIBCMTD:cfout.obj
 0004:000010c8       $pdata$?_CrtDbgReportW@@YAHHPEBGH00ZZ 000000018007e0c8     LIBCMTD:dbgrptw.obj
 0004:000010d4       $pdata$_CrtDbgReportW      000000018007e0d4     LIBCMTD:dbgrptw.obj
 0004:000010e0       $pdata$_CrtDbgReportWV     000000018007e0e0     LIBCMTD:dbgrptw.obj
 0004:000010ec       $pdata$_CrtSetReportHookW2 000000018007e0ec     LIBCMTD:dbgrptw.obj
 0004:000010f8       $pdata$__crtMessageWindowW 000000018007e0f8     LIBCMTD:dbgrptw.obj
 0004:00001104       $pdata$_set_output_format  000000018007e104     LIBCMTD:outputformat.obj
 0004:00001110       $pdata$_fptrap             000000018007e110     LIBCMTD:crt0fp.obj
 0004:0000111c       $pdata$_FF_MSGBANNER       000000018007e11c     LIBCMTD:crt0msg.obj
 0004:00001128       $pdata$_GET_RTERRMSG       000000018007e128     LIBCMTD:crt0msg.obj
 0004:00001134       $pdata$_NMSG_WRITE         000000018007e134     LIBCMTD:crt0msg.obj
 0004:00001140       $pdata$_FindPESection      000000018007e140     LIBCMTD:pesect.obj
 0004:0000114c       $pdata$_IsNonwritableInCurrentImage 000000018007e14c     LIBCMTD:pesect.obj
 0004:00001158       $pdata$_ValidateImageBase  000000018007e158     LIBCMTD:pesect.obj
 0004:00001164       $pdata$__onexitinit        000000018007e164     LIBCMTD:onexit.obj
 0004:00001170       $pdata$_onexit             000000018007e170     LIBCMTD:onexit.obj
 0004:0000117c       $pdata$_onexit_nolock      000000018007e17c     LIBCMTD:onexit.obj
 0004:00001188       $pdata$atexit              000000018007e188     LIBCMTD:onexit.obj
 0004:00001194       $pdata$?_inconsistency@@YAXXZ 000000018007e194     LIBCMTD:hooks.obj
 0004:000011a0       $pdata$?terminate@@YAXXZ   000000018007e1a0     LIBCMTD:hooks.obj
 0004:000011ac       $pdata$?unexpected@@YAXXZ  000000018007e1ac     LIBCMTD:hooks.obj
 0004:000011b8       $pdata$_initp_eh_hooks     000000018007e1b8     LIBCMTD:hooks.obj
 0004:000011c4       $pdata$?_query_new_handler@@YAP6AH_K@ZXZ 000000018007e1c4     LIBCMTD:handler.obj
 0004:000011d0       $pdata$?_set_new_handler@@YAP6AH_K@ZH@Z 000000018007e1d0     LIBCMTD:handler.obj
 0004:000011dc       $pdata$?_set_new_handler@@YAP6AH_K@ZP6AH0@Z@Z 000000018007e1dc     LIBCMTD:handler.obj
 0004:000011e8       $pdata$_callnewh           000000018007e1e8     LIBCMTD:handler.obj
 0004:000011f4       $pdata$__getlocaleinfo     000000018007e1f4     LIBCMTD:inithelp.obj
 0004:00001200       $pdata$__fpecode           000000018007e200     LIBCMTD:winsig.obj
 0004:0000120c       $pdata$__get_sigabrt       000000018007e20c     LIBCMTD:winsig.obj
 0004:00001218       $pdata$__pxcptinfoptrs     000000018007e218     LIBCMTD:winsig.obj
 0004:00001224       $pdata$ctrlevent_capture   000000018007e224     LIBCMTD:winsig.obj
 0004:00001230       $pdata$raise               000000018007e230     LIBCMTD:winsig.obj
 0004:0000123c       $pdata$siglookup           000000018007e23c     LIBCMTD:winsig.obj
 0004:00001248       $pdata$signal              000000018007e248     LIBCMTD:winsig.obj
 0004:00001254       $pdata$rand_s              000000018007e254     LIBCMTD:rand_s.obj
 0004:00001260       $pdata$_ftbuf              000000018007e260     LIBCMTD:_sftbuf.obj
 0004:0000126c       $pdata$_stbuf              000000018007e26c     LIBCMTD:_sftbuf.obj
 0004:000012a8       $pdata$__initstdio         000000018007e2a8     LIBCMTD:_file.obj
 0004:000012b4       $pdata$__endstdio          000000018007e2b4     LIBCMTD:_file.obj
 0004:000012c0       $pdata$_lock_file          000000018007e2c0     LIBCMTD:_file.obj
 0004:000012cc       $pdata$_lock_file2         000000018007e2cc     LIBCMTD:_file.obj
 0004:000012d8       $pdata$_unlock_file        000000018007e2d8     LIBCMTD:_file.obj
 0004:000012e4       $pdata$_unlock_file2       000000018007e2e4     LIBCMTD:_file.obj
 0004:000012f0       $pdata$?x_ismbbtype_l@@YAHPEAUlocaleinfo_struct@@IHH@Z 000000018007e2f0     LIBCMTD:ismbbyte.obj
 0004:000012fc       $pdata$_ismbbalnum         000000018007e2fc     LIBCMTD:ismbbyte.obj
 0004:00001308       $pdata$_ismbbalnum_l       000000018007e308     LIBCMTD:ismbbyte.obj
 0004:00001314       $pdata$_ismbbalpha         000000018007e314     LIBCMTD:ismbbyte.obj
 0004:00001320       $pdata$_ismbbalpha_l       000000018007e320     LIBCMTD:ismbbyte.obj
 0004:0000132c       $pdata$_ismbbblank         000000018007e32c     LIBCMTD:ismbbyte.obj
 0004:00001338       $pdata$_ismbbblank_l       000000018007e338     LIBCMTD:ismbbyte.obj
 0004:00001344       $pdata$_ismbbgraph         000000018007e344     LIBCMTD:ismbbyte.obj
 0004:00001350       $pdata$_ismbbgraph_l       000000018007e350     LIBCMTD:ismbbyte.obj
 0004:0000135c       $pdata$_ismbbkalnum        000000018007e35c     LIBCMTD:ismbbyte.obj
 0004:00001368       $pdata$_ismbbkalnum_l      000000018007e368     LIBCMTD:ismbbyte.obj
 0004:00001374       $pdata$_ismbbkana          000000018007e374     LIBCMTD:ismbbyte.obj
 0004:00001380       $pdata$_ismbbkana_l        000000018007e380     LIBCMTD:ismbbyte.obj
 0004:0000138c       $pdata$_ismbbkprint        000000018007e38c     LIBCMTD:ismbbyte.obj
 0004:00001398       $pdata$_ismbbkprint_l      000000018007e398     LIBCMTD:ismbbyte.obj
 0004:000013a4       $pdata$_ismbbkpunct        000000018007e3a4     LIBCMTD:ismbbyte.obj
 0004:000013b0       $pdata$_ismbbkpunct_l      000000018007e3b0     LIBCMTD:ismbbyte.obj
 0004:000013bc       $pdata$_ismbblead          000000018007e3bc     LIBCMTD:ismbbyte.obj
 0004:000013c8       $pdata$_ismbblead_l        000000018007e3c8     LIBCMTD:ismbbyte.obj
 0004:000013d4       $pdata$_ismbbprint         000000018007e3d4     LIBCMTD:ismbbyte.obj
 0004:000013e0       $pdata$_ismbbprint_l       000000018007e3e0     LIBCMTD:ismbbyte.obj
 0004:000013ec       $pdata$_ismbbpunct         000000018007e3ec     LIBCMTD:ismbbyte.obj
 0004:000013f8       $pdata$_ismbbpunct_l       000000018007e3f8     LIBCMTD:ismbbyte.obj
 0004:00001404       $pdata$_ismbbtrail         000000018007e404     LIBCMTD:ismbbyte.obj
 0004:00001410       $pdata$_ismbbtrail_l       000000018007e410     LIBCMTD:ismbbyte.obj
 0004:0000141c       $pdata$_chvalidator        000000018007e41c     LIBCMTD:isctype.obj
 0004:00001428       $pdata$_chvalidator_l      000000018007e428     LIBCMTD:isctype.obj
 0004:00001434       $pdata$_isctype            000000018007e434     LIBCMTD:isctype.obj
 0004:00001440       $pdata$_isctype_l          000000018007e440     LIBCMTD:isctype.obj
 0004:0000144c       $pdata$_free_base          000000018007e44c     LIBCMTD:free.obj
 0004:00001458       $pdata$_realloc_base       000000018007e458     LIBCMTD:realloc.obj
 0004:00001464       $pdata$_expand_base        000000018007e464     LIBCMTD:expand.obj
 0004:00001470       $pdata$_is_LFH_enabled     000000018007e470     LIBCMTD:expand.obj
 0004:0000147c       $pdata$_CrtDbgReport       000000018007e47c     LIBCMTD:dbgrpt.obj
 0004:00001488       $pdata$_CrtDbgReportV      000000018007e488     LIBCMTD:dbgrpt.obj
 0004:00001494       $pdata$_CrtSetReportHook2  000000018007e494     LIBCMTD:dbgrpt.obj
 0004:000014a0       $pdata$__crtMessageWindowA 000000018007e4a0     LIBCMTD:dbgrpt.obj
 0004:000014ac       $pdata$_heapchk            000000018007e4ac     LIBCMTD:heapchk.obj
 0004:000014b8       $pdata$_heapset            000000018007e4b8     LIBCMTD:heapchk.obj
 0004:000014c4       $pdata$_scprintf           000000018007e4c4     LIBCMTD:sprintf.obj
 0004:000014d0       $pdata$_scprintf_l         000000018007e4d0     LIBCMTD:sprintf.obj
 0004:000014dc       $pdata$_scprintf_p         000000018007e4dc     LIBCMTD:sprintf.obj
 0004:000014e8       $pdata$_scprintf_p_l       000000018007e4e8     LIBCMTD:sprintf.obj
 0004:000014f4       $pdata$_snprintf_s         000000018007e4f4     LIBCMTD:sprintf.obj
 0004:00001500       $pdata$_snprintf_s_l       000000018007e500     LIBCMTD:sprintf.obj
 0004:0000150c       $pdata$_sprintf_l          000000018007e50c     LIBCMTD:sprintf.obj
 0004:00001518       $pdata$_sprintf_p          000000018007e518     LIBCMTD:sprintf.obj
 0004:00001524       $pdata$_sprintf_p_l        000000018007e524     LIBCMTD:sprintf.obj
 0004:00001530       $pdata$_sprintf_s_l        000000018007e530     LIBCMTD:sprintf.obj
 0004:0000153c       $pdata$sprintf             000000018007e53c     LIBCMTD:sprintf.obj
 0004:00001548       $pdata$sprintf_s           000000018007e548     LIBCMTD:sprintf.obj
 0004:00001554       $pdata$_heap_alloc_base    000000018007e554     LIBCMTD:malloc.obj
 0004:00001560       $pdata$_malloc_base        000000018007e560     LIBCMTD:malloc.obj
 0004:0000156c       $pdata$fetestexcept        000000018007e56c     LIBCMTD:fetestexcept.obj
 0004:00001578       $pdata$__get_abstract_control 000000018007e578     LIBCMTD:_fenvutils.obj
 0004:00001584       $pdata$__get_abstract_status 000000018007e584     LIBCMTD:_fenvutils.obj
 0004:00001590       $pdata$__get_machine_control 000000018007e590     LIBCMTD:_fenvutils.obj
 0004:0000159c       $pdata$__get_machine_status 000000018007e59c     LIBCMTD:_fenvutils.obj
 0004:000015a8       $pdata$_getfpcontrolword   000000018007e5a8     LIBCMTD:_fenvutils.obj
 0004:000015b4       $pdata$_getfpstatusword    000000018007e5b4     LIBCMTD:_fenvutils.obj
 0004:000015c0       $pdata$_setfpcontrolword   000000018007e5c0     LIBCMTD:_fenvutils.obj
 0004:000015cc       $pdata$_setfpstatusword    000000018007e5cc     LIBCMTD:_fenvutils.obj
 0004:000015d8       $pdata$__free_lconv_mon    000000018007e5d8     LIBCMTD:initmon.obj
 0004:000015e4       $pdata$__init_monetary     000000018007e5e4     LIBCMTD:initmon.obj
 0004:000015f0       $pdata$fix_grouping        000000018007e5f0     LIBCMTD:initmon.obj
 0004:000015fc       $pdata$__free_lconv_num    000000018007e5fc     LIBCMTD:initnum.obj
 0004:00001608       $pdata$__init_numeric      000000018007e608     LIBCMTD:initnum.obj
 0004:00001614       $pdata$fix_grouping        000000018007e614     LIBCMTD:initnum.obj
 0004:00001620       $pdata$__free_lc_time      000000018007e620     LIBCMTD:inittime.obj
 0004:0000162c       $pdata$__init_time         000000018007e62c     LIBCMTD:inittime.obj
 0004:00001638       $pdata$_get_lc_time        000000018007e638     LIBCMTD:inittime.obj
 0004:00001644       $pdata$localeconv          000000018007e644     LIBCMTD:lconv.obj
 0004:00001650       $pdata$__pctype_func       000000018007e650     LIBCMTD:ctype.obj
 0004:0000165c       $pdata$?__crtLCMapStringA_stat@@YAHPEAUlocaleinfo_struct@@PEB_WKPEBDHPEADHHH@Z 000000018007e65c     LIBCMTD:a_map.obj
 0004:00001668       $pdata$?strncnt@@YAHPEBDH@Z 000000018007e668     LIBCMTD:a_map.obj
 0004:00001674       $pdata$_MallocaIsSizeInRange 000000018007e674     LIBCMTD:a_map.obj
 0004:00001680       $pdata$__crtLCMapStringA   000000018007e680     LIBCMTD:a_map.obj
 0004:0000168c       $pdata$_freea              000000018007e68c     LIBCMTD:a_map.obj
 0004:00001698       $pdata$?__crtGetStringTypeA_stat@@YAHPEAUlocaleinfo_struct@@KPEBDHPEAGHH@Z 000000018007e698     LIBCMTD:a_str.obj
 0004:000016a4       $pdata$__crtGetStringTypeA 000000018007e6a4     LIBCMTD:a_str.obj
 0004:000016b0       $pdata$?_CatchTryBlock@@YAPEBU_s_TryBlockMapEntry@@PEBU_s_FuncInfo@@H@Z 000000018007e6b0     LIBCMTD:trnsctrl.obj
 0004:000016bc       $pdata$?_ExecutionInCatch@@YAHPEAU_xDISPATCHER_CONTEXT@@PEBU_s_FuncInfo@@@Z 000000018007e6bc     LIBCMTD:trnsctrl.obj
 0004:000016c8       $pdata$?_GetEstablisherFrame@@YAPEA_KPEA_KPEAU_xDISPATCHER_CONTEXT@@PEBU_s_FuncInfo@@0@Z 000000018007e6c8     LIBCMTD:trnsctrl.obj
 0004:000016d4       $pdata$?_GetRangeOfTrysToCheck@@YAPEBU_s_TryBlockMapEntry@@PEA_KPEBU_s_FuncInfo@@HHPEAI2PEAU_xDISPATCHER_CONTEXT@@@Z 000000018007e6d4     LIBCMTD:trnsctrl.obj
 0004:000016e0       $pdata$?__FrameUnwindToEmptyState@@YAXPEA_KPEAU_xDISPATCHER_CONTEXT@@PEBU_s_FuncInfo@@@Z 000000018007e6e0     LIBCMTD:trnsctrl.obj
 0004:000016ec       $pdata$?__SehTransFilter@@YAHPEAU_EXCEPTION_POINTERS@@PEAUEHExceptionRecord@@PEA_KPEAU_CONTEXT@@PEAU_xDISPATCHER_CONTEXT@@PEBU_s_FuncInfo@@PEAH@Z 000000018007e6ec     LIBCMTD:trnsctrl.obj
 0004:000016f8       $pdata$_CallSETranslator   000000018007e6f8     LIBCMTD:trnsctrl.obj
 0004:00001704       $pdata$_CreateFrameInfo    000000018007e704     LIBCMTD:trnsctrl.obj
 0004:00001710       $pdata$_FindAndUnlinkFrame 000000018007e710     LIBCMTD:trnsctrl.obj
 0004:0000171c       $pdata$_GetImageBase       000000018007e71c     LIBCMTD:trnsctrl.obj
 0004:00001728       $pdata$_GetThrowImageBase  000000018007e728     LIBCMTD:trnsctrl.obj
 0004:00001734       $pdata$_IsExceptionObjectToBeDestroyed 000000018007e734     LIBCMTD:trnsctrl.obj
 0004:00001740       $pdata$_MoveContext        000000018007e740     LIBCMTD:trnsctrl.obj
 0004:0000174c       $pdata$_SetImageBase       000000018007e74c     LIBCMTD:trnsctrl.obj
 0004:00001758       $pdata$_SetThrowImageBase  000000018007e758     LIBCMTD:trnsctrl.obj
 0004:00001764       $pdata$_UnwindNestedFrames 000000018007e764     LIBCMTD:trnsctrl.obj
 0004:00001770       $pdata$__CxxFrameHandler   000000018007e770     LIBCMTD:trnsctrl.obj
 0004:0000177c       $pdata$__CxxFrameHandler2  000000018007e77c     LIBCMTD:trnsctrl.obj
 0004:00001788       $pdata$__CxxFrameHandler3  000000018007e788     LIBCMTD:trnsctrl.obj
 0004:00001794       $pdata$_add_exp            000000018007e794     LIBCMTD:util.obj
 0004:000017a0       $pdata$_decomp             000000018007e7a0     LIBCMTD:util.obj
 0004:000017ac       $pdata$_get_exp            000000018007e7ac     LIBCMTD:util.obj
 0004:000017b8       $pdata$_set_bexp           000000018007e7b8     LIBCMTD:util.obj
 0004:000017c4       $pdata$_set_exp            000000018007e7c4     LIBCMTD:util.obj
 0004:000017dc       $pdata$_locterm            000000018007e7dc     LIBCMTD:wsetloca.obj
 0004:000017e8       $pdata$__copy_locale_name  000000018007e7e8     LIBCMTD:wsetloca.obj
 0004:000017f4       $pdata$__create_locale     000000018007e7f4     LIBCMTD:wsetloca.obj
 0004:00001800       $pdata$__free_locale       000000018007e800     LIBCMTD:wsetloca.obj
 0004:0000180c       $pdata$__get_current_locale 000000018007e80c     LIBCMTD:wsetloca.obj
 0004:00001818       $pdata$__lc_lctowcs        000000018007e818     LIBCMTD:wsetloca.obj
 0004:00001824       $pdata$__lc_wcstolc        000000018007e824     LIBCMTD:wsetloca.obj
 0004:00001830       $pdata$_configthreadlocale 000000018007e830     LIBCMTD:wsetloca.obj
 0004:0000183c       $pdata$_copytlocinfo_nolock 000000018007e83c     LIBCMTD:wsetloca.obj
 0004:00001848       $pdata$_create_locale      000000018007e848     LIBCMTD:wsetloca.obj
 0004:00001854       $pdata$_expandlocale       000000018007e854     LIBCMTD:wsetloca.obj
 0004:00001860       $pdata$_free_locale        000000018007e860     LIBCMTD:wsetloca.obj
 0004:0000186c       $pdata$_get_current_locale 000000018007e86c     LIBCMTD:wsetloca.obj
 0004:00001878       $pdata$_wcreate_locale     000000018007e878     LIBCMTD:wsetloca.obj
 0004:00001884       $pdata$_wcscats            000000018007e884     LIBCMTD:wsetloca.obj
 0004:00001890       $pdata$_wsetlocale         000000018007e890     LIBCMTD:wsetloca.obj
 0004:0000189c       $pdata$_wsetlocale_get_all 000000018007e89c     LIBCMTD:wsetloca.obj
 0004:000018a8       $pdata$_wsetlocale_nolock  000000018007e8a8     LIBCMTD:wsetloca.obj
 0004:000018b4       $pdata$_wsetlocale_set_cat 000000018007e8b4     LIBCMTD:wsetloca.obj
 0004:000018c0       $pdata$__iswcsym           000000018007e8c0     LIBCMTD:_wctype.obj
 0004:000018cc       $pdata$__iswcsymf          000000018007e8cc     LIBCMTD:_wctype.obj
 0004:000018d8       $pdata$_isleadbyte_l       000000018007e8d8     LIBCMTD:_wctype.obj
 0004:000018e4       $pdata$_iswalnum_l         000000018007e8e4     LIBCMTD:_wctype.obj
 0004:000018f0       $pdata$_iswalpha_l         000000018007e8f0     LIBCMTD:_wctype.obj
 0004:000018fc       $pdata$_iswblank_l         000000018007e8fc     LIBCMTD:_wctype.obj
 0004:00001908       $pdata$_iswcntrl_l         000000018007e908     LIBCMTD:_wctype.obj
 0004:00001914       $pdata$_iswcsym_l          000000018007e914     LIBCMTD:_wctype.obj
 0004:00001920       $pdata$_iswcsymf_l         000000018007e920     LIBCMTD:_wctype.obj
 0004:0000192c       $pdata$_iswdigit_l         000000018007e92c     LIBCMTD:_wctype.obj
 0004:00001938       $pdata$_iswgraph_l         000000018007e938     LIBCMTD:_wctype.obj
 0004:00001944       $pdata$_iswlower_l         000000018007e944     LIBCMTD:_wctype.obj
 0004:00001950       $pdata$_iswprint_l         000000018007e950     LIBCMTD:_wctype.obj
 0004:0000195c       $pdata$_iswpunct_l         000000018007e95c     LIBCMTD:_wctype.obj
 0004:00001968       $pdata$_iswspace_l         000000018007e968     LIBCMTD:_wctype.obj
 0004:00001974       $pdata$_iswupper_l         000000018007e974     LIBCMTD:_wctype.obj
 0004:00001980       $pdata$_iswxdigit_l        000000018007e980     LIBCMTD:_wctype.obj
 0004:0000198c       $pdata$isleadbyte          000000018007e98c     LIBCMTD:_wctype.obj
 0004:00001998       $pdata$iswalnum            000000018007e998     LIBCMTD:_wctype.obj
 0004:000019a4       $pdata$iswalpha            000000018007e9a4     LIBCMTD:_wctype.obj
 0004:000019b0       $pdata$iswascii            000000018007e9b0     LIBCMTD:_wctype.obj
 0004:000019bc       $pdata$iswblank            000000018007e9bc     LIBCMTD:_wctype.obj
 0004:000019c8       $pdata$iswcntrl            000000018007e9c8     LIBCMTD:_wctype.obj
 0004:000019d4       $pdata$iswdigit            000000018007e9d4     LIBCMTD:_wctype.obj
 0004:000019e0       $pdata$iswgraph            000000018007e9e0     LIBCMTD:_wctype.obj
 0004:000019ec       $pdata$iswlower            000000018007e9ec     LIBCMTD:_wctype.obj
 0004:000019f8       $pdata$iswprint            000000018007e9f8     LIBCMTD:_wctype.obj
 0004:00001a04       $pdata$iswpunct            000000018007ea04     LIBCMTD:_wctype.obj
 0004:00001a10       $pdata$iswspace            000000018007ea10     LIBCMTD:_wctype.obj
 0004:00001a1c       $pdata$iswupper            000000018007ea1c     LIBCMTD:_wctype.obj
 0004:00001a28       $pdata$iswxdigit           000000018007ea28     LIBCMTD:_wctype.obj
 0004:00001a34       $pdata$__isa_available_init 000000018007ea34     LIBCMTD:cpu_disp.obj
 0004:00001a40       $pdata$_CopyMan            000000018007ea40     LIBCMTD:intrncvt.obj
 0004:00001a4c       $pdata$_FillZeroMan        000000018007ea4c     LIBCMTD:intrncvt.obj
 0004:00001a58       $pdata$_IncMan             000000018007ea58     LIBCMTD:intrncvt.obj
 0004:00001a64       $pdata$_IsZeroMan          000000018007ea64     LIBCMTD:intrncvt.obj
 0004:00001a70       $pdata$_RoundMan           000000018007ea70     LIBCMTD:intrncvt.obj
 0004:00001a7c       $pdata$_ShrMan             000000018007ea7c     LIBCMTD:intrncvt.obj
 0004:00001a88       $pdata$_ZeroTail           000000018007ea88     LIBCMTD:intrncvt.obj
 0004:00001a94       $pdata$__addl              000000018007ea94     LIBCMTD:intrncvt.obj
 0004:00001aa0       $pdata$_ld12cvt            000000018007eaa0     LIBCMTD:intrncvt.obj
 0004:00001aac       $pdata$_ld12tod            000000018007eaac     LIBCMTD:intrncvt.obj
 0004:00001ab8       $pdata$_ld12tof            000000018007eab8     LIBCMTD:intrncvt.obj
 0004:00001ac4       $pdata$_ld12told           000000018007eac4     LIBCMTD:intrncvt.obj
 0004:00001ad0       $pdata$__STRINGTOLD_L      000000018007ead0     LIBCMTD:strgtold.obj
 0004:00001adc       $pdata$__ld12mul           000000018007eadc     LIBCMTD:strgtold.obj
 0004:00001ae8       $pdata$__multtenpow12      000000018007eae8     LIBCMTD:strgtold.obj
 0004:00001af4       $pdata$__shl_12            000000018007eaf4     LIBCMTD:strgtold.obj
 0004:00001b00       $pdata$__shr_12            000000018007eb00     LIBCMTD:strgtold.obj
 0004:00001b0c       $pdata$__strgtold12_l      000000018007eb0c     LIBCMTD:strgtold.obj
 0004:00001b18       $pdata$$I10_OUTPUT         000000018007eb18     LIBCMTD:x10fout.obj
 0004:00001b24       $pdata$__add_12            000000018007eb24     LIBCMTD:x10fout.obj
 0004:00001b30       $pdata$memcpy_s            000000018007eb30     LIBCMTD:memcpy_s.obj
 0004:00001b3c       $pdata$wcscpy_s            000000018007eb3c     LIBCMTD:wcscpy_s.obj
 0004:00001b48       $pdata$wcslen              000000018007eb48     LIBCMTD:wcslen.obj
 0004:00001b54       $pdata$__swprintf_l        000000018007eb54     LIBCMTD:swprintf.obj
 0004:00001b60       $pdata$_scwprintf          000000018007eb60     LIBCMTD:swprintf.obj
 0004:00001b6c       $pdata$_scwprintf_l        000000018007eb6c     LIBCMTD:swprintf.obj
 0004:00001b78       $pdata$_scwprintf_p        000000018007eb78     LIBCMTD:swprintf.obj
 0004:00001b84       $pdata$_scwprintf_p_l      000000018007eb84     LIBCMTD:swprintf.obj
 0004:00001b90       $pdata$_snwprintf_s        000000018007eb90     LIBCMTD:swprintf.obj
 0004:00001b9c       $pdata$_snwprintf_s_l      000000018007eb9c     LIBCMTD:swprintf.obj
 0004:00001ba8       $pdata$_swprintf           000000018007eba8     LIBCMTD:swprintf.obj
 0004:00001bb4       $pdata$_swprintf_p         000000018007ebb4     LIBCMTD:swprintf.obj
 0004:00001bc0       $pdata$_swprintf_p_l       000000018007ebc0     LIBCMTD:swprintf.obj
 0004:00001bcc       $pdata$_swprintf_s_l       000000018007ebcc     LIBCMTD:swprintf.obj
 0004:00001bd8       $pdata$swprintf_s          000000018007ebd8     LIBCMTD:swprintf.obj
 0004:00001be4       $pdata$__crtMessageBoxW    000000018007ebe4     LIBCMTD:crtmboxw.obj
 0004:00001bf0       $pdata$__crtMessageBoxWaitThreadW 000000018007ebf0     LIBCMTD:crtmboxw.obj
 0004:00001bfc       $pdata$_CrtSetReportFile   000000018007ebfc     LIBCMTD:dbgrptt.obj
 0004:00001c08       $pdata$_CrtSetReportHook   000000018007ec08     LIBCMTD:dbgrptt.obj
 0004:00001c14       $pdata$_CrtSetReportMode   000000018007ec14     LIBCMTD:dbgrptt.obj
 0004:00001c20       $pdata$_VCrtDbgReportA     000000018007ec20     LIBCMTD:dbgrptt.obj
 0004:00001c2c       $pdata$_VCrtDbgReportW     000000018007ec2c     LIBCMTD:dbgrptt.obj
 0004:00001c44       $pdata$wcscat_s            000000018007ec44     LIBCMTD:wcscat_s.obj
 0004:00001c50       $pdata$wcsncpy_s           000000018007ec50     LIBCMTD:wcsncpy_s.obj
 0004:00001c5c       $pdata$_set_error_mode     000000018007ec5c     LIBCMTD:errmode.obj
 0004:00001c68       $pdata$_set_abort_behavior 000000018007ec68     LIBCMTD:abort.obj
 0004:00001c74       $pdata$abort               000000018007ec74     LIBCMTD:abort.obj
 0004:00001c80       $pdata$strncpy_s           000000018007ec80     LIBCMTD:strncpy_s.obj
 0004:00001c8c       $pdata$?__crtGetLocaleInfoA_stat@@YAHPEAUlocaleinfo_struct@@PEB_WKPEADH@Z 000000018007ec8c     LIBCMTD:a_loc.obj
 0004:00001c98       $pdata$__crtGetLocaleInfoA 000000018007ec98     LIBCMTD:a_loc.obj
 0004:00001ca4       $pdata$GetTableIndexFromLcid 000000018007eca4     LIBCMTD:winapinls.obj
 0004:00001cb0       $pdata$GetTableIndexFromLocaleName 000000018007ecb0     LIBCMTD:winapinls.obj
 0004:00001cbc       $pdata$__crtCompareStringEx 000000018007ecbc     LIBCMTD:winapinls.obj
 0004:00001cc8       $pdata$__crtDownlevelLCIDToLocaleName 000000018007ecc8     LIBCMTD:winapinls.obj
 0004:00001cd4       $pdata$__crtDownlevelLocaleNameToLCID 000000018007ecd4     LIBCMTD:winapinls.obj
 0004:00001ce0       $pdata$__crtEnumLocalesProc 000000018007ece0     LIBCMTD:winapinls.obj
 0004:00001cec       $pdata$__crtEnumSystemLocalesEx 000000018007ecec     LIBCMTD:winapinls.obj
 0004:00001cf8       $pdata$__crtGetDateFormatEx 000000018007ecf8     LIBCMTD:winapinls.obj
 0004:00001d04       $pdata$__crtGetLocaleInfoEx 000000018007ed04     LIBCMTD:winapinls.obj
 0004:00001d10       $pdata$__crtGetTimeFormatEx 000000018007ed10     LIBCMTD:winapinls.obj
 0004:00001d1c       $pdata$__crtGetUserDefaultLocaleName 000000018007ed1c     LIBCMTD:winapinls.obj
 0004:00001d28       $pdata$__crtIsValidLocaleName 000000018007ed28     LIBCMTD:winapinls.obj
 0004:00001d34       $pdata$__crtLCMapStringEx  000000018007ed34     LIBCMTD:winapinls.obj
 0004:00001d40       $pdata$__wcsnicmp_ascii    000000018007ed40     LIBCMTD:winapinls.obj
 0004:00001d4c       $pdata$_fileno             000000018007ed4c     LIBCMTD:fileno.obj
 0004:00001d58       $pdata$_isatty             000000018007ed58     LIBCMTD:isatty.obj
 0004:00001d64       $pdata$_fflush_nolock      000000018007ed64     LIBCMTD:fflush.obj
 0004:00001d70       $pdata$_flush              000000018007ed70     LIBCMTD:fflush.obj
 0004:00001d7c       $pdata$_flushall           000000018007ed7c     LIBCMTD:fflush.obj
 0004:00001d88       $pdata$fflush              000000018007ed88     LIBCMTD:fflush.obj
 0004:00001d94       $pdata$flsall              000000018007ed94     LIBCMTD:fflush.obj
 0004:00001da0       $pdata$_fcloseall          000000018007eda0     LIBCMTD:closeall.obj
 0004:00001dac       $pdata$_flsbuf             000000018007edac     LIBCMTD:_flsbuf.obj
 0004:00001db8       $pdata$_vscprintf          000000018007edb8     LIBCMTD:vsprintf.obj
 0004:00001dc4       $pdata$_vscprintf_helper   000000018007edc4     LIBCMTD:vsprintf.obj
 0004:00001dd0       $pdata$_vscprintf_l        000000018007edd0     LIBCMTD:vsprintf.obj
 0004:00001ddc       $pdata$_vscprintf_p        000000018007eddc     LIBCMTD:vsprintf.obj
 0004:00001de8       $pdata$_vscprintf_p_l      000000018007ede8     LIBCMTD:vsprintf.obj
 0004:00001df4       $pdata$_vsprintf_l         000000018007edf4     LIBCMTD:vsprintf.obj
 0004:00001e00       $pdata$vsprintf            000000018007ee00     LIBCMTD:vsprintf.obj
 0004:00001e0c       $pdata$_vsnprintf_c        000000018007ee0c     LIBCMTD:vsnprnc.obj
 0004:00001e18       $pdata$_vsnprintf_c_l      000000018007ee18     LIBCMTD:vsnprnc.obj
 0004:00001e24       $pdata$_vsnprintf_helper   000000018007ee24     LIBCMTD:vsnprnc.obj
 0004:00001e30       $pdata$_vsnprintf_s        000000018007ee30     LIBCMTD:vsnprnc.obj
 0004:00001e3c       $pdata$_vsnprintf_s_l      000000018007ee3c     LIBCMTD:vsnprnc.obj
 0004:00001e48       $pdata$_vsprintf_p         000000018007ee48     LIBCMTD:vsnprnc.obj
 0004:00001e54       $pdata$_vsprintf_p_l       000000018007ee54     LIBCMTD:vsnprnc.obj
 0004:00001e60       $pdata$_vsprintf_s_l       000000018007ee60     LIBCMTD:vsnprnc.obj
 0004:00001e6c       $pdata$vsprintf_s          000000018007ee6c     LIBCMTD:vsnprnc.obj
 0004:00001e78       $pdata$_output_l           000000018007ee78     LIBCMTD:output.obj
 0004:00001e84       $pdata$get_int64_arg       000000018007ee84     LIBCMTD:output.obj
 0004:00001e90       $pdata$get_int_arg         000000018007ee90     LIBCMTD:output.obj
 0004:00001e9c       $pdata$get_short_arg       000000018007ee9c     LIBCMTD:output.obj
 0004:00001ea8       $pdata$write_char          000000018007eea8     LIBCMTD:output.obj
 0004:00001eb4       $pdata$write_multi_char    000000018007eeb4     LIBCMTD:output.obj
 0004:00001ec0       $pdata$write_string        000000018007eec0     LIBCMTD:output.obj
 0004:00001ecc       $pdata$fegetexceptflag     000000018007eecc     LIBCMTD:fegetexceptflag.obj
 0004:00001ed8       $pdata$_abstract_cw        000000018007eed8     LIBCMTD:ieee.obj
 0004:00001ee4       $pdata$_abstract_sw        000000018007eee4     LIBCMTD:ieee.obj
 0004:00001ef0       $pdata$_clearfp            000000018007eef0     LIBCMTD:ieee.obj
 0004:00001efc       $pdata$_control87          000000018007eefc     LIBCMTD:ieee.obj
 0004:00001f08       $pdata$_controlfp          000000018007ef08     LIBCMTD:ieee.obj
 0004:00001f14       $pdata$_fpreset            000000018007ef14     LIBCMTD:ieee.obj
 0004:00001f20       $pdata$_hw_cw              000000018007ef20     LIBCMTD:ieee.obj
 0004:00001f2c       $pdata$_set_controlfp      000000018007ef2c     LIBCMTD:ieee.obj
 0004:00001f38       $pdata$_statusfp           000000018007ef38     LIBCMTD:ieee.obj
 0004:00001f44       $pdata$free                000000018007ef44     LIBCMTD:dbgfree.obj
 0004:00001f50       $pdata$malloc              000000018007ef50     LIBCMTD:dbgmalloc.obj
 0004:00001f5c       $pdata$__DestructExceptionObject 000000018007ef5c     LIBCMTD:frame.obj
 0004:00001f68       $pdata$??0bad_exception@std@@QEAA@AEBV01@@Z 000000018007ef68     LIBCMTD:frame.obj
 0004:00001f74       $pdata$??0bad_exception@std@@QEAA@PEBD@Z 000000018007ef74     LIBCMTD:frame.obj
 0004:00001f80       $pdata$??1bad_exception@std@@UEAA@XZ 000000018007ef80     LIBCMTD:frame.obj
 0004:00001f8c       $pdata$??_Gbad_exception@std@@UEAAPEAXI@Z 000000018007ef8c     LIBCMTD:frame.obj
 0004:00001f98       $pdata$?CatchIt@@YAXPEAUEHExceptionRecord@@PEA_KPEAU_CONTEXT@@PEAU_xDISPATCHER_CONTEXT@@PEBU_s_FuncInfo@@PEBU_s_HandlerType@@PEBU_s_CatchableType@@PEBU_s_TryBlockMapEntry@@H1EE@Z 000000018007ef98     LIBCMTD:frame.obj
 0004:00001fa4       $pdata$?ExFilterRethrow@@YAHPEAU_EXCEPTION_POINTERS@@PEAUEHExceptionRecord@@PEAH@Z 000000018007efa4     LIBCMTD:frame.obj
 0004:00001fb0       $pdata$?FindHandler@@YAXPEAUEHExceptionRecord@@PEA_KPEAU_CONTEXT@@PEAU_xDISPATCHER_CONTEXT@@PEBU_s_FuncInfo@@EH1@Z 000000018007efb0     LIBCMTD:frame.obj
 0004:00001fbc       $pdata$?FindHandlerForForeignException@@YAXPEAUEHExceptionRecord@@PEA_KPEAU_CONTEXT@@PEAU_xDISPATCHER_CONTEXT@@PEBU_s_FuncInfo@@HH1@Z 000000018007efbc     LIBCMTD:frame.obj
 0004:00001fc8       $pdata$?IsInExceptionSpec@@YAEPEAUEHExceptionRecord@@PEBU_s_ESTypeList@@@Z 000000018007efc8     LIBCMTD:frame.obj
 0004:00001fd4       $pdata$?Is_bad_exception_allowed@@YAEPEBU_s_ESTypeList@@@Z 000000018007efd4     LIBCMTD:frame.obj
 0004:00001fe0       $pdata$?__RethrowException@@YAXPEAUEHExceptionRecord@@@Z 000000018007efe0     LIBCMTD:frame.obj
 0004:00001fec       $pdata$?__uncaught_exception@@YA_NXZ 000000018007efec     LIBCMTD:frame.obj
 0004:00001ff8       $pdata$?_is_exception_typeof@@YAHAEBVtype_info@@PEAU_EXCEPTION_POINTERS@@@Z 000000018007eff8     LIBCMTD:frame.obj
 0004:00002004       $pdata$__AdjustPointer     000000018007f004     LIBCMTD:frame.obj
 0004:00002010       $pdata$__BuildCatchObject  000000018007f010     LIBCMTD:frame.obj
 0004:0000201c       $pdata$__BuildCatchObjectHelper 000000018007f01c     LIBCMTD:frame.obj
 0004:00002028       $pdata$__CxxCallCatchBlock 000000018007f028     LIBCMTD:frame.obj
 0004:00002034       $pdata$__CxxDetectRethrow  000000018007f034     LIBCMTD:frame.obj
 0004:00002040       $pdata$__CxxExceptionFilter 000000018007f040     LIBCMTD:frame.obj
 0004:0000204c       $pdata$__CxxRegisterExceptionObject 000000018007f04c     LIBCMTD:frame.obj
 0004:00002058       $pdata$__CxxUnregisterExceptionObject 000000018007f058     LIBCMTD:frame.obj
 0004:00002064       $pdata$__FrameUnwindFilter 000000018007f064     LIBCMTD:frame.obj
 0004:00002070       $pdata$__FrameUnwindToState 000000018007f070     LIBCMTD:frame.obj
 0004:0000207c       $pdata$__GetPlatformExceptionInfo 000000018007f07c     LIBCMTD:frame.obj
 0004:00002088       $pdata$__InternalCxxFrameHandler 000000018007f088     LIBCMTD:frame.obj
 0004:00002094       $pdata$__TypeMatch         000000018007f094     LIBCMTD:frame.obj
 0004:000020a0       $pdata$?__GetCurrentState@@YAHPEA_KPEAU_xDISPATCHER_CONTEXT@@PEBU_s_FuncInfo@@@Z 000000018007f0a0     LIBCMTD:ehstate.obj
 0004:000020ac       $pdata$?__GetUnwindTryBlock@@YAHPEA_KPEAU_xDISPATCHER_CONTEXT@@PEBU_s_FuncInfo@@@Z 000000018007f0ac     LIBCMTD:ehstate.obj
 0004:000020b8       $pdata$?__SetUnwindTryBlock@@YAXPEA_KPEAU_xDISPATCHER_CONTEXT@@PEBU_s_FuncInfo@@H@Z 000000018007f0b8     LIBCMTD:ehstate.obj
 0004:000020c4       $pdata$?__StateFromControlPc@@YAHPEBU_s_FuncInfo@@PEAU_xDISPATCHER_CONTEXT@@@Z 000000018007f0c4     LIBCMTD:ehstate.obj
 0004:000020d0       $pdata$?__StateFromIp@@YAHPEBU_s_FuncInfo@@PEAU_xDISPATCHER_CONTEXT@@_J@Z 000000018007f0d0     LIBCMTD:ehstate.obj
 0004:000020dc       $pdata$___lc_codepage_func 000000018007f0dc     LIBCMTD:initctyp.obj
 0004:000020e8       $pdata$___lc_collate_cp_func 000000018007f0e8     LIBCMTD:initctyp.obj
 0004:000020f4       $pdata$___lc_locale_name_func 000000018007f0f4     LIBCMTD:initctyp.obj
 0004:00002100       $pdata$___mb_cur_max_func  000000018007f100     LIBCMTD:initctyp.obj
 0004:0000210c       $pdata$___mb_cur_max_l_func 000000018007f10c     LIBCMTD:initctyp.obj
 0004:00002118       $pdata$__init_ctype        000000018007f118     LIBCMTD:initctyp.obj
 0004:00002130       $pdata$wcscmp              000000018007f130     LIBCMTD:wcscmp.obj
 0004:0000213c       $pdata$wcscspn             000000018007f13c     LIBCMTD:wcscspn.obj
 0004:00002148       $pdata$wcsnlen             000000018007f148     LIBCMTD:wcslen_s.obj
 0004:00002154       $pdata$wcspbrk             000000018007f154     LIBCMTD:wcspbrk.obj
 0004:00002160       $pdata$GetLocaleNameFromDefault 000000018007f160     LIBCMTD:getqloc.obj
 0004:0000216c       $pdata$GetLocaleNameFromLangCountry 000000018007f16c     LIBCMTD:getqloc.obj
 0004:00002178       $pdata$GetLocaleNameFromLanguage 000000018007f178     LIBCMTD:getqloc.obj
 0004:00002184       $pdata$GetPrimaryLen       000000018007f184     LIBCMTD:getqloc.obj
 0004:00002190       $pdata$LangCountryEnumProcEx 000000018007f190     LIBCMTD:getqloc.obj
 0004:0000219c       $pdata$LanguageEnumProcEx  000000018007f19c     LIBCMTD:getqloc.obj
 0004:000021a8       $pdata$ProcessCodePage     000000018007f1a8     LIBCMTD:getqloc.obj
 0004:000021b4       $pdata$TestDefaultCountry  000000018007f1b4     LIBCMTD:getqloc.obj
 0004:000021c0       $pdata$TestDefaultLanguage 000000018007f1c0     LIBCMTD:getqloc.obj
 0004:000021cc       $pdata$TranslateName       000000018007f1cc     LIBCMTD:getqloc.obj
 0004:000021d8       $pdata$__get_qualified_locale 000000018007f1d8     LIBCMTD:getqloc.obj
 0004:000021e4       $pdata$CountryEnumProc     000000018007f1e4     LIBCMTD:getqloc_downlevel.obj
 0004:000021f0       $pdata$GetLcidFromCountry  000000018007f1f0     LIBCMTD:getqloc_downlevel.obj
 0004:000021fc       $pdata$GetLcidFromDefault  000000018007f1fc     LIBCMTD:getqloc_downlevel.obj
 0004:00002208       $pdata$GetLcidFromLangCountry 000000018007f208     LIBCMTD:getqloc_downlevel.obj
 0004:00002214       $pdata$GetLcidFromLanguage 000000018007f214     LIBCMTD:getqloc_downlevel.obj
 0004:00002220       $pdata$GetPrimaryLen       000000018007f220     LIBCMTD:getqloc_downlevel.obj
 0004:0000222c       $pdata$LangCountryEnumProc 000000018007f22c     LIBCMTD:getqloc_downlevel.obj
 0004:00002238       $pdata$LanguageEnumProc    000000018007f238     LIBCMTD:getqloc_downlevel.obj
 0004:00002244       $pdata$LcidFromHexString   000000018007f244     LIBCMTD:getqloc_downlevel.obj
 0004:00002250       $pdata$ProcessCodePage     000000018007f250     LIBCMTD:getqloc_downlevel.obj
 0004:0000225c       $pdata$TestDefaultCountry  000000018007f25c     LIBCMTD:getqloc_downlevel.obj
 0004:00002268       $pdata$TestDefaultLanguage 000000018007f268     LIBCMTD:getqloc_downlevel.obj
 0004:00002274       $pdata$TranslateName       000000018007f274     LIBCMTD:getqloc_downlevel.obj
 0004:00002280       $pdata$__get_qualified_locale_downlevel 000000018007f280     LIBCMTD:getqloc_downlevel.obj
 0004:0000228c       $pdata$_iswctype_l         000000018007f28c     LIBCMTD:iswctype.obj
 0004:00002298       $pdata$is_wctype           000000018007f298     LIBCMTD:iswctype.obj
 0004:000022a4       $pdata$iswctype            000000018007f2a4     LIBCMTD:iswctype.obj
 0004:000022b0       $pdata$__mtold12           000000018007f2b0     LIBCMTD:mantold.obj
 0004:000022bc       $pdata$__vswprintf_l       000000018007f2bc     LIBCMTD:vswprint.obj
 0004:000022c8       $pdata$_vscwprintf         000000018007f2c8     LIBCMTD:vswprint.obj
 0004:000022d4       $pdata$_vscwprintf_helper  000000018007f2d4     LIBCMTD:vswprint.obj
 0004:000022e0       $pdata$_vscwprintf_l       000000018007f2e0     LIBCMTD:vswprint.obj
 0004:000022ec       $pdata$_vscwprintf_p       000000018007f2ec     LIBCMTD:vswprint.obj
 0004:000022f8       $pdata$_vscwprintf_p_l     000000018007f2f8     LIBCMTD:vswprint.obj
 0004:00002304       $pdata$_vswprintf          000000018007f304     LIBCMTD:vswprint.obj
 0004:00002310       $pdata$_vswprintf_l        000000018007f310     LIBCMTD:vswprint.obj
 0004:0000231c       $pdata$_vsnwprintf_s       000000018007f31c     LIBCMTD:vswprnc.obj
 0004:00002328       $pdata$_vsnwprintf_s_l     000000018007f328     LIBCMTD:vswprnc.obj
 0004:00002334       $pdata$_vswprintf_c        000000018007f334     LIBCMTD:vswprnc.obj
 0004:00002340       $pdata$_vswprintf_c_l      000000018007f340     LIBCMTD:vswprnc.obj
 0004:0000234c       $pdata$_vswprintf_helper   000000018007f34c     LIBCMTD:vswprnc.obj
 0004:00002358       $pdata$_vswprintf_p        000000018007f358     LIBCMTD:vswprnc.obj
 0004:00002364       $pdata$_vswprintf_p_l      000000018007f364     LIBCMTD:vswprnc.obj
 0004:00002370       $pdata$_vswprintf_s_l      000000018007f370     LIBCMTD:vswprnc.obj
 0004:0000237c       $pdata$vswprintf_s         000000018007f37c     LIBCMTD:vswprnc.obj
 0004:00002388       $pdata$_woutput_l          000000018007f388     LIBCMTD:woutput.obj
 0004:00002394       $pdata$write_char          000000018007f394     LIBCMTD:woutput.obj
 0004:000023a0       $pdata$write_multi_char    000000018007f3a0     LIBCMTD:woutput.obj
 0004:000023ac       $pdata$write_string        000000018007f3ac     LIBCMTD:woutput.obj
 0004:000023b8       $pdata$strcat_s            000000018007f3b8     LIBCMTD:strcat_s.obj
 0004:000023c4       $pdata$_i64toa_s           000000018007f3c4     LIBCMTD:xtoas.obj
 0004:000023d0       $pdata$_itoa_s             000000018007f3d0     LIBCMTD:xtoas.obj
 0004:000023dc       $pdata$_ltoa_s             000000018007f3dc     LIBCMTD:xtoas.obj
 0004:000023e8       $pdata$_ui64toa_s          000000018007f3e8     LIBCMTD:xtoas.obj
 0004:000023f4       $pdata$_ultoa_s            000000018007f3f4     LIBCMTD:xtoas.obj
 0004:00002400       $pdata$x64toa_s            000000018007f400     LIBCMTD:xtoas.obj
 0004:0000240c       $pdata$xtoa_s              000000018007f40c     LIBCMTD:xtoas.obj
 0004:00002418       $pdata$_mbstowcs_l         000000018007f418     LIBCMTD:mbstowcs.obj
 0004:00002424       $pdata$_mbstowcs_l_helper  000000018007f424     LIBCMTD:mbstowcs.obj
 0004:00002430       $pdata$_mbstowcs_s_l       000000018007f430     LIBCMTD:mbstowcs.obj
 0004:0000243c       $pdata$mbstowcs            000000018007f43c     LIBCMTD:mbstowcs.obj
 0004:00002448       $pdata$mbstowcs_s          000000018007f448     LIBCMTD:mbstowcs.obj
 0004:00002454       $pdata$?wcsncnt@@YA_KPEB_W_K@Z 000000018007f454     LIBCMTD:wcstombs.obj
 0004:00002460       $pdata$_wcstombs_l         000000018007f460     LIBCMTD:wcstombs.obj
 0004:0000246c       $pdata$_wcstombs_l_helper  000000018007f46c     LIBCMTD:wcstombs.obj
 0004:00002478       $pdata$_wcstombs_s_l       000000018007f478     LIBCMTD:wcstombs.obj
 0004:00002484       $pdata$wcstombs            000000018007f484     LIBCMTD:wcstombs.obj
 0004:00002490       $pdata$wcstombs_s          000000018007f490     LIBCMTD:wcstombs.obj
 0004:0000249c       $pdata$_i64tow_s           000000018007f49c     LIBCMTD:xtows.obj
 0004:000024a8       $pdata$_itow_s             000000018007f4a8     LIBCMTD:xtows.obj
 0004:000024b4       $pdata$_ltow_s             000000018007f4b4     LIBCMTD:xtows.obj
 0004:000024c0       $pdata$_ui64tow_s          000000018007f4c0     LIBCMTD:xtows.obj
 0004:000024cc       $pdata$_ultow_s            000000018007f4cc     LIBCMTD:xtows.obj
 0004:000024d8       $pdata$x64tow_s            000000018007f4d8     LIBCMTD:xtows.obj
 0004:000024e4       $pdata$xtow_s              000000018007f4e4     LIBCMTD:xtows.obj
 0004:000024f0       $pdata$__GSHandlerCheck_SEH 000000018007f4f0     LIBCMTD:gshandlerseh.obj
 0004:000024fc       $pdata$_commit             000000018007f4fc     LIBCMTD:commit.obj
 0004:00002508       $pdata$_write              000000018007f508     LIBCMTD:write.obj
 0004:00002514       $pdata$_write_nolock       000000018007f514     LIBCMTD:write.obj
 0004:00002520       $pdata$_fclose_nolock      000000018007f520     LIBCMTD:fclose.obj
 0004:0000252c       $pdata$fclose              000000018007f52c     LIBCMTD:fclose.obj
 0004:00002538       $pdata$_lseeki64           000000018007f538     LIBCMTD:lseeki64.obj
 0004:00002544       $pdata$_lseeki64_nolock    000000018007f544     LIBCMTD:lseeki64.obj
 0004:00002550       $pdata$_getbuf             000000018007f550     LIBCMTD:_getbuf.obj
 0004:0000255c       $pdata$_output_p_l         000000018007f55c     LIBCMTD:outputp.obj
 0004:00002568       $pdata$_validate_param_reuseA 000000018007f568     LIBCMTD:outputp.obj
 0004:00002574       $pdata$get_crtdouble_arg   000000018007f574     LIBCMTD:outputp.obj
 0004:00002580       $pdata$write_char          000000018007f580     LIBCMTD:outputp.obj
 0004:0000258c       $pdata$write_multi_char    000000018007f58c     LIBCMTD:outputp.obj
 0004:00002598       $pdata$write_string        000000018007f598     LIBCMTD:outputp.obj
 0004:000025a4       $pdata$_output_s_l         000000018007f5a4     LIBCMTD:outputs.obj
 0004:000025b0       $pdata$write_char          000000018007f5b0     LIBCMTD:outputs.obj
 0004:000025bc       $pdata$write_multi_char    000000018007f5bc     LIBCMTD:outputs.obj
 0004:000025c8       $pdata$write_string        000000018007f5c8     LIBCMTD:outputs.obj
 0004:000025d4       $pdata$_get_printf_count_output 000000018007f5d4     LIBCMTD:printf.obj
 0004:000025e0       $pdata$_printf_l           000000018007f5e0     LIBCMTD:printf.obj
 0004:000025ec       $pdata$_printf_p           000000018007f5ec     LIBCMTD:printf.obj
 0004:000025f8       $pdata$_printf_p_l         000000018007f5f8     LIBCMTD:printf.obj
 0004:00002604       $pdata$_printf_s_l         000000018007f604     LIBCMTD:printf.obj
 0004:00002610       $pdata$_set_printf_count_output 000000018007f610     LIBCMTD:printf.obj
 0004:0000261c       $pdata$printf              000000018007f61c     LIBCMTD:printf.obj
 0004:00002628       $pdata$printf_s            000000018007f628     LIBCMTD:printf.obj
 0004:00002634       $pdata$_wctomb_l           000000018007f634     LIBCMTD:wctomb.obj
 0004:00002640       $pdata$_wctomb_s_l         000000018007f640     LIBCMTD:wctomb.obj
 0004:0000264c       $pdata$wctomb              000000018007f64c     LIBCMTD:wctomb.obj
 0004:00002658       $pdata$wctomb_s            000000018007f658     LIBCMTD:wctomb.obj
 0004:00002664       $pdata$??3@YAXPEAX@Z       000000018007f664     LIBCMTD:dbgdel.obj
 0004:0000267c       $pdata$?_ValidateExecute@@YAHP6A_JXZ@Z 000000018007f67c     LIBCMTD:validate.obj
 0004:00002688       $pdata$?_ValidateRead@@YAHPEBXI@Z 000000018007f688     LIBCMTD:validate.obj
 0004:00002694       $pdata$?_ValidateWrite@@YAHPEAXI@Z 000000018007f694     LIBCMTD:validate.obj
 0004:000026ac       $pdata$??1type_info@@UEAA@XZ 000000018007f6ac     LIBCMTD:typinfo.obj
 0004:000026b8       $pdata$??8type_info@@QEBA_NAEBV0@@Z 000000018007f6b8     LIBCMTD:typinfo.obj
 0004:000026c4       $pdata$??9type_info@@QEBA_NAEBV0@@Z 000000018007f6c4     LIBCMTD:typinfo.obj
 0004:000026d0       $pdata$??_Gtype_info@@UEAAPEAXI@Z 000000018007f6d0     LIBCMTD:typinfo.obj
 0004:000026dc       $pdata$?_name_internal_method@type_info@@QEBAPEBDPEAU__type_info_node@@@Z 000000018007f6dc     LIBCMTD:typinfo.obj
 0004:000026e8       $pdata$?_type_info_dtor_internal_method@type_info@@QEAAXXZ 000000018007f6e8     LIBCMTD:typinfo.obj
 0004:000026f4       $pdata$?before@type_info@@QEBA_NAEBV1@@Z 000000018007f6f4     LIBCMTD:typinfo.obj
 0004:00002700       $pdata$?name@type_info@@QEBAPEBDPEAU__type_info_node@@@Z 000000018007f700     LIBCMTD:typinfo.obj
 0004:0000270c       $pdata$??0__non_rtti_object@std@@QEAA@AEBV01@@Z 000000018007f70c     LIBCMTD:stdexcpt.obj
 0004:00002718       $pdata$??0__non_rtti_object@std@@QEAA@PEBD@Z 000000018007f718     LIBCMTD:stdexcpt.obj
 0004:00002724       $pdata$??0bad_cast@std@@QEAA@AEBV01@@Z 000000018007f724     LIBCMTD:stdexcpt.obj
 0004:00002730       $pdata$??0bad_cast@std@@QEAA@PEBD@Z 000000018007f730     LIBCMTD:stdexcpt.obj
 0004:0000273c       $pdata$??0bad_typeid@std@@QEAA@AEBV01@@Z 000000018007f73c     LIBCMTD:stdexcpt.obj
 0004:00002748       $pdata$??0bad_typeid@std@@QEAA@PEBD@Z 000000018007f748     LIBCMTD:stdexcpt.obj
 0004:00002754       $pdata$??0exception@std@@QEAA@AEBQEBD@Z 000000018007f754     LIBCMTD:stdexcpt.obj
 0004:00002760       $pdata$??0exception@std@@QEAA@AEBV01@@Z 000000018007f760     LIBCMTD:stdexcpt.obj
 0004:0000276c       $pdata$??1__non_rtti_object@std@@UEAA@XZ 000000018007f76c     LIBCMTD:stdexcpt.obj
 0004:00002778       $pdata$??1bad_cast@std@@UEAA@XZ 000000018007f778     LIBCMTD:stdexcpt.obj
 0004:00002784       $pdata$??1bad_typeid@std@@UEAA@XZ 000000018007f784     LIBCMTD:stdexcpt.obj
 0004:00002790       $pdata$??1exception@std@@UEAA@XZ 000000018007f790     LIBCMTD:stdexcpt.obj
 0004:0000279c       $pdata$??4exception@std@@QEAAAEAV01@AEBV01@@Z 000000018007f79c     LIBCMTD:stdexcpt.obj
 0004:000027a8       $pdata$??_G__non_rtti_object@std@@UEAAPEAXI@Z 000000018007f7a8     LIBCMTD:stdexcpt.obj
 0004:000027b4       $pdata$??_Gbad_cast@std@@UEAAPEAXI@Z 000000018007f7b4     LIBCMTD:stdexcpt.obj
 0004:000027c0       $pdata$??_Gbad_typeid@std@@UEAAPEAXI@Z 000000018007f7c0     LIBCMTD:stdexcpt.obj
 0004:000027cc       $pdata$??_Gexception@std@@UEAAPEAXI@Z 000000018007f7cc     LIBCMTD:stdexcpt.obj
 0004:000027d8       $pdata$?_Copy_str@exception@std@@AEAAXPEBD@Z 000000018007f7d8     LIBCMTD:stdexcpt.obj
 0004:000027e4       $pdata$?_Tidy@exception@std@@AEAAXXZ 000000018007f7e4     LIBCMTD:stdexcpt.obj
 0004:000027f0       $pdata$?what@exception@std@@UEBAPEBDXZ 000000018007f7f0     LIBCMTD:stdexcpt.obj
 0004:000027fc       $pdata$_CxxThrowException  000000018007f7fc     LIBCMTD:throw.obj
 0004:00002808       $pdata$_wtoi               000000018007f808     LIBCMTD:wtox.obj
 0004:00002814       $pdata$_wtoi64             000000018007f814     LIBCMTD:wtox.obj
 0004:00002820       $pdata$_wtoi64_l           000000018007f820     LIBCMTD:wtox.obj
 0004:0000282c       $pdata$_wtoi_l             000000018007f82c     LIBCMTD:wtox.obj
 0004:00002838       $pdata$_wtol               000000018007f838     LIBCMTD:wtox.obj
 0004:00002844       $pdata$_wtol_l             000000018007f844     LIBCMTD:wtox.obj
 0004:00002850       $pdata$_wtoll              000000018007f850     LIBCMTD:wtox.obj
 0004:0000285c       $pdata$_wtoll_l            000000018007f85c     LIBCMTD:wtox.obj
 0004:00002868       $pdata$wcschr              000000018007f868     LIBCMTD:wcschr.obj
 0004:00002874       $pdata$_wcsicmp            000000018007f874     LIBCMTD:wcsicmp.obj
 0004:00002880       $pdata$_wcsicmp_l          000000018007f880     LIBCMTD:wcsicmp.obj
 0004:0000288c       $pdata$_wcsnicmp           000000018007f88c     LIBCMTD:wcsnicmp.obj
 0004:00002898       $pdata$_wcsnicmp_l         000000018007f898     LIBCMTD:wcsnicmp.obj
 0004:000028a4       $pdata$_validate_param_reuseW 000000018007f8a4     LIBCMTD:woutputp.obj
 0004:000028b0       $pdata$_woutput_p_l        000000018007f8b0     LIBCMTD:woutputp.obj
 0004:000028bc       $pdata$write_char          000000018007f8bc     LIBCMTD:woutputp.obj
 0004:000028c8       $pdata$write_multi_char    000000018007f8c8     LIBCMTD:woutputp.obj
 0004:000028d4       $pdata$write_string        000000018007f8d4     LIBCMTD:woutputp.obj
 0004:000028e0       $pdata$_woutput_s_l        000000018007f8e0     LIBCMTD:woutputs.obj
 0004:000028ec       $pdata$write_char          000000018007f8ec     LIBCMTD:woutputs.obj
 0004:000028f8       $pdata$write_multi_char    000000018007f8f8     LIBCMTD:woutputs.obj
 0004:00002904       $pdata$write_string        000000018007f904     LIBCMTD:woutputs.obj
 0004:00002910       $pdata$_fputwc_nolock      000000018007f910     LIBCMTD:fputwc.obj
 0004:0000291c       $pdata$fputwc              000000018007f91c     LIBCMTD:fputwc.obj
 0004:00002928       $pdata$putwc               000000018007f928     LIBCMTD:fputwc.obj
 0004:00002934       $pdata$_mbtowc_l           000000018007f934     LIBCMTD:mbtowc.obj
 0004:00002940       $pdata$mbtowc              000000018007f940     LIBCMTD:mbtowc.obj
 0004:0000294c       $pdata$__lock_fhandle      000000018007f94c     LIBCMTD:osfinfo.obj
 0004:00002958       $pdata$_alloc_osfhnd       000000018007f958     LIBCMTD:osfinfo.obj
 0004:00002964       $pdata$_free_osfhnd        000000018007f964     LIBCMTD:osfinfo.obj
 0004:00002970       $pdata$_get_osfhandle      000000018007f970     LIBCMTD:osfinfo.obj
 0004:0000297c       $pdata$_open_osfhandle     000000018007f97c     LIBCMTD:osfinfo.obj
 0004:00002988       $pdata$_set_osfhnd         000000018007f988     LIBCMTD:osfinfo.obj
 0004:00002994       $pdata$_unlock_fhandle     000000018007f994     LIBCMTD:osfinfo.obj
 0004:000029a0       $pdata$_putwch             000000018007f9a0     LIBCMTD:putwch.obj
 0004:000029ac       $pdata$_putwch_nolock      000000018007f9ac     LIBCMTD:putwch.obj
 0004:000029b8       $pdata$_close              000000018007f9b8     LIBCMTD:close.obj
 0004:000029c4       $pdata$_close_nolock       000000018007f9c4     LIBCMTD:close.obj
 0004:000029d0       $pdata$_freebuf            000000018007f9d0     LIBCMTD:_freebuf.obj
 0004:000029dc       $pdata$?strtoxl@@YAKPEAUlocaleinfo_struct@@PEBDPEAPEBDHH@Z 000000018007f9dc     LIBCMTD:strtol.obj
 0004:000029e8       $pdata$_strtol_l           000000018007f9e8     LIBCMTD:strtol.obj
 0004:000029f4       $pdata$_strtoul_l          000000018007f9f4     LIBCMTD:strtol.obj
 0004:00002a00       $pdata$strtol              000000018007fa00     LIBCMTD:strtol.obj
 0004:00002a0c       $pdata$strtoul             000000018007fa0c     LIBCMTD:strtol.obj
 0004:00002a18       $pdata$_vprintf_l          000000018007fa18     LIBCMTD:vprintf.obj
 0004:00002a24       $pdata$_vprintf_p          000000018007fa24     LIBCMTD:vprintf.obj
 0004:00002a30       $pdata$_vprintf_p_l        000000018007fa30     LIBCMTD:vprintf.obj
 0004:00002a3c       $pdata$_vprintf_s_l        000000018007fa3c     LIBCMTD:vprintf.obj
 0004:00002a48       $pdata$vprintf             000000018007fa48     LIBCMTD:vprintf.obj
 0004:00002a54       $pdata$vprintf_helper      000000018007fa54     LIBCMTD:vprintf.obj
 0004:00002a60       $pdata$vprintf_s           000000018007fa60     LIBCMTD:vprintf.obj
 0004:00002a6c       $pdata$?_Name_base@type_info@@CAPEBDPEBV1@PEAU__type_info_node@@@Z 000000018007fa6c     LIBCMTD:typname.obj
 0004:00002a78       $pdata$?_Name_base_internal@type_info@@CAPEBDPEBV1@PEAU__type_info_node@@@Z 000000018007fa78     LIBCMTD:typname.obj
 0004:00002a84       $pdata$?_Type_info_dtor@type_info@@CAXPEAV1@@Z 000000018007fa84     LIBCMTD:typname.obj
 0004:00002a90       $pdata$?_Type_info_dtor_internal@type_info@@CAXPEAV1@@Z 000000018007fa90     LIBCMTD:typname.obj
 0004:00002a9c       $pdata$__clean_type_info_names_internal 000000018007fa9c     LIBCMTD:typname.obj
 0004:00002aa8       $pdata$__unDNameHelper     000000018007faa8     LIBCMTD:typname.obj
 0004:00002ab4       $pdata$?wcstoxl@@YAKPEB_WPEAPEB_WHH@Z 000000018007fab4     LIBCMTD:wcstol.obj
 0004:00002ac0       $pdata$_wcstol_l           000000018007fac0     LIBCMTD:wcstol.obj
 0004:00002acc       $pdata$_wcstoul_l          000000018007facc     LIBCMTD:wcstol.obj
 0004:00002ad8       $pdata$wcstol              000000018007fad8     LIBCMTD:wcstol.obj
 0004:00002ae4       $pdata$wcstoul             000000018007fae4     LIBCMTD:wcstol.obj
 0004:00002af0       $pdata$?wcstoxq@@YA_KPEAUlocaleinfo_struct@@PEB_WPEAPEB_WHH@Z 000000018007faf0     LIBCMTD:wcstoq.obj
 0004:00002afc       $pdata$_wcstof_l           000000018007fafc     LIBCMTD:wcstoq.obj
 0004:00002b08       $pdata$_wcstoi64           000000018007fb08     LIBCMTD:wcstoq.obj
 0004:00002b14       $pdata$_wcstoi64_l         000000018007fb14     LIBCMTD:wcstoq.obj
 0004:00002b20       $pdata$_wcstoimax_l        000000018007fb20     LIBCMTD:wcstoq.obj
 0004:00002b2c       $pdata$_wcstold_l          000000018007fb2c     LIBCMTD:wcstoq.obj
 0004:00002b38       $pdata$_wcstoll_l          000000018007fb38     LIBCMTD:wcstoq.obj
 0004:00002b44       $pdata$_wcstoui64          000000018007fb44     LIBCMTD:wcstoq.obj
 0004:00002b50       $pdata$_wcstoui64_l        000000018007fb50     LIBCMTD:wcstoq.obj
 0004:00002b5c       $pdata$_wcstoull_l         000000018007fb5c     LIBCMTD:wcstoq.obj
 0004:00002b68       $pdata$_wcstoumax_l        000000018007fb68     LIBCMTD:wcstoq.obj
 0004:00002b74       $pdata$wcstof              000000018007fb74     LIBCMTD:wcstoq.obj
 0004:00002b80       $pdata$wcstoimax           000000018007fb80     LIBCMTD:wcstoq.obj
 0004:00002b8c       $pdata$wcstold             000000018007fb8c     LIBCMTD:wcstoq.obj
 0004:00002b98       $pdata$wcstoll             000000018007fb98     LIBCMTD:wcstoq.obj
 0004:00002ba4       $pdata$wcstoull            000000018007fba4     LIBCMTD:wcstoq.obj
 0004:00002bb0       $pdata$wcstoumax           000000018007fbb0     LIBCMTD:wcstoq.obj
 0004:00002bbc       $pdata$_towlower_l         000000018007fbbc     LIBCMTD:towlower.obj
 0004:00002bc8       $pdata$towlower            000000018007fbc8     LIBCMTD:towlower.obj
 0004:00002bd4       $pdata$_flswbuf            000000018007fbd4     LIBCMTD:_flswbuf.obj
 0004:00002be0       $pdata$__termconout        000000018007fbe0     LIBCMTD:initcon.obj
 0004:00002bec       $pdata$__initconout        000000018007fbec     LIBCMTD:initcon.obj
 0004:00002bf8       $pdata$??0DName@@QEAA@AEAPEBDD@Z 000000018007fbf8     LIBCMTD:undname.obj
 0004:00002c04       $pdata$??0DName@@QEAA@AEBV0@@Z 000000018007fc04     LIBCMTD:undname.obj
 0004:00002c10       $pdata$??0DName@@QEAA@D@Z  000000018007fc10     LIBCMTD:undname.obj
 0004:00002c1c       $pdata$??0DName@@QEAA@PEAV0@@Z 000000018007fc1c     LIBCMTD:undname.obj
 0004:00002c28       $pdata$??0DName@@QEAA@PEBD@Z 000000018007fc28     LIBCMTD:undname.obj
 0004:00002c34       $pdata$??0DName@@QEAA@W4DNameStatus@@@Z 000000018007fc34     LIBCMTD:undname.obj
 0004:00002c40       $pdata$??0DName@@QEAA@_J@Z 000000018007fc40     LIBCMTD:undname.obj
 0004:00002c4c       $pdata$??0DName@@QEAA@_K@Z 000000018007fc4c     LIBCMTD:undname.obj
 0004:00002c58       $pdata$??0DNameStatusNode@@AEAA@W4DNameStatus@@@Z 000000018007fc58     LIBCMTD:undname.obj
 0004:00002c64       $pdata$??0UnDecorator@@QEAA@PEADPEBDHP6APEADJ@ZK@Z 000000018007fc64     LIBCMTD:undname.obj
 0004:00002c70       $pdata$??0charNode@@QEAA@D@Z 000000018007fc70     LIBCMTD:undname.obj
 0004:00002c7c       $pdata$??0pDNameNode@@QEAA@PEAVDName@@@Z 000000018007fc7c     LIBCMTD:undname.obj
 0004:00002c88       $pdata$??0pairNode@@QEAA@PEAVDNameNode@@0@Z 000000018007fc88     LIBCMTD:undname.obj
 0004:00002c94       $pdata$??0pcharNode@@QEAA@PEBDH@Z 000000018007fc94     LIBCMTD:undname.obj
 0004:00002ca0       $pdata$??2@YAPEAX_KAEAV_HeapManager@@H@Z 000000018007fca0     LIBCMTD:undname.obj
 0004:00002cac       $pdata$??4DName@@QEAAAEAV0@AEBV0@@Z 000000018007fcac     LIBCMTD:undname.obj
 0004:00002cb8       $pdata$??4DName@@QEAAAEAV0@D@Z 000000018007fcb8     LIBCMTD:undname.obj
 0004:00002cc4       $pdata$??4DName@@QEAAAEAV0@PEAV0@@Z 000000018007fcc4     LIBCMTD:undname.obj
 0004:00002cd0       $pdata$??4DName@@QEAAAEAV0@PEBD@Z 000000018007fcd0     LIBCMTD:undname.obj
 0004:00002cdc       $pdata$??4DName@@QEAAAEAV0@W4DNameStatus@@@Z 000000018007fcdc     LIBCMTD:undname.obj
 0004:00002ce8       $pdata$??AReplicator@@QEBA?AVDName@@H@Z 000000018007fce8     LIBCMTD:undname.obj
 0004:00002cf4       $pdata$??BUnDecorator@@QEAAPEADXZ 000000018007fcf4     LIBCMTD:undname.obj
 0004:00002d00       $pdata$??H@YA?AVDName@@DAEBV0@@Z 000000018007fd00     LIBCMTD:undname.obj
 0004:00002d0c       $pdata$??H@YA?AVDName@@PEBDAEBV0@@Z 000000018007fd0c     LIBCMTD:undname.obj
 0004:00002d18       $pdata$??H@YA?AVDName@@W4DNameStatus@@AEBV0@@Z 000000018007fd18     LIBCMTD:undname.obj
 0004:00002d24       $pdata$??HDName@@QEBA?AV0@AEBV0@@Z 000000018007fd24     LIBCMTD:undname.obj
 0004:00002d30       $pdata$??HDName@@QEBA?AV0@D@Z 000000018007fd30     LIBCMTD:undname.obj
 0004:00002d3c       $pdata$??HDName@@QEBA?AV0@PEAV0@@Z 000000018007fd3c     LIBCMTD:undname.obj
 0004:00002d48       $pdata$??HDName@@QEBA?AV0@PEBD@Z 000000018007fd48     LIBCMTD:undname.obj
 0004:00002d54       $pdata$??HDName@@QEBA?AV0@W4DNameStatus@@@Z 000000018007fd54     LIBCMTD:undname.obj
 0004:00002d60       $pdata$??YDName@@QEAAAEAV0@AEBV0@@Z 000000018007fd60     LIBCMTD:undname.obj
 0004:00002d6c       $pdata$??YDName@@QEAAAEAV0@D@Z 000000018007fd6c     LIBCMTD:undname.obj
 0004:00002d78       $pdata$??YDName@@QEAAAEAV0@PEAV0@@Z 000000018007fd78     LIBCMTD:undname.obj
 0004:00002d84       $pdata$??YDName@@QEAAAEAV0@PEBD@Z 000000018007fd84     LIBCMTD:undname.obj
 0004:00002d90       $pdata$??YDName@@QEAAAEAV0@W4DNameStatus@@@Z 000000018007fd90     LIBCMTD:undname.obj
 0004:00002d9c       $pdata$??YReplicator@@QEAAAEAV0@AEBVDName@@@Z 000000018007fd9c     LIBCMTD:undname.obj
 0004:00002da8       $pdata$??_5DName@@QEAAAEAV0@AEBV0@@Z 000000018007fda8     LIBCMTD:undname.obj
 0004:00002db4       $pdata$?Destructor@_HeapManager@@QEAAXXZ 000000018007fdb4     LIBCMTD:undname.obj
 0004:00002dc0       $pdata$?UScore@UnDecorator@@SAPEBDW4Tokens@@@Z 000000018007fdc0     LIBCMTD:undname.obj
 0004:00002dcc       $pdata$?append@DName@@AEAAXPEAVDNameNode@@@Z 000000018007fdcc     LIBCMTD:undname.obj
 0004:00002dd8       $pdata$?composeDeclaration@UnDecorator@@CA?AVDName@@AEBV2@@Z 000000018007fdd8     LIBCMTD:undname.obj
 0004:00002de4       $pdata$?dbGetString@DName@@QEBAPEADXZ 000000018007fde4     LIBCMTD:undname.obj
 0004:00002df0       $pdata$?doAccessSpecifiers@UnDecorator@@SAHXZ 000000018007fdf0     LIBCMTD:undname.obj
 0004:00002dfc       $pdata$?doAllocationLanguage@UnDecorator@@SAHXZ 000000018007fdfc     LIBCMTD:undname.obj
 0004:00002e08       $pdata$?doAllocationModel@UnDecorator@@SAHXZ 000000018007fe08     LIBCMTD:undname.obj
 0004:00002e14       $pdata$?doEcsu@UnDecorator@@SAHXZ 000000018007fe14     LIBCMTD:undname.obj
 0004:00002e20       $pdata$?doEllipsis@UnDecorator@@SAHXZ 000000018007fe20     LIBCMTD:undname.obj
 0004:00002e2c       $pdata$?doFunctionReturns@UnDecorator@@SAHXZ 000000018007fe2c     LIBCMTD:undname.obj
 0004:00002e38       $pdata$?doMSKeywords@UnDecorator@@SAHXZ 000000018007fe38     LIBCMTD:undname.obj
 0004:00002e44       $pdata$?doMemberTypes@UnDecorator@@SAHXZ 000000018007fe44     LIBCMTD:undname.obj
 0004:00002e50       $pdata$?doPchar@DName@@AEAAXPEBDH@Z 000000018007fe50     LIBCMTD:undname.obj
 0004:00002e5c       $pdata$?doPtr64@UnDecorator@@SAHXZ 000000018007fe5c     LIBCMTD:undname.obj
 0004:00002e68       $pdata$?doRestrictionSpec@UnDecorator@@SAHXZ 000000018007fe68     LIBCMTD:undname.obj
 0004:00002e74       $pdata$?doThisTypes@UnDecorator@@SAHXZ 000000018007fe74     LIBCMTD:undname.obj
 0004:00002e80       $pdata$?doThrowTypes@UnDecorator@@SAHXZ 000000018007fe80     LIBCMTD:undname.obj
 0004:00002e8c       $pdata$?doUnderScore@UnDecorator@@SAHXZ 000000018007fe8c     LIBCMTD:undname.obj
 0004:00002e98       $pdata$?getArgumentList@UnDecorator@@CA?AVDName@@XZ 000000018007fe98     LIBCMTD:undname.obj
 0004:00002ea4       $pdata$?getArgumentTypes@UnDecorator@@CA?AVDName@@XZ 000000018007fea4     LIBCMTD:undname.obj
 0004:00002eb0       $pdata$?getArrayType@UnDecorator@@CA?AVDName@@AEBV2@@Z 000000018007feb0     LIBCMTD:undname.obj
 0004:00002ebc       $pdata$?getBasedType@UnDecorator@@CA?AVDName@@XZ 000000018007febc     LIBCMTD:undname.obj
 0004:00002ec8       $pdata$?getBasicDataType@UnDecorator@@CA?AVDName@@AEBV2@@Z 000000018007fec8     LIBCMTD:undname.obj
 0004:00002ed4       $pdata$?getCallIndex@UnDecorator@@CA?AVDName@@XZ 000000018007fed4     LIBCMTD:undname.obj
 0004:00002ee0       $pdata$?getCallingConvention@UnDecorator@@CA?AVDName@@XZ 000000018007fee0     LIBCMTD:undname.obj
 0004:00002eec       $pdata$?getDataIndirectType@UnDecorator@@CA?AVDName@@AEBV2@PEBD0H@Z 000000018007feec     LIBCMTD:undname.obj
 0004:00002ef8       $pdata$?getDataIndirectType@UnDecorator@@CA?AVDName@@XZ 000000018007fef8     LIBCMTD:undname.obj
 0004:00002f04       $pdata$?getDataType@UnDecorator@@CA?AVDName@@PEAV2@@Z 000000018007ff04     LIBCMTD:undname.obj
 0004:00002f10       $pdata$?getDecoratedName@UnDecorator@@CA?AVDName@@XZ 000000018007ff10     LIBCMTD:undname.obj
 0004:00002f1c       $pdata$?getDimension@UnDecorator@@CA?AVDName@@_N@Z 000000018007ff1c     LIBCMTD:undname.obj
 0004:00002f28       $pdata$?getDispatchTarget@UnDecorator@@CA?AVDName@@XZ 000000018007ff28     LIBCMTD:undname.obj
 0004:00002f34       $pdata$?getDisplacement@UnDecorator@@CA?AVDName@@XZ 000000018007ff34     LIBCMTD:undname.obj
 0004:00002f40       $pdata$?getECSUDataType@UnDecorator@@CA?AVDName@@XZ 000000018007ff40     LIBCMTD:undname.obj
 0004:00002f4c       $pdata$?getECSUName@UnDecorator@@CA?AVDName@@XZ 000000018007ff4c     LIBCMTD:undname.obj
 0004:00002f58       $pdata$?getEnumType@UnDecorator@@CA?AVDName@@XZ 000000018007ff58     LIBCMTD:undname.obj
 0004:00002f64       $pdata$?getExtendedDataIndirectType@UnDecorator@@CA?AVDName@@AEAPEBDAEA_NH@Z 000000018007ff64     LIBCMTD:undname.obj
 0004:00002f70       $pdata$?getExternalDataType@UnDecorator@@CA?AVDName@@AEBV2@@Z 000000018007ff70     LIBCMTD:undname.obj
 0004:00002f7c       $pdata$?getFunctionIndirectType@UnDecorator@@CA?AVDName@@AEBV2@@Z 000000018007ff7c     LIBCMTD:undname.obj
 0004:00002f88       $pdata$?getGuardNumber@UnDecorator@@CA?AVDName@@XZ 000000018007ff88     LIBCMTD:undname.obj
 0004:00002f94       $pdata$?getLastChar@DName@@QEBADXZ 000000018007ff94     LIBCMTD:undname.obj
 0004:00002fa0       $pdata$?getLastChar@DNameStatusNode@@UEBADXZ 000000018007ffa0     LIBCMTD:undname.obj
 0004:00002fac       $pdata$?getLastChar@pDNameNode@@UEBADXZ 000000018007ffac     LIBCMTD:undname.obj
 0004:00002fb8       $pdata$?getLastChar@pairNode@@UEBADXZ 000000018007ffb8     LIBCMTD:undname.obj
 0004:00002fc4       $pdata$?getLastChar@pcharNode@@UEBADXZ 000000018007ffc4     LIBCMTD:undname.obj
 0004:00002fd0       $pdata$?getLexicalFrame@UnDecorator@@CA?AVDName@@XZ 000000018007ffd0     LIBCMTD:undname.obj
 0004:00002fdc       $pdata$?getMemory@_HeapManager@@QEAAPEAX_KH@Z 000000018007ffdc     LIBCMTD:undname.obj
 0004:00002fe8       $pdata$?getNumberOfDimensions@UnDecorator@@CAHXZ 000000018007ffe8     LIBCMTD:undname.obj
 0004:00002ff4       $pdata$?getOperatorName@UnDecorator@@CA?AVDName@@_NPEA_N@Z 000000018007fff4     LIBCMTD:undname.obj
 0004:00003000       $pdata$?getPointerType@UnDecorator@@CA?AVDName@@AEBV2@0@Z 0000000180080000     LIBCMTD:undname.obj
 0004:0000300c       $pdata$?getPointerTypeArray@UnDecorator@@CA?AVDName@@AEBV2@0@Z 000000018008000c     LIBCMTD:undname.obj
 0004:00003018       $pdata$?getPrimaryDataType@UnDecorator@@CA?AVDName@@AEBV2@@Z 0000000180080018     LIBCMTD:undname.obj
 0004:00003024       $pdata$?getPtrRefDataType@UnDecorator@@CA?AVDName@@AEBV2@H@Z 0000000180080024     LIBCMTD:undname.obj
 0004:00003030       $pdata$?getPtrRefType@UnDecorator@@CA?AVDName@@AEBV2@0PEBD@Z 0000000180080030     LIBCMTD:undname.obj
 0004:0000303c       $pdata$?getReferenceType@UnDecorator@@CA?AVDName@@AEBV2@0PEBD@Z 000000018008003c     LIBCMTD:undname.obj
 0004:00003048       $pdata$?getRestrictionSpec@UnDecorator@@CA?AVDName@@XZ 0000000180080048     LIBCMTD:undname.obj
 0004:00003054       $pdata$?getReturnType@UnDecorator@@CA?AVDName@@PEAV2@@Z 0000000180080054     LIBCMTD:undname.obj
 0004:00003060       $pdata$?getScope@UnDecorator@@CA?AVDName@@XZ 0000000180080060     LIBCMTD:undname.obj
 0004:0000306c       $pdata$?getScopedName@UnDecorator@@CA?AVDName@@XZ 000000018008006c     LIBCMTD:undname.obj
 0004:00003078       $pdata$?getSignedDimension@UnDecorator@@CA?AVDName@@XZ 0000000180080078     LIBCMTD:undname.obj
 0004:00003084       $pdata$?getStorageConvention@UnDecorator@@CA?AVDName@@XZ 0000000180080084     LIBCMTD:undname.obj
 0004:00003090       $pdata$?getString@DName@@QEBAPEADPEAD0@Z 0000000180080090     LIBCMTD:undname.obj
 0004:0000309c       $pdata$?getString@DName@@QEBAPEADPEADH@Z 000000018008009c     LIBCMTD:undname.obj
 0004:000030a8       $pdata$?getString@DNameStatusNode@@UEBAPEADPEAD0@Z 00000001800800a8     LIBCMTD:undname.obj
 0004:000030b4       $pdata$?getString@pDNameNode@@UEBAPEADPEAD0@Z 00000001800800b4     LIBCMTD:undname.obj
 0004:000030c0       $pdata$?getString@pairNode@@UEBAPEADPEAD0@Z 00000001800800c0     LIBCMTD:undname.obj
 0004:000030cc       $pdata$?getString@pcharNode@@UEBAPEADPEAD0@Z 00000001800800cc     LIBCMTD:undname.obj
 0004:000030d8       $pdata$?getStringEncoding@UnDecorator@@CA?AVDName@@PEADH@Z 00000001800800d8     LIBCMTD:undname.obj
 0004:000030e4       $pdata$?getStringHelper@@YAPEADPEAD00H@Z 00000001800800e4     LIBCMTD:undname.obj
 0004:000030f0       $pdata$?getSymbolName@UnDecorator@@CA?AVDName@@XZ 00000001800800f0     LIBCMTD:undname.obj
 0004:000030fc       $pdata$?getTemplateArgumentList@UnDecorator@@CA?AVDName@@XZ 00000001800800fc     LIBCMTD:undname.obj
 0004:00003108       $pdata$?getTemplateConstant@UnDecorator@@CA?AVDName@@XZ 0000000180080108     LIBCMTD:undname.obj
 0004:00003114       $pdata$?getTemplateName@UnDecorator@@CA?AVDName@@_N@Z 0000000180080114     LIBCMTD:undname.obj
 0004:00003120       $pdata$?getThisType@UnDecorator@@CA?AVDName@@XZ 0000000180080120     LIBCMTD:undname.obj
 0004:0000312c       $pdata$?getThrowTypes@UnDecorator@@CA?AVDName@@XZ 000000018008012c     LIBCMTD:undname.obj
 0004:00003138       $pdata$?getTypeEncoding@UnDecorator@@CAHXZ 0000000180080138     LIBCMTD:undname.obj
 0004:00003144       $pdata$?getVCallThunkType@UnDecorator@@CA?AVDName@@XZ 0000000180080144     LIBCMTD:undname.obj
 0004:00003150       $pdata$?getVbTableType@UnDecorator@@CA?AVDName@@AEBV2@@Z 0000000180080150     LIBCMTD:undname.obj
 0004:0000315c       $pdata$?getVdispMapType@UnDecorator@@CA?AVDName@@AEBV2@@Z 000000018008015c     LIBCMTD:undname.obj
 0004:00003168       $pdata$?getVfTableType@UnDecorator@@CA?AVDName@@AEBV2@@Z 0000000180080168     LIBCMTD:undname.obj
 0004:00003174       $pdata$?getZName@UnDecorator@@CA?AVDName@@_N0@Z 0000000180080174     LIBCMTD:undname.obj
 0004:00003180       $pdata$?isEmpty@DName@@QEBAHXZ 0000000180080180     LIBCMTD:undname.obj
 0004:0000318c       $pdata$?isFull@Replicator@@QEBAHXZ 000000018008018c     LIBCMTD:undname.obj
 0004:00003198       $pdata$?isUDC@DName@@QEBAHXZ 0000000180080198     LIBCMTD:undname.obj
 0004:000031a4       $pdata$?isUDTThunk@DName@@QEBAHXZ 00000001800801a4     LIBCMTD:undname.obj
 0004:000031b0       $pdata$?isValid@DName@@QEBAHXZ 00000001800801b0     LIBCMTD:undname.obj
 0004:000031bc       $pdata$?length@DName@@QEBAHXZ 00000001800801bc     LIBCMTD:undname.obj
 0004:000031c8       $pdata$?length@pDNameNode@@UEBAHXZ 00000001800801c8     LIBCMTD:undname.obj
 0004:000031d4       $pdata$?length@pairNode@@UEBAHXZ 00000001800801d4     LIBCMTD:undname.obj
 0004:000031e0       $pdata$?make@DNameStatusNode@@SAPEAV1@W4DNameStatus@@@Z 00000001800801e0     LIBCMTD:undname.obj
 0004:000031ec       $pdata$?setIsUDC@DName@@QEAAXXZ 00000001800801ec     LIBCMTD:undname.obj
 0004:000031f8       $pdata$?und_memcpy@@YAXPEADPEBDI@Z 00000001800801f8     LIBCMTD:undname.obj
 0004:00003204       $pdata$?und_strlen@@YAIPEBD@Z 0000000180080204     LIBCMTD:undname.obj
 0004:00003210       $pdata$__unDName           0000000180080210     LIBCMTD:undname.obj
 0004:0000321c       $pdata$__unDNameEx         000000018008021c     LIBCMTD:undname.obj
 0004:00003228       $pdata$_wcstod_l           0000000180080228     LIBCMTD:wcstod.obj
 0004:00003234       $pdata$wcstod              0000000180080234     LIBCMTD:wcstod.obj
 0004:00003240       $pdata$__crtLCMapStringW   0000000180080240     LIBCMTD:w_map.obj
 0004:0000324c       $pdata$_get_purecall_handler 000000018008024c     LIBCMTD:purevirt.obj
 0004:00003258       $pdata$_purecall           0000000180080258     LIBCMTD:purevirt.obj
 0004:00003264       $pdata$_set_purecall_handler 0000000180080264     LIBCMTD:purevirt.obj
 0004:00003270       $pdata$_atoi64             0000000180080270     LIBCMTD:atox.obj
 0004:0000327c       $pdata$_atoi64_l           000000018008027c     LIBCMTD:atox.obj
 0004:00003288       $pdata$_atoi_l             0000000180080288     LIBCMTD:atox.obj
 0004:00003294       $pdata$_atol_l             0000000180080294     LIBCMTD:atox.obj
 0004:000032a0       $pdata$_atoll_l            00000001800802a0     LIBCMTD:atox.obj
 0004:000032ac       $pdata$atoi                00000001800802ac     LIBCMTD:atox.obj
 0004:000032b8       $pdata$atol                00000001800802b8     LIBCMTD:atox.obj
 0004:000032c4       $pdata$atoll               00000001800802c4     LIBCMTD:atox.obj
 0004:000032d0       $pdata$_wfltin2            00000001800802d0     LIBCMTD:wcfin.obj
 0004:000032dc       $pdata$?strtoxq@@YA_KPEAUlocaleinfo_struct@@PEBDPEAPEBDHH@Z 00000001800802dc     LIBCMTD:strtoq.obj
 0004:000032e8       $pdata$_strtof_l           00000001800802e8     LIBCMTD:strtoq.obj
 0004:000032f4       $pdata$_strtoi64           00000001800802f4     LIBCMTD:strtoq.obj
 0004:00003300       $pdata$_strtoi64_l         0000000180080300     LIBCMTD:strtoq.obj
 0004:0000330c       $pdata$_strtoimax_l        000000018008030c     LIBCMTD:strtoq.obj
 0004:00003318       $pdata$_strtold_l          0000000180080318     LIBCMTD:strtoq.obj
 0004:00003324       $pdata$_strtoll_l          0000000180080324     LIBCMTD:strtoq.obj
 0004:00003330       $pdata$_strtoui64          0000000180080330     LIBCMTD:strtoq.obj
 0004:0000333c       $pdata$_strtoui64_l        000000018008033c     LIBCMTD:strtoq.obj
 0004:00003348       $pdata$_strtoull_l         0000000180080348     LIBCMTD:strtoq.obj
 0004:00003354       $pdata$_strtoumax_l        0000000180080354     LIBCMTD:strtoq.obj
 0004:00003360       $pdata$strtof              0000000180080360     LIBCMTD:strtoq.obj
 0004:0000336c       $pdata$strtoimax           000000018008036c     LIBCMTD:strtoq.obj
 0004:00003378       $pdata$strtold             0000000180080378     LIBCMTD:strtoq.obj
 0004:00003384       $pdata$strtoll             0000000180080384     LIBCMTD:strtoq.obj
 0004:00003390       $pdata$strtoull            0000000180080390     LIBCMTD:strtoq.obj
 0004:0000339c       $pdata$strtoumax           000000018008039c     LIBCMTD:strtoq.obj
 0004:000033a8       $pdata$__WSTRINGTOLD_L     00000001800803a8     LIBCMTD:wstrgtold.obj
 0004:000033b4       $pdata$__wstrgtold12_l     00000001800803b4     LIBCMTD:wstrgtold.obj
 0004:000033c0       $pdata$_strtod_l           00000001800803c0     LIBCMTD:strtod.obj
 0004:000033cc       $pdata$strtod              00000001800803cc     LIBCMTD:strtod.obj
 0004:000033d8       $pdata$_fltin2             00000001800803d8     LIBCMTD:cfin.obj
 0004:000033e4       $pdata$_CRT_INIT$fin$0     00000001800803e4     LIBCMTD:dllcrt0.obj
 0004:000033f0       $pdata$__DllMainCRTStartup$filt$0 00000001800803f0     LIBCMTD:dllcrt0.obj
 0004:000033fc       $pdata$_freefls$fin$0      00000001800803fc     LIBCMTD:tidtable.obj
 0004:00003408       $pdata$_freefls$fin$1      0000000180080408     LIBCMTD:tidtable.obj
 0004:00003414       $pdata$_initptd$fin$0      0000000180080414     LIBCMTD:tidtable.obj
 0004:00003420       $pdata$_initptd$fin$1      0000000180080420     LIBCMTD:tidtable.obj
 0004:0000342c       $pdata$doexit$fin$0        000000018008042c     LIBCMTD:crt0dat.obj
 0004:00003438       $pdata$_ioinit$fin$0       0000000180080438     LIBCMTD:ioinit.obj
 0004:00003444       $pdata$?fin$0@?0??_CrtMemDumpAllObjectsSince_stat@@YAXPEBU_CrtMemState@@PEAUlocaleinfo_struct@@@Z@4HA 0000000180080444     LIBCMTD:dbgheap.obj
 0004:00003450       $pdata$?filt$0@?0??__crtIsBadReadPtr@@YAHPEBX_K@Z@4HA 0000000180080450     LIBCMTD:dbgheap.obj
 0004:0000345c       $pdata$_CrtCheckMemory$fin$0 000000018008045c     LIBCMTD:dbgheap.obj
 0004:00003468       $pdata$_CrtDoForAllClientObjects$fin$0 0000000180080468     LIBCMTD:dbgheap.obj
 0004:00003474       $pdata$_CrtIsMemoryBlock$fin$0 0000000180080474     LIBCMTD:dbgheap.obj
 0004:00003480       $pdata$_CrtMemCheckpoint$fin$0 0000000180080480     LIBCMTD:dbgheap.obj
 0004:0000348c       $pdata$_CrtSetDbgBlockType$fin$0 000000018008048c     LIBCMTD:dbgheap.obj
 0004:00003498       $pdata$_CrtSetDbgFlag$fin$0 0000000180080498     LIBCMTD:dbgheap.obj
 0004:000034a4       $pdata$_expand_dbg$fin$0   00000001800804a4     LIBCMTD:dbgheap.obj
 0004:000034b0       $pdata$_free_dbg$fin$0     00000001800804b0     LIBCMTD:dbgheap.obj
 0004:000034bc       $pdata$_heap_alloc_dbg_impl$fin$0 00000001800804bc     LIBCMTD:dbgheap.obj
 0004:000034c8       $pdata$_msize_dbg$fin$0    00000001800804c8     LIBCMTD:dbgheap.obj
 0004:000034d4       $pdata$_realloc_dbg$fin$0  00000001800804d4     LIBCMTD:dbgheap.obj
 0004:000034e0       $pdata$_mtinitlocknum$fin$0 00000001800804e0     LIBCMTD:mlock.obj
 0004:000034ec       $pdata$__updatetlocinfo$fin$0 00000001800804ec     LIBCMTD:localref.obj
 0004:000034f8       $pdata$?dtor$0@?0??getSystemCP@@YAHH@Z@4HA 00000001800804f8     LIBCMTD:mbctype.obj
 0004:00003504       $pdata$__updatetmbcinfo$fin$0 0000000180080504     LIBCMTD:mbctype.obj
 0004:00003510       $pdata$_setmbcp$fin$0      0000000180080510     LIBCMTD:mbctype.obj
 0004:0000351c       $pdata$_ctrlfp$filt$0      000000018008051c     LIBCMTD:fpctrl.obj
 0004:00003528       $pdata$_CrtSetReportHookW2$fin$0 0000000180080528     LIBCMTD:dbgrptw.obj
 0004:00003534       $pdata$_IsNonwritableInCurrentImage$filt$0 0000000180080534     LIBCMTD:pesect.obj
 0004:00003540       $pdata$_onexit$fin$0       0000000180080540     LIBCMTD:onexit.obj
 0004:0000354c       $pdata$?filt$0@?0??_inconsistency@@YAXXZ@4HA 000000018008054c     LIBCMTD:hooks.obj
 0004:00003558       $pdata$?filt$0@?0??terminate@@YAXXZ@4HA 0000000180080558     LIBCMTD:hooks.obj
 0004:00003564       $pdata$ctrlevent_capture$fin$0 0000000180080564     LIBCMTD:winsig.obj
 0004:00003570       $pdata$raise$fin$0         0000000180080570     LIBCMTD:winsig.obj
 0004:0000357c       $pdata$signal$fin$0        000000018008057c     LIBCMTD:winsig.obj
 0004:00003588       $pdata$?dtor$0@?0??x_ismbbtype_l@@YAHPEAUlocaleinfo_struct@@IHH@Z@4HA 0000000180080588     LIBCMTD:ismbbyte.obj
 0004:00003594       $pdata$_CrtSetReportHook2$fin$0 0000000180080594     LIBCMTD:dbgrpt.obj
 0004:000035a0       $pdata$_CallSETranslator$filt$0 00000001800805a0     LIBCMTD:trnsctrl.obj
 0004:000035ac       $pdata$_free_locale$fin$0  00000001800805ac     LIBCMTD:wsetloca.obj
 0004:000035b8       $pdata$_free_locale$fin$1  00000001800805b8     LIBCMTD:wsetloca.obj
 0004:000035c4       $pdata$_get_current_locale$fin$0 00000001800805c4     LIBCMTD:wsetloca.obj
 0004:000035d0       $pdata$_get_current_locale$fin$1 00000001800805d0     LIBCMTD:wsetloca.obj
 0004:000035dc       $pdata$_locterm$fin$0      00000001800805dc     LIBCMTD:wsetloca.obj
 0004:000035e8       $pdata$_wsetlocale$fin$0   00000001800805e8     LIBCMTD:wsetloca.obj
 0004:000035f4       $pdata$_wsetlocale$fin$1   00000001800805f4     LIBCMTD:wsetloca.obj
 0004:00003600       $pdata$_wsetlocale$fin$2   0000000180080600     LIBCMTD:wsetloca.obj
 0004:0000360c       $pdata$_VCrtDbgReportA$fin$0 000000018008060c     LIBCMTD:dbgrptt.obj
 0004:00003618       $pdata$_VCrtDbgReportA$fin$1 0000000180080618     LIBCMTD:dbgrptt.obj
 0004:00003624       $pdata$_VCrtDbgReportW$fin$0 0000000180080624     LIBCMTD:dbgrptt.obj
 0004:00003630       $pdata$_VCrtDbgReportW$fin$1 0000000180080630     LIBCMTD:dbgrptt.obj
 0004:0000363c       $pdata$fflush$fin$0        000000018008063c     LIBCMTD:fflush.obj
 0004:00003648       $pdata$flsall$fin$0        0000000180080648     LIBCMTD:fflush.obj
 0004:00003654       $pdata$flsall$fin$1        0000000180080654     LIBCMTD:fflush.obj
 0004:00003660       $pdata$_fcloseall$fin$0    0000000180080660     LIBCMTD:closeall.obj
 0004:0000366c       $pdata$_control87$filt$0   000000018008066c     LIBCMTD:ieee.obj
 0004:00003678       $pdata$__BuildCatchObject$filt$0 0000000180080678     LIBCMTD:frame.obj
 0004:00003684       $pdata$__BuildCatchObjectHelper$filt$0 0000000180080684     LIBCMTD:frame.obj
 0004:00003690       $pdata$__CxxCallCatchBlock$filt$0 0000000180080690     LIBCMTD:frame.obj
 0004:0000369c       $pdata$__CxxCallCatchBlock$fin$1 000000018008069c     LIBCMTD:frame.obj
 0004:000036a8       $pdata$__CxxExceptionFilter$fin$0 00000001800806a8     LIBCMTD:frame.obj
 0004:000036b4       $pdata$__DestructExceptionObject$filt$0 00000001800806b4     LIBCMTD:frame.obj
 0004:000036c0       $pdata$__FrameUnwindToState$filt$0 00000001800806c0     LIBCMTD:frame.obj
 0004:000036cc       $pdata$__FrameUnwindToState$fin$1 00000001800806cc     LIBCMTD:frame.obj
 0004:000036d8       $pdata$_commit$fin$0       00000001800806d8     LIBCMTD:commit.obj
 0004:000036e4       $pdata$_write$fin$0        00000001800806e4     LIBCMTD:write.obj
 0004:000036f0       $pdata$fclose$fin$0        00000001800806f0     LIBCMTD:fclose.obj
 0004:000036fc       $pdata$_lseeki64$fin$0     00000001800806fc     LIBCMTD:lseeki64.obj
 0004:00003708       $pdata$printf$fin$0        0000000180080708     LIBCMTD:printf.obj
 0004:00003714       $pdata$?fin$0@?0???3@YAXPEAX@Z@4HA 0000000180080714     LIBCMTD:dbgdel.obj
 0004:00003720       $pdata$fputwc$fin$0        0000000180080720     LIBCMTD:fputwc.obj
 0004:0000372c       $pdata$__lock_fhandle$fin$0 000000018008072c     LIBCMTD:osfinfo.obj
 0004:00003738       $pdata$_alloc_osfhnd$fin$0 0000000180080738     LIBCMTD:osfinfo.obj
 0004:00003744       $pdata$_alloc_osfhnd$fin$1 0000000180080744     LIBCMTD:osfinfo.obj
 0004:00003750       $pdata$_open_osfhandle$fin$0 0000000180080750     LIBCMTD:osfinfo.obj
 0004:0000375c       $pdata$_putwch$fin$0       000000018008075c     LIBCMTD:putwch.obj
 0004:00003768       $pdata$_close$fin$0        0000000180080768     LIBCMTD:close.obj
 0004:00003774       $pdata$?dtor$0@?0??strtoxl@@YAKPEAUlocaleinfo_struct@@PEBDPEAPEBDHH@Z@4HA 0000000180080774     LIBCMTD:strtol.obj
 0004:00003780       $pdata$vprintf_helper$fin$0 0000000180080780     LIBCMTD:vprintf.obj
 0004:0000378c       $pdata$?fin$0@?0??_Name_base@type_info@@CAPEBDPEBV1@PEAU__type_info_node@@@Z@4HA 000000018008078c     LIBCMTD:typname.obj
 0004:00003798       $pdata$?fin$0@?0??_Name_base_internal@type_info@@CAPEBDPEBV1@PEAU__type_info_node@@@Z@4HA 0000000180080798     LIBCMTD:typname.obj
 0004:000037a4       $pdata$?fin$0@?0??_Type_info_dtor@type_info@@CAXPEAV1@@Z@4HA 00000001800807a4     LIBCMTD:typname.obj
 0004:000037b0       $pdata$?fin$0@?0??_Type_info_dtor_internal@type_info@@CAXPEAV1@@Z@4HA 00000001800807b0     LIBCMTD:typname.obj
 0004:000037bc       $pdata$__clean_type_info_names_internal$fin$0 00000001800807bc     LIBCMTD:typname.obj
 0004:000037c8       $pdata$?dtor$0@?0??wcstoxq@@YA_KPEAUlocaleinfo_struct@@PEB_WPEAPEB_WHH@Z@4HA 00000001800807c8     LIBCMTD:wcstoq.obj
 0004:000037d4       $pdata$?dtor$0@?0??make@DNameStatusNode@@SAPEAV1@W4DNameStatus@@@Z@4HA 00000001800807d4     LIBCMTD:undname.obj
 0004:000037e0       $pdata$__unDName$fin$0     00000001800807e0     LIBCMTD:undname.obj
 0004:000037ec       $pdata$__unDNameEx$fin$0   00000001800807ec     LIBCMTD:undname.obj
 0004:000037f8       $pdata$?dtor$0@?0??strtoxq@@YA_KPEAUlocaleinfo_struct@@PEBDPEAPEBDHH@Z@4HA 00000001800807f8     LIBCMTD:strtoq.obj
